Archive member included because of file (symbol)

/usr/local/arm-elf-tools/gcc-4.3.3/lib/gcc/arm-elf/4.3.3/../../../../arm-elf/lib/interwork/libm.a(lib_a-s_atan.o)
                              ../../core/lua-5.1.4/src/lmathlib.o (atan)
/usr/local/arm-elf-tools/gcc-4.3.3/lib/gcc/arm-elf/4.3.3/../../../../arm-elf/lib/interwork/libm.a(lib_a-s_ceil.o)
                              ../../core/lua-5.1.4/src/lmathlib.o (ceil)
/usr/local/arm-elf-tools/gcc-4.3.3/lib/gcc/arm-elf/4.3.3/../../../../arm-elf/lib/interwork/libm.a(lib_a-s_cos.o)
                              ../../core/lua-5.1.4/src/lmathlib.o (cos)
/usr/local/arm-elf-tools/gcc-4.3.3/lib/gcc/arm-elf/4.3.3/../../../../arm-elf/lib/interwork/libm.a(lib_a-s_fabs.o)
                              /usr/local/arm-elf-tools/gcc-4.3.3/lib/gcc/arm-elf/4.3.3/../../../../arm-elf/lib/interwork/libm.a(lib_a-s_atan.o) (fabs)
/usr/local/arm-elf-tools/gcc-4.3.3/lib/gcc/arm-elf/4.3.3/../../../../arm-elf/lib/interwork/libm.a(lib_a-s_floor.o)
                              ../../core/lua-5.1.4/src/lcode.o (floor)
/usr/local/arm-elf-tools/gcc-4.3.3/lib/gcc/arm-elf/4.3.3/../../../../arm-elf/lib/interwork/libm.a(lib_a-s_frexp.o)
                              ../../core/lua-5.1.4/src/lmathlib.o (frexp)
/usr/local/arm-elf-tools/gcc-4.3.3/lib/gcc/arm-elf/4.3.3/../../../../arm-elf/lib/interwork/libm.a(lib_a-s_ldexp.o)
                              ../../core/lua-5.1.4/src/lmathlib.o (ldexp)
/usr/local/arm-elf-tools/gcc-4.3.3/lib/gcc/arm-elf/4.3.3/../../../../arm-elf/lib/interwork/libm.a(lib_a-s_modf.o)
                              ../../core/lua-5.1.4/src/lmathlib.o (modf)
/usr/local/arm-elf-tools/gcc-4.3.3/lib/gcc/arm-elf/4.3.3/../../../../arm-elf/lib/interwork/libm.a(lib_a-s_scalbn.o)
                              /usr/local/arm-elf-tools/gcc-4.3.3/lib/gcc/arm-elf/4.3.3/../../../../arm-elf/lib/interwork/libm.a(lib_a-s_ldexp.o) (scalbn)
/usr/local/arm-elf-tools/gcc-4.3.3/lib/gcc/arm-elf/4.3.3/../../../../arm-elf/lib/interwork/libm.a(lib_a-s_sin.o)
                              ../../core/lua-5.1.4/src/lmathlib.o (sin)
/usr/local/arm-elf-tools/gcc-4.3.3/lib/gcc/arm-elf/4.3.3/../../../../arm-elf/lib/interwork/libm.a(lib_a-s_tanh.o)
                              ../../core/lua-5.1.4/src/lmathlib.o (tanh)
/usr/local/arm-elf-tools/gcc-4.3.3/lib/gcc/arm-elf/4.3.3/../../../../arm-elf/lib/interwork/libm.a(lib_a-s_tan.o)
                              ../../core/lua-5.1.4/src/lmathlib.o (tan)
/usr/local/arm-elf-tools/gcc-4.3.3/lib/gcc/arm-elf/4.3.3/../../../../arm-elf/lib/interwork/libm.a(lib_a-w_acos.o)
                              ../../core/lua-5.1.4/src/lmathlib.o (acos)
/usr/local/arm-elf-tools/gcc-4.3.3/lib/gcc/arm-elf/4.3.3/../../../../arm-elf/lib/interwork/libm.a(lib_a-w_asin.o)
                              ../../core/lua-5.1.4/src/lmathlib.o (asin)
/usr/local/arm-elf-tools/gcc-4.3.3/lib/gcc/arm-elf/4.3.3/../../../../arm-elf/lib/interwork/libm.a(lib_a-w_atan2.o)
                              ../../core/lua-5.1.4/src/lmathlib.o (atan2)
/usr/local/arm-elf-tools/gcc-4.3.3/lib/gcc/arm-elf/4.3.3/../../../../arm-elf/lib/interwork/libm.a(lib_a-w_cosh.o)
                              ../../core/lua-5.1.4/src/lmathlib.o (cosh)
/usr/local/arm-elf-tools/gcc-4.3.3/lib/gcc/arm-elf/4.3.3/../../../../arm-elf/lib/interwork/libm.a(lib_a-w_exp.o)
                              ../../core/lua-5.1.4/src/lmathlib.o (exp)
/usr/local/arm-elf-tools/gcc-4.3.3/lib/gcc/arm-elf/4.3.3/../../../../arm-elf/lib/interwork/libm.a(lib_a-w_fmod.o)
                              ../../core/lua-5.1.4/src/lmathlib.o (fmod)
/usr/local/arm-elf-tools/gcc-4.3.3/lib/gcc/arm-elf/4.3.3/../../../../arm-elf/lib/interwork/libm.a(lib_a-w_log10.o)
                              ../../core/lua-5.1.4/src/lmathlib.o (log10)
/usr/local/arm-elf-tools/gcc-4.3.3/lib/gcc/arm-elf/4.3.3/../../../../arm-elf/lib/interwork/libm.a(lib_a-w_log.o)
                              ../../core/lua-5.1.4/src/lmathlib.o (log)
/usr/local/arm-elf-tools/gcc-4.3.3/lib/gcc/arm-elf/4.3.3/../../../../arm-elf/lib/interwork/libm.a(lib_a-w_pow.o)
                              ../../core/lua-5.1.4/src/lcode.o (pow)
/usr/local/arm-elf-tools/gcc-4.3.3/lib/gcc/arm-elf/4.3.3/../../../../arm-elf/lib/interwork/libm.a(lib_a-w_sinh.o)
                              ../../core/lua-5.1.4/src/lmathlib.o (sinh)
/usr/local/arm-elf-tools/gcc-4.3.3/lib/gcc/arm-elf/4.3.3/../../../../arm-elf/lib/interwork/libm.a(lib_a-w_sqrt.o)
                              ../../core/lua-5.1.4/src/lmathlib.o (sqrt)
/usr/local/arm-elf-tools/gcc-4.3.3/lib/gcc/arm-elf/4.3.3/../../../../arm-elf/lib/interwork/libm.a(lib_a-e_acos.o)
                              /usr/local/arm-elf-tools/gcc-4.3.3/lib/gcc/arm-elf/4.3.3/../../../../arm-elf/lib/interwork/libm.a(lib_a-w_acos.o) (__ieee754_acos)
/usr/local/arm-elf-tools/gcc-4.3.3/lib/gcc/arm-elf/4.3.3/../../../../arm-elf/lib/interwork/libm.a(lib_a-e_asin.o)
                              /usr/local/arm-elf-tools/gcc-4.3.3/lib/gcc/arm-elf/4.3.3/../../../../arm-elf/lib/interwork/libm.a(lib_a-w_asin.o) (__ieee754_asin)
/usr/local/arm-elf-tools/gcc-4.3.3/lib/gcc/arm-elf/4.3.3/../../../../arm-elf/lib/interwork/libm.a(lib_a-e_atan2.o)
                              /usr/local/arm-elf-tools/gcc-4.3.3/lib/gcc/arm-elf/4.3.3/../../../../arm-elf/lib/interwork/libm.a(lib_a-w_atan2.o) (__ieee754_atan2)
/usr/local/arm-elf-tools/gcc-4.3.3/lib/gcc/arm-elf/4.3.3/../../../../arm-elf/lib/interwork/libm.a(lib_a-e_cosh.o)
                              /usr/local/arm-elf-tools/gcc-4.3.3/lib/gcc/arm-elf/4.3.3/../../../../arm-elf/lib/interwork/libm.a(lib_a-w_cosh.o) (__ieee754_cosh)
/usr/local/arm-elf-tools/gcc-4.3.3/lib/gcc/arm-elf/4.3.3/../../../../arm-elf/lib/interwork/libm.a(lib_a-e_exp.o)
                              /usr/local/arm-elf-tools/gcc-4.3.3/lib/gcc/arm-elf/4.3.3/../../../../arm-elf/lib/interwork/libm.a(lib_a-w_exp.o) (__ieee754_exp)
/usr/local/arm-elf-tools/gcc-4.3.3/lib/gcc/arm-elf/4.3.3/../../../../arm-elf/lib/interwork/libm.a(lib_a-e_fmod.o)
                              /usr/local/arm-elf-tools/gcc-4.3.3/lib/gcc/arm-elf/4.3.3/../../../../arm-elf/lib/interwork/libm.a(lib_a-w_fmod.o) (__ieee754_fmod)
/usr/local/arm-elf-tools/gcc-4.3.3/lib/gcc/arm-elf/4.3.3/../../../../arm-elf/lib/interwork/libm.a(lib_a-e_log10.o)
                              /usr/local/arm-elf-tools/gcc-4.3.3/lib/gcc/arm-elf/4.3.3/../../../../arm-elf/lib/interwork/libm.a(lib_a-w_log10.o) (__ieee754_log10)
/usr/local/arm-elf-tools/gcc-4.3.3/lib/gcc/arm-elf/4.3.3/../../../../arm-elf/lib/interwork/libm.a(lib_a-e_log.o)
                              /usr/local/arm-elf-tools/gcc-4.3.3/lib/gcc/arm-elf/4.3.3/../../../../arm-elf/lib/interwork/libm.a(lib_a-w_log.o) (__ieee754_log)
/usr/local/arm-elf-tools/gcc-4.3.3/lib/gcc/arm-elf/4.3.3/../../../../arm-elf/lib/interwork/libm.a(lib_a-e_pow.o)
                              /usr/local/arm-elf-tools/gcc-4.3.3/lib/gcc/arm-elf/4.3.3/../../../../arm-elf/lib/interwork/libm.a(lib_a-w_pow.o) (__ieee754_pow)
/usr/local/arm-elf-tools/gcc-4.3.3/lib/gcc/arm-elf/4.3.3/../../../../arm-elf/lib/interwork/libm.a(lib_a-e_rem_pio2.o)
                              /usr/local/arm-elf-tools/gcc-4.3.3/lib/gcc/arm-elf/4.3.3/../../../../arm-elf/lib/interwork/libm.a(lib_a-s_cos.o) (__ieee754_rem_pio2)
/usr/local/arm-elf-tools/gcc-4.3.3/lib/gcc/arm-elf/4.3.3/../../../../arm-elf/lib/interwork/libm.a(lib_a-e_sinh.o)
                              /usr/local/arm-elf-tools/gcc-4.3.3/lib/gcc/arm-elf/4.3.3/../../../../arm-elf/lib/interwork/libm.a(lib_a-w_sinh.o) (__ieee754_sinh)
/usr/local/arm-elf-tools/gcc-4.3.3/lib/gcc/arm-elf/4.3.3/../../../../arm-elf/lib/interwork/libm.a(lib_a-e_sqrt.o)
                              /usr/local/arm-elf-tools/gcc-4.3.3/lib/gcc/arm-elf/4.3.3/../../../../arm-elf/lib/interwork/libm.a(lib_a-w_sqrt.o) (__ieee754_sqrt)
/usr/local/arm-elf-tools/gcc-4.3.3/lib/gcc/arm-elf/4.3.3/../../../../arm-elf/lib/interwork/libm.a(lib_a-k_cos.o)
                              /usr/local/arm-elf-tools/gcc-4.3.3/lib/gcc/arm-elf/4.3.3/../../../../arm-elf/lib/interwork/libm.a(lib_a-s_cos.o) (__kernel_cos)
/usr/local/arm-elf-tools/gcc-4.3.3/lib/gcc/arm-elf/4.3.3/../../../../arm-elf/lib/interwork/libm.a(lib_a-k_rem_pio2.o)
                              /usr/local/arm-elf-tools/gcc-4.3.3/lib/gcc/arm-elf/4.3.3/../../../../arm-elf/lib/interwork/libm.a(lib_a-e_rem_pio2.o) (__kernel_rem_pio2)
/usr/local/arm-elf-tools/gcc-4.3.3/lib/gcc/arm-elf/4.3.3/../../../../arm-elf/lib/interwork/libm.a(lib_a-k_sin.o)
                              /usr/local/arm-elf-tools/gcc-4.3.3/lib/gcc/arm-elf/4.3.3/../../../../arm-elf/lib/interwork/libm.a(lib_a-s_cos.o) (__kernel_sin)
/usr/local/arm-elf-tools/gcc-4.3.3/lib/gcc/arm-elf/4.3.3/../../../../arm-elf/lib/interwork/libm.a(lib_a-k_tan.o)
                              /usr/local/arm-elf-tools/gcc-4.3.3/lib/gcc/arm-elf/4.3.3/../../../../arm-elf/lib/interwork/libm.a(lib_a-s_tan.o) (__kernel_tan)
/usr/local/arm-elf-tools/gcc-4.3.3/lib/gcc/arm-elf/4.3.3/../../../../arm-elf/lib/interwork/libm.a(lib_a-s_copysign.o)
                              /usr/local/arm-elf-tools/gcc-4.3.3/lib/gcc/arm-elf/4.3.3/../../../../arm-elf/lib/interwork/libm.a(lib_a-s_scalbn.o) (copysign)
/usr/local/arm-elf-tools/gcc-4.3.3/lib/gcc/arm-elf/4.3.3/../../../../arm-elf/lib/interwork/libm.a(lib_a-s_expm1.o)
                              /usr/local/arm-elf-tools/gcc-4.3.3/lib/gcc/arm-elf/4.3.3/../../../../arm-elf/lib/interwork/libm.a(lib_a-s_tanh.o) (expm1)
/usr/local/arm-elf-tools/gcc-4.3.3/lib/gcc/arm-elf/4.3.3/../../../../arm-elf/lib/interwork/libm.a(lib_a-s_finite.o)
                              /usr/local/arm-elf-tools/gcc-4.3.3/lib/gcc/arm-elf/4.3.3/../../../../arm-elf/lib/interwork/libm.a(lib_a-s_ldexp.o) (finite)
/usr/local/arm-elf-tools/gcc-4.3.3/lib/gcc/arm-elf/4.3.3/../../../../arm-elf/lib/interwork/libm.a(lib_a-s_isnand.o)
                              /usr/local/arm-elf-tools/gcc-4.3.3/lib/gcc/arm-elf/4.3.3/../../../../arm-elf/lib/interwork/libm.a(lib_a-w_acos.o) (__isnand)
/usr/local/arm-elf-tools/gcc-4.3.3/lib/gcc/arm-elf/4.3.3/../../../../arm-elf/lib/interwork/libm.a(lib_a-s_lib_ver.o)
                              /usr/local/arm-elf-tools/gcc-4.3.3/lib/gcc/arm-elf/4.3.3/../../../../arm-elf/lib/interwork/libm.a(lib_a-w_acos.o) (__fdlib_version)
/usr/local/arm-elf-tools/gcc-4.3.3/lib/gcc/arm-elf/4.3.3/../../../../arm-elf/lib/interwork/libm.a(lib_a-s_matherr.o)
                              /usr/local/arm-elf-tools/gcc-4.3.3/lib/gcc/arm-elf/4.3.3/../../../../arm-elf/lib/interwork/libm.a(lib_a-w_acos.o) (matherr)
/usr/local/arm-elf-tools/gcc-4.3.3/lib/gcc/arm-elf/4.3.3/../../../../arm-elf/lib/interwork/libm.a(lib_a-s_nan.o)
                              /usr/local/arm-elf-tools/gcc-4.3.3/lib/gcc/arm-elf/4.3.3/../../../../arm-elf/lib/interwork/libm.a(lib_a-w_acos.o) (nan)
/usr/local/arm-elf-tools/gcc-4.3.3/lib/gcc/arm-elf/4.3.3/../../../../arm-elf/lib/interwork/libm.a(lib_a-s_rint.o)
                              /usr/local/arm-elf-tools/gcc-4.3.3/lib/gcc/arm-elf/4.3.3/../../../../arm-elf/lib/interwork/libm.a(lib_a-w_pow.o) (rint)
/usr/local/arm-elf-tools/gcc-4.3.3/lib/gcc/arm-elf/4.3.3/interwork/libgcc.a(_udivsi3.o)
                              ../../core/utils/rprintf.o (__udivsi3)
/usr/local/arm-elf-tools/gcc-4.3.3/lib/gcc/arm-elf/4.3.3/interwork/libgcc.a(_divsi3.o)
                              ../../core/lua-5.1.4/src/lcode.o (__divsi3)
/usr/local/arm-elf-tools/gcc-4.3.3/lib/gcc/arm-elf/4.3.3/interwork/libgcc.a(_umodsi3.o)
                              ../../core/utils/rprintf.o (__umodsi3)
/usr/local/arm-elf-tools/gcc-4.3.3/lib/gcc/arm-elf/4.3.3/interwork/libgcc.a(_modsi3.o)
                              ../../core/lua-5.1.4/src/lmathlib.o (__modsi3)
/usr/local/arm-elf-tools/gcc-4.3.3/lib/gcc/arm-elf/4.3.3/interwork/libgcc.a(_dvmd_tls.o)
                              /usr/local/arm-elf-tools/gcc-4.3.3/lib/gcc/arm-elf/4.3.3/interwork/libgcc.a(_udivsi3.o) (__div0)
/usr/local/arm-elf-tools/gcc-4.3.3/lib/gcc/arm-elf/4.3.3/interwork/libgcc.a(_fixunsdfsi.o)
                              ../../libraries/libpng-1.4.0/pngrtran.o (__fixunsdfsi)
/usr/local/arm-elf-tools/gcc-4.3.3/lib/gcc/arm-elf/4.3.3/interwork/libgcc.a(_mul_sf.o)
                              ../../libraries/libpng-1.4.0/pngrtran.o (__mulsf3)
/usr/local/arm-elf-tools/gcc-4.3.3/lib/gcc/arm-elf/4.3.3/interwork/libgcc.a(_div_sf.o)
                              ../../libraries/libpng-1.4.0/pngget.o (__divsf3)
/usr/local/arm-elf-tools/gcc-4.3.3/lib/gcc/arm-elf/4.3.3/interwork/libgcc.a(_eq_sf.o)
                              ../../libraries/libpng-1.4.0/pngrtran.o (__eqsf2)
/usr/local/arm-elf-tools/gcc-4.3.3/lib/gcc/arm-elf/4.3.3/interwork/libgcc.a(_si_to_sf.o)
                              ../../libraries/libpng-1.4.0/pngrutil.o (__floatsisf)
/usr/local/arm-elf-tools/gcc-4.3.3/lib/gcc/arm-elf/4.3.3/interwork/libgcc.a(_sf_to_df.o)
                              ../../libraries/libpng-1.4.0/pngget.o (__extendsfdf2)
/usr/local/arm-elf-tools/gcc-4.3.3/lib/gcc/arm-elf/4.3.3/interwork/libgcc.a(_thenan_sf.o)
                              /usr/local/arm-elf-tools/gcc-4.3.3/lib/gcc/arm-elf/4.3.3/interwork/libgcc.a(_mul_sf.o) (__thenan_sf)
/usr/local/arm-elf-tools/gcc-4.3.3/lib/gcc/arm-elf/4.3.3/interwork/libgcc.a(_usi_to_sf.o)
                              ../../libraries/libpng-1.4.0/pngget.o (__floatunsisf)
/usr/local/arm-elf-tools/gcc-4.3.3/lib/gcc/arm-elf/4.3.3/interwork/libgcc.a(_addsub_df.o)
                              ../../core/lua-5.1.4/src/lcode.o (__subdf3)
/usr/local/arm-elf-tools/gcc-4.3.3/lib/gcc/arm-elf/4.3.3/interwork/libgcc.a(_mul_df.o)
                              ../../core/lua-5.1.4/src/lbaselib.o (__muldf3)
/usr/local/arm-elf-tools/gcc-4.3.3/lib/gcc/arm-elf/4.3.3/interwork/libgcc.a(_div_df.o)
                              ../../core/lua-5.1.4/src/lcode.o (__divdf3)
/usr/local/arm-elf-tools/gcc-4.3.3/lib/gcc/arm-elf/4.3.3/interwork/libgcc.a(_eq_df.o)
                              ../../core/lua-5.1.4/src/lauxlib.o (__eqdf2)
/usr/local/arm-elf-tools/gcc-4.3.3/lib/gcc/arm-elf/4.3.3/interwork/libgcc.a(_ne_df.o)
                              /usr/local/arm-elf-tools/gcc-4.3.3/lib/gcc/arm-elf/4.3.3/../../../../arm-elf/lib/interwork/libm.a(lib_a-w_pow.o) (__nedf2)
/usr/local/arm-elf-tools/gcc-4.3.3/lib/gcc/arm-elf/4.3.3/interwork/libgcc.a(_gt_df.o)
                              ../../core/lua-5.1.4/src/ltablib.o (__gtdf2)
/usr/local/arm-elf-tools/gcc-4.3.3/lib/gcc/arm-elf/4.3.3/interwork/libgcc.a(_ge_df.o)
                              ../../core/lua-5.1.4/src/lmathlib.o (__gedf2)
/usr/local/arm-elf-tools/gcc-4.3.3/lib/gcc/arm-elf/4.3.3/interwork/libgcc.a(_lt_df.o)
                              ../../core/lua-5.1.4/src/lvm.o (__ltdf2)
/usr/local/arm-elf-tools/gcc-4.3.3/lib/gcc/arm-elf/4.3.3/interwork/libgcc.a(_le_df.o)
                              ../../core/lua-5.1.4/src/lmathlib.o (__ledf2)
/usr/local/arm-elf-tools/gcc-4.3.3/lib/gcc/arm-elf/4.3.3/interwork/libgcc.a(_si_to_df.o)
                              ../../core/lua-5.1.4/src/lapi.o (__floatsidf)
/usr/local/arm-elf-tools/gcc-4.3.3/lib/gcc/arm-elf/4.3.3/interwork/libgcc.a(_df_to_si.o)
                              ../../core/lua-5.1.4/src/lapi.o (__fixdfsi)
/usr/local/arm-elf-tools/gcc-4.3.3/lib/gcc/arm-elf/4.3.3/interwork/libgcc.a(_make_df.o)
                              /usr/local/arm-elf-tools/gcc-4.3.3/lib/gcc/arm-elf/4.3.3/interwork/libgcc.a(_sf_to_df.o) (__make_dp)
/usr/local/arm-elf-tools/gcc-4.3.3/lib/gcc/arm-elf/4.3.3/interwork/libgcc.a(_df_to_sf.o)
                              ../../libraries/libpng-1.4.0/pngrtran.o (__truncdfsf2)
/usr/local/arm-elf-tools/gcc-4.3.3/lib/gcc/arm-elf/4.3.3/interwork/libgcc.a(_thenan_df.o)
                              /usr/local/arm-elf-tools/gcc-4.3.3/lib/gcc/arm-elf/4.3.3/interwork/libgcc.a(_addsub_df.o) (__thenan_df)
/usr/local/arm-elf-tools/gcc-4.3.3/lib/gcc/arm-elf/4.3.3/interwork/libgcc.a(_usi_to_df.o)
                              ../../core/lua-5.1.4/src/lbaselib.o (__floatunsidf)
/usr/local/arm-elf-tools/gcc-4.3.3/lib/gcc/arm-elf/4.3.3/interwork/libgcc.a(_ucmpdi2.o)
                              /usr/local/arm-elf-tools/gcc-4.3.3/lib/gcc/arm-elf/4.3.3/interwork/libgcc.a(_addsub_df.o) (__ucmpdi2)
/usr/local/arm-elf-tools/gcc-4.3.3/lib/gcc/arm-elf/4.3.3/interwork/libgcc.a(_clzsi2.o)
                              /usr/local/arm-elf-tools/gcc-4.3.3/lib/gcc/arm-elf/4.3.3/interwork/libgcc.a(_si_to_sf.o) (__clzsi2)
/usr/local/arm-elf-tools/gcc-4.3.3/lib/gcc/arm-elf/4.3.3/interwork/libgcc.a(_pack_sf.o)
                              /usr/local/arm-elf-tools/gcc-4.3.3/lib/gcc/arm-elf/4.3.3/interwork/libgcc.a(_mul_sf.o) (__pack_f)
/usr/local/arm-elf-tools/gcc-4.3.3/lib/gcc/arm-elf/4.3.3/interwork/libgcc.a(_unpack_sf.o)
                              /usr/local/arm-elf-tools/gcc-4.3.3/lib/gcc/arm-elf/4.3.3/interwork/libgcc.a(_mul_sf.o) (__unpack_f)
/usr/local/arm-elf-tools/gcc-4.3.3/lib/gcc/arm-elf/4.3.3/interwork/libgcc.a(_fpcmp_parts_sf.o)
                              /usr/local/arm-elf-tools/gcc-4.3.3/lib/gcc/arm-elf/4.3.3/interwork/libgcc.a(_eq_sf.o) (__fpcmp_parts_f)
/usr/local/arm-elf-tools/gcc-4.3.3/lib/gcc/arm-elf/4.3.3/interwork/libgcc.a(_make_sf.o)
                              /usr/local/arm-elf-tools/gcc-4.3.3/lib/gcc/arm-elf/4.3.3/interwork/libgcc.a(_df_to_sf.o) (__make_fp)
/usr/local/arm-elf-tools/gcc-4.3.3/lib/gcc/arm-elf/4.3.3/interwork/libgcc.a(_pack_df.o)
                              /usr/local/arm-elf-tools/gcc-4.3.3/lib/gcc/arm-elf/4.3.3/interwork/libgcc.a(_addsub_df.o) (__pack_d)
/usr/local/arm-elf-tools/gcc-4.3.3/lib/gcc/arm-elf/4.3.3/interwork/libgcc.a(_unpack_df.o)
                              /usr/local/arm-elf-tools/gcc-4.3.3/lib/gcc/arm-elf/4.3.3/interwork/libgcc.a(_addsub_df.o) (__unpack_d)
/usr/local/arm-elf-tools/gcc-4.3.3/lib/gcc/arm-elf/4.3.3/interwork/libgcc.a(_fpcmp_parts_df.o)
                              /usr/local/arm-elf-tools/gcc-4.3.3/lib/gcc/arm-elf/4.3.3/interwork/libgcc.a(_eq_df.o) (__fpcmp_parts_d)
/usr/local/arm-elf-tools/gcc-4.3.3/lib/gcc/arm-elf/4.3.3/interwork/libgcc.a(_clz.o)
                              /usr/local/arm-elf-tools/gcc-4.3.3/lib/gcc/arm-elf/4.3.3/interwork/libgcc.a(_clzsi2.o) (__clz_tab)
/usr/local/arm-elf-tools/gcc-4.3.3/lib/gcc/arm-elf/4.3.3/../../../../arm-elf/lib/interwork/libc.a(lib_a-abort.o)
                              ../../libraries/libpng-1.4.0/pngerror.o (abort)
/usr/local/arm-elf-tools/gcc-4.3.3/lib/gcc/arm-elf/4.3.3/../../../../arm-elf/lib/interwork/libc.a(lib_a-calloc.o)
                              ../../core/startup/extras.o (calloc)
/usr/local/arm-elf-tools/gcc-4.3.3/lib/gcc/arm-elf/4.3.3/../../../../arm-elf/lib/interwork/libc.a(lib_a-callocr.o)
                              /usr/local/arm-elf-tools/gcc-4.3.3/lib/gcc/arm-elf/4.3.3/../../../../arm-elf/lib/interwork/libc.a(lib_a-calloc.o) (_calloc_r)
/usr/local/arm-elf-tools/gcc-4.3.3/lib/gcc/arm-elf/4.3.3/../../../../arm-elf/lib/interwork/libc.a(lib_a-clock.o)
                              ../../core/lua-5.1.4/src/loslib.o (clock)
/usr/local/arm-elf-tools/gcc-4.3.3/lib/gcc/arm-elf/4.3.3/../../../../arm-elf/lib/interwork/libc.a(lib_a-ctype_.o)
                              ../../core/lua-5.1.4/src/lbaselib.o (__ctype_ptr__)
/usr/local/arm-elf-tools/gcc-4.3.3/lib/gcc/arm-elf/4.3.3/../../../../arm-elf/lib/interwork/libc.a(lib_a-difftime.o)
                              ../../core/lua-5.1.4/src/loslib.o (difftime)
/usr/local/arm-elf-tools/gcc-4.3.3/lib/gcc/arm-elf/4.3.3/../../../../arm-elf/lib/interwork/libc.a(lib_a-errno.o)
                              ../../core/startup/extras.o (__errno)
/usr/local/arm-elf-tools/gcc-4.3.3/lib/gcc/arm-elf/4.3.3/../../../../arm-elf/lib/interwork/libc.a(lib_a-exit.o)
                              ../../core/lua-5.1.4/src/ldo.o (exit)
/usr/local/arm-elf-tools/gcc-4.3.3/lib/gcc/arm-elf/4.3.3/../../../../arm-elf/lib/interwork/libc.a(lib_a-fclose.o)
                              ../../core/lua-5.1.4/src/lauxlib.o (fclose)
/usr/local/arm-elf-tools/gcc-4.3.3/lib/gcc/arm-elf/4.3.3/../../../../arm-elf/lib/interwork/libc.a(lib_a-fdopen.o)
                              ../../libraries/zlib-1.2.3/gzio.o (fdopen)
/usr/local/arm-elf-tools/gcc-4.3.3/lib/gcc/arm-elf/4.3.3/../../../../arm-elf/lib/interwork/libc.a(lib_a-fflush.o)
                              /usr/local/arm-elf-tools/gcc-4.3.3/lib/gcc/arm-elf/4.3.3/../../../../arm-elf/lib/interwork/libc.a(lib_a-fclose.o) (_fflush_r)
/usr/local/arm-elf-tools/gcc-4.3.3/lib/gcc/arm-elf/4.3.3/../../../../arm-elf/lib/interwork/libc.a(lib_a-fgets.o)
                              ../../core/lua-5.1.4/src/ldblib.o (fgets)
/usr/local/arm-elf-tools/gcc-4.3.3/lib/gcc/arm-elf/4.3.3/../../../../arm-elf/lib/interwork/libc.a(lib_a-fileno.o)
                              ../../core/monitor/monitor.o (fileno)
/usr/local/arm-elf-tools/gcc-4.3.3/lib/gcc/arm-elf/4.3.3/../../../../arm-elf/lib/interwork/libc.a(lib_a-findfp.o)
                              /usr/local/arm-elf-tools/gcc-4.3.3/lib/gcc/arm-elf/4.3.3/../../../../arm-elf/lib/interwork/libc.a(lib_a-fclose.o) (__sfp_lock_acquire)
/usr/local/arm-elf-tools/gcc-4.3.3/lib/gcc/arm-elf/4.3.3/../../../../arm-elf/lib/interwork/libc.a(lib_a-flags.o)
                              /usr/local/arm-elf-tools/gcc-4.3.3/lib/gcc/arm-elf/4.3.3/../../../../arm-elf/lib/interwork/libc.a(lib_a-fdopen.o) (__sflags)
/usr/local/arm-elf-tools/gcc-4.3.3/lib/gcc/arm-elf/4.3.3/../../../../arm-elf/lib/interwork/libc.a(lib_a-fopen.o)
                              ../../core/lua-5.1.4/src/lauxlib.o (fopen)
/usr/local/arm-elf-tools/gcc-4.3.3/lib/gcc/arm-elf/4.3.3/../../../../arm-elf/lib/interwork/libc.a(lib_a-fprintf.o)
                              ../../core/lua-5.1.4/src/lauxlib.o (fprintf)
/usr/local/arm-elf-tools/gcc-4.3.3/lib/gcc/arm-elf/4.3.3/../../../../arm-elf/lib/interwork/libc.a(lib_a-fputc.o)
                              ../../core/lua-5.1.4/src/lbaselib.o (fputc)
/usr/local/arm-elf-tools/gcc-4.3.3/lib/gcc/arm-elf/4.3.3/../../../../arm-elf/lib/interwork/libc.a(lib_a-fputs.o)
                              ../../core/lua-5.1.4/src/lbaselib.o (fputs)
/usr/local/arm-elf-tools/gcc-4.3.3/lib/gcc/arm-elf/4.3.3/../../../../arm-elf/lib/interwork/libc.a(lib_a-fread.o)
                              ../../core/lua-5.1.4/src/lauxlib.o (fread)
/usr/local/arm-elf-tools/gcc-4.3.3/lib/gcc/arm-elf/4.3.3/../../../../arm-elf/lib/interwork/libc.a(lib_a-freer.o)
                              /usr/local/arm-elf-tools/gcc-4.3.3/lib/gcc/arm-elf/4.3.3/../../../../arm-elf/lib/interwork/libc.a(lib_a-fclose.o) (_free_r)
/usr/local/arm-elf-tools/gcc-4.3.3/lib/gcc/arm-elf/4.3.3/../../../../arm-elf/lib/interwork/libc.a(lib_a-freopen.o)
                              ../../core/lua-5.1.4/src/lauxlib.o (freopen)
/usr/local/arm-elf-tools/gcc-4.3.3/lib/gcc/arm-elf/4.3.3/../../../../arm-elf/lib/interwork/libc.a(lib_a-fscanf.o)
                              ../../core/lua-5.1.4/src/liolib.o (fscanf)
/usr/local/arm-elf-tools/gcc-4.3.3/lib/gcc/arm-elf/4.3.3/../../../../arm-elf/lib/interwork/libc.a(lib_a-fseek.o)
                              /usr/local/arm-elf-tools/gcc-4.3.3/lib/gcc/arm-elf/4.3.3/../../../../arm-elf/lib/interwork/libc.a(lib_a-fopen.o) (_fseek_r)
/usr/local/arm-elf-tools/gcc-4.3.3/lib/gcc/arm-elf/4.3.3/../../../../arm-elf/lib/interwork/libc.a(lib_a-ftell.o)
                              ../../core/lua-5.1.4/src/liolib.o (ftell)
/usr/local/arm-elf-tools/gcc-4.3.3/lib/gcc/arm-elf/4.3.3/../../../../arm-elf/lib/interwork/libc.a(lib_a-fvwrite.o)
                              /usr/local/arm-elf-tools/gcc-4.3.3/lib/gcc/arm-elf/4.3.3/../../../../arm-elf/lib/interwork/libc.a(lib_a-fputs.o) (__sfvwrite_r)
/usr/local/arm-elf-tools/gcc-4.3.3/lib/gcc/arm-elf/4.3.3/../../../../arm-elf/lib/interwork/libc.a(lib_a-fwalk.o)
                              /usr/local/arm-elf-tools/gcc-4.3.3/lib/gcc/arm-elf/4.3.3/../../../../arm-elf/lib/interwork/libc.a(lib_a-fflush.o) (_fwalk_reent)
/usr/local/arm-elf-tools/gcc-4.3.3/lib/gcc/arm-elf/4.3.3/../../../../arm-elf/lib/interwork/libc.a(lib_a-fwrite.o)
                              ../../core/lua-5.1.4/src/liolib.o (fwrite)
/usr/local/arm-elf-tools/gcc-4.3.3/lib/gcc/arm-elf/4.3.3/../../../../arm-elf/lib/interwork/libc.a(lib_a-getenv.o)
                              ../../core/lua-5.1.4/src/loadlib.o (getenv)
/usr/local/arm-elf-tools/gcc-4.3.3/lib/gcc/arm-elf/4.3.3/../../../../arm-elf/lib/interwork/libc.a(lib_a-getenv_r.o)
                              /usr/local/arm-elf-tools/gcc-4.3.3/lib/gcc/arm-elf/4.3.3/../../../../arm-elf/lib/interwork/libc.a(lib_a-getenv.o) (_findenv_r)
/usr/local/arm-elf-tools/gcc-4.3.3/lib/gcc/arm-elf/4.3.3/../../../../arm-elf/lib/interwork/libc.a(lib_a-gmtime.o)
                              ../../core/lua-5.1.4/src/loslib.o (gmtime)
/usr/local/arm-elf-tools/gcc-4.3.3/lib/gcc/arm-elf/4.3.3/../../../../arm-elf/lib/interwork/libc.a(lib_a-gmtime_r.o)
                              /usr/local/arm-elf-tools/gcc-4.3.3/lib/gcc/arm-elf/4.3.3/../../../../arm-elf/lib/interwork/libc.a(lib_a-gmtime.o) (gmtime_r)
/usr/local/arm-elf-tools/gcc-4.3.3/lib/gcc/arm-elf/4.3.3/../../../../arm-elf/lib/interwork/libc.a(lib_a-impure.o)
                              ../../core/startup/extras.o (_impure_ptr)
/usr/local/arm-elf-tools/gcc-4.3.3/lib/gcc/arm-elf/4.3.3/../../../../arm-elf/lib/interwork/libc.a(lib_a-lcltime.o)
                              ../../core/lua-5.1.4/src/loslib.o (localtime)
/usr/local/arm-elf-tools/gcc-4.3.3/lib/gcc/arm-elf/4.3.3/../../../../arm-elf/lib/interwork/libc.a(lib_a-lcltime_r.o)
                              ../../core/dynawa/fat.o (localtime_r)
/usr/local/arm-elf-tools/gcc-4.3.3/lib/gcc/arm-elf/4.3.3/../../../../arm-elf/lib/interwork/libc.a(lib_a-locale.o)
                              ../../core/lua-5.1.4/src/llex.o (localeconv)
/usr/local/arm-elf-tools/gcc-4.3.3/lib/gcc/arm-elf/4.3.3/../../../../arm-elf/lib/interwork/libc.a(lib_a-makebuf.o)
                              /usr/local/arm-elf-tools/gcc-4.3.3/lib/gcc/arm-elf/4.3.3/../../../../arm-elf/lib/interwork/libc.a(lib_a-fseek.o) (__smakebuf_r)
/usr/local/arm-elf-tools/gcc-4.3.3/lib/gcc/arm-elf/4.3.3/../../../../arm-elf/lib/interwork/libc.a(lib_a-malloc.o)
                              ../../core/dynawa/timer_isr.o (free)
/usr/local/arm-elf-tools/gcc-4.3.3/lib/gcc/arm-elf/4.3.3/../../../../arm-elf/lib/interwork/libc.a(lib_a-mallocr.o)
                              /usr/local/arm-elf-tools/gcc-4.3.3/lib/gcc/arm-elf/4.3.3/../../../../arm-elf/lib/interwork/libc.a(lib_a-callocr.o) (_malloc_r)
/usr/local/arm-elf-tools/gcc-4.3.3/lib/gcc/arm-elf/4.3.3/../../../../arm-elf/lib/interwork/libc.a(lib_a-memchr.o)
                              ../../core/lua-5.1.4/src/lstrlib.o (memchr)
/usr/local/arm-elf-tools/gcc-4.3.3/lib/gcc/arm-elf/4.3.3/../../../../arm-elf/lib/interwork/libc.a(lib_a-memcmp.o)
                              ../../core/lua-5.1.4/src/lstring.o (memcmp)
/usr/local/arm-elf-tools/gcc-4.3.3/lib/gcc/arm-elf/4.3.3/../../../../arm-elf/lib/interwork/libc.a(lib_a-memcpy.o)
                              ../../core/freertos/queue.o (memcpy)
/usr/local/arm-elf-tools/gcc-4.3.3/lib/gcc/arm-elf/4.3.3/../../../../arm-elf/lib/interwork/libc.a(lib_a-memmove.o)
                              /usr/local/arm-elf-tools/gcc-4.3.3/lib/gcc/arm-elf/4.3.3/../../../../arm-elf/lib/interwork/libc.a(lib_a-fvwrite.o) (memmove)
/usr/local/arm-elf-tools/gcc-4.3.3/lib/gcc/arm-elf/4.3.3/../../../../arm-elf/lib/interwork/libc.a(lib_a-memset.o)
                              ../../core/startup/extras.o (memset)
/usr/local/arm-elf-tools/gcc-4.3.3/lib/gcc/arm-elf/4.3.3/../../../../arm-elf/lib/interwork/libc.a(lib_a-mktime.o)
                              ../../core/startup/extras.o (mktime)
/usr/local/arm-elf-tools/gcc-4.3.3/lib/gcc/arm-elf/4.3.3/../../../../arm-elf/lib/interwork/libc.a(lib_a-mktm_r.o)
                              /usr/local/arm-elf-tools/gcc-4.3.3/lib/gcc/arm-elf/4.3.3/../../../../arm-elf/lib/interwork/libc.a(lib_a-mktime.o) (__tzcalc_limits)
/usr/local/arm-elf-tools/gcc-4.3.3/lib/gcc/arm-elf/4.3.3/../../../../arm-elf/lib/interwork/libc.a(lib_a-mlock.o)
                              /usr/local/arm-elf-tools/gcc-4.3.3/lib/gcc/arm-elf/4.3.3/../../../../arm-elf/lib/interwork/libc.a(lib_a-freer.o) (__malloc_lock)
/usr/local/arm-elf-tools/gcc-4.3.3/lib/gcc/arm-elf/4.3.3/../../../../arm-elf/lib/interwork/libc.a(lib_a-printf.o)
                              ../../core/lua-5.1.4/src/print.o (printf)
/usr/local/arm-elf-tools/gcc-4.3.3/lib/gcc/arm-elf/4.3.3/../../../../arm-elf/lib/interwork/libc.a(lib_a-putc.o)
                              /usr/local/arm-elf-tools/gcc-4.3.3/lib/gcc/arm-elf/4.3.3/../../../../arm-elf/lib/interwork/libc.a(lib_a-fputc.o) (_putc_r)
/usr/local/arm-elf-tools/gcc-4.3.3/lib/gcc/arm-elf/4.3.3/../../../../arm-elf/lib/interwork/libc.a(lib_a-rand.o)
                              ../../core/lua-5.1.4/src/lmathlib.o (srand)
/usr/local/arm-elf-tools/gcc-4.3.3/lib/gcc/arm-elf/4.3.3/../../../../arm-elf/lib/interwork/libc.a(lib_a-realloc.o)
                              ../../core/lua-5.1.4/src/lauxlib.o (realloc)
/usr/local/arm-elf-tools/gcc-4.3.3/lib/gcc/arm-elf/4.3.3/../../../../arm-elf/lib/interwork/libc.a(lib_a-reallocr.o)
                              /usr/local/arm-elf-tools/gcc-4.3.3/lib/gcc/arm-elf/4.3.3/../../../../arm-elf/lib/interwork/libc.a(lib_a-fvwrite.o) (_realloc_r)
/usr/local/arm-elf-tools/gcc-4.3.3/lib/gcc/arm-elf/4.3.3/../../../../arm-elf/lib/interwork/libc.a(lib_a-refill.o)
                              /usr/local/arm-elf-tools/gcc-4.3.3/lib/gcc/arm-elf/4.3.3/../../../../arm-elf/lib/interwork/libc.a(lib_a-fgets.o) (__srefill_r)
/usr/local/arm-elf-tools/gcc-4.3.3/lib/gcc/arm-elf/4.3.3/../../../../arm-elf/lib/interwork/libc.a(lib_a-remove.o)
                              ../../core/lua-5.1.4/src/loslib.o (remove)
/usr/local/arm-elf-tools/gcc-4.3.3/lib/gcc/arm-elf/4.3.3/../../../../arm-elf/lib/interwork/libc.a(lib_a-rget.o)
                              ../../core/lua-5.1.4/src/lauxlib.o (__srget_r)
/usr/local/arm-elf-tools/gcc-4.3.3/lib/gcc/arm-elf/4.3.3/../../../../arm-elf/lib/interwork/libc.a(lib_a-setjmp.o)
                              ../../core/lua-5.1.4/src/ldo.o (setjmp)
/usr/local/arm-elf-tools/gcc-4.3.3/lib/gcc/arm-elf/4.3.3/../../../../arm-elf/lib/interwork/libc.a(lib_a-setvbuf.o)
                              ../../core/lua-5.1.4/src/liolib.o (setvbuf)
/usr/local/arm-elf-tools/gcc-4.3.3/lib/gcc/arm-elf/4.3.3/../../../../arm-elf/lib/interwork/libc.a(lib_a-signal.o)
                              /usr/local/arm-elf-tools/gcc-4.3.3/lib/gcc/arm-elf/4.3.3/../../../../arm-elf/lib/interwork/libc.a(lib_a-abort.o) (raise)
/usr/local/arm-elf-tools/gcc-4.3.3/lib/gcc/arm-elf/4.3.3/../../../../arm-elf/lib/interwork/libc.a(lib_a-snprintf.o)
                              ../../libraries/libpng-1.4.0/png.o (snprintf)
/usr/local/arm-elf-tools/gcc-4.3.3/lib/gcc/arm-elf/4.3.3/../../../../arm-elf/lib/interwork/libc.a(lib_a-sprintf.o)
                              ../../core/freertos/tasks.o (sprintf)
/usr/local/arm-elf-tools/gcc-4.3.3/lib/gcc/arm-elf/4.3.3/../../../../arm-elf/lib/interwork/libc.a(lib_a-stdio.o)
                              /usr/local/arm-elf-tools/gcc-4.3.3/lib/gcc/arm-elf/4.3.3/../../../../arm-elf/lib/interwork/libc.a(lib_a-fdopen.o) (__sclose)
/usr/local/arm-elf-tools/gcc-4.3.3/lib/gcc/arm-elf/4.3.3/../../../../arm-elf/lib/interwork/libc.a(lib_a-strcat.o)
                              ../../core/freertos/tasks.o (strcat)
/usr/local/arm-elf-tools/gcc-4.3.3/lib/gcc/arm-elf/4.3.3/../../../../arm-elf/lib/interwork/libc.a(lib_a-strchr.o)
                              ../../core/lua-5.1.4/src/lauxlib.o (strchr)
/usr/local/arm-elf-tools/gcc-4.3.3/lib/gcc/arm-elf/4.3.3/../../../../arm-elf/lib/interwork/libc.a(lib_a-strcmp.o)
                              ../../core/startup/extras.o (strcmp)
/usr/local/arm-elf-tools/gcc-4.3.3/lib/gcc/arm-elf/4.3.3/../../../../arm-elf/lib/interwork/libc.a(lib_a-strcoll.o)
                              ../../core/lua-5.1.4/src/lvm.o (strcoll)
/usr/local/arm-elf-tools/gcc-4.3.3/lib/gcc/arm-elf/4.3.3/../../../../arm-elf/lib/interwork/libc.a(lib_a-strcpy.o)
                              ../../core/lua-5.1.4/src/lobject.o (strcpy)
/usr/local/arm-elf-tools/gcc-4.3.3/lib/gcc/arm-elf/4.3.3/../../../../arm-elf/lib/interwork/libc.a(lib_a-strcspn.o)
                              ../../core/lua-5.1.4/src/lobject.o (strcspn)
/usr/local/arm-elf-tools/gcc-4.3.3/lib/gcc/arm-elf/4.3.3/../../../../arm-elf/lib/interwork/libc.a(lib_a-strerror.o)
                              ../../core/lua-5.1.4/src/lauxlib.o (strerror)
/usr/local/arm-elf-tools/gcc-4.3.3/lib/gcc/arm-elf/4.3.3/../../../../arm-elf/lib/interwork/libc.a(lib_a-strftime.o)
                              ../../core/lua-5.1.4/src/loslib.o (strftime)
/usr/local/arm-elf-tools/gcc-4.3.3/lib/gcc/arm-elf/4.3.3/../../../../arm-elf/lib/interwork/libc.a(lib_a-strlen.o)
                              ../../core/utils/rprintf.o (strlen)
/usr/local/arm-elf-tools/gcc-4.3.3/lib/gcc/arm-elf/4.3.3/../../../../arm-elf/lib/interwork/libc.a(lib_a-strncat.o)
                              ../../core/lua-5.1.4/src/lobject.o (strncat)
/usr/local/arm-elf-tools/gcc-4.3.3/lib/gcc/arm-elf/4.3.3/../../../../arm-elf/lib/interwork/libc.a(lib_a-strncmp.o)
                              ../../core/lwalkera-lwBT-f64e170/bt_spp.o (strncmp)
/usr/local/arm-elf-tools/gcc-4.3.3/lib/gcc/arm-elf/4.3.3/../../../../arm-elf/lib/interwork/libc.a(lib_a-strncpy.o)
                              ../../core/freertos/tasks.o (strncpy)
/usr/local/arm-elf-tools/gcc-4.3.3/lib/gcc/arm-elf/4.3.3/../../../../arm-elf/lib/interwork/libc.a(lib_a-strnlen.o)
                              ../../core/utils/rprintf.o (strnlen)
/usr/local/arm-elf-tools/gcc-4.3.3/lib/gcc/arm-elf/4.3.3/../../../../arm-elf/lib/interwork/libc.a(lib_a-strpbrk.o)
                              ../../core/lua-5.1.4/src/lstrlib.o (strpbrk)
/usr/local/arm-elf-tools/gcc-4.3.3/lib/gcc/arm-elf/4.3.3/../../../../arm-elf/lib/interwork/libc.a(lib_a-strrchr.o)
                              ../../core/lua-5.1.4/src/loadlib.o (strrchr)
/usr/local/arm-elf-tools/gcc-4.3.3/lib/gcc/arm-elf/4.3.3/../../../../arm-elf/lib/interwork/libc.a(lib_a-strstr.o)
                              ../../core/lua-5.1.4/src/lauxlib.o (strstr)
/usr/local/arm-elf-tools/gcc-4.3.3/lib/gcc/arm-elf/4.3.3/../../../../arm-elf/lib/interwork/libc.a(lib_a-strtod.o)
                              ../../core/lua-5.1.4/src/lnum.o (strtod)
/usr/local/arm-elf-tools/gcc-4.3.3/lib/gcc/arm-elf/4.3.3/../../../../arm-elf/lib/interwork/libc.a(lib_a-strtoul.o)
                              ../../core/lua-5.1.4/src/lbaselib.o (strtoul)
/usr/local/arm-elf-tools/gcc-4.3.3/lib/gcc/arm-elf/4.3.3/../../../../arm-elf/lib/interwork/libc.a(lib_a-svfprintf.o)
                              /usr/local/arm-elf-tools/gcc-4.3.3/lib/gcc/arm-elf/4.3.3/../../../../arm-elf/lib/interwork/libc.a(lib_a-snprintf.o) (_svfprintf_r)
/usr/local/arm-elf-tools/gcc-4.3.3/lib/gcc/arm-elf/4.3.3/../../../../arm-elf/lib/interwork/libc.a(lib_a-sysclose.o)
                              ../../core/monitor/monitor.o (close)
/usr/local/arm-elf-tools/gcc-4.3.3/lib/gcc/arm-elf/4.3.3/../../../../arm-elf/lib/interwork/libc.a(lib_a-sysgettod.o)
                              ../../core/monitor/monitor.o (gettimeofday)
/usr/local/arm-elf-tools/gcc-4.3.3/lib/gcc/arm-elf/4.3.3/../../../../arm-elf/lib/interwork/libc.a(lib_a-sysopen.o)
                              ../../core/monitor/monitor.o (open)
/usr/local/arm-elf-tools/gcc-4.3.3/lib/gcc/arm-elf/4.3.3/../../../../arm-elf/lib/interwork/libc.a(lib_a-sysread.o)
                              ../../core/dynawa/lua/lua.o (read)
/usr/local/arm-elf-tools/gcc-4.3.3/lib/gcc/arm-elf/4.3.3/../../../../arm-elf/lib/interwork/libc.a(lib_a-system.o)
                              ../../core/lua-5.1.4/src/loslib.o (system)
/usr/local/arm-elf-tools/gcc-4.3.3/lib/gcc/arm-elf/4.3.3/../../../../arm-elf/lib/interwork/libc.a(lib_a-sysunlink.o)
                              ../../core/monitor/monitor.o (unlink)
/usr/local/arm-elf-tools/gcc-4.3.3/lib/gcc/arm-elf/4.3.3/../../../../arm-elf/lib/interwork/libc.a(lib_a-syswrite.o)
                              ../../core/monitor/monitor.o (write)
/usr/local/arm-elf-tools/gcc-4.3.3/lib/gcc/arm-elf/4.3.3/../../../../arm-elf/lib/interwork/libc.a(lib_a-time.o)
                              ../../core/lua-5.1.4/src/loslib.o (time)
/usr/local/arm-elf-tools/gcc-4.3.3/lib/gcc/arm-elf/4.3.3/../../../../arm-elf/lib/interwork/libc.a(lib_a-timesr.o)
                              /usr/local/arm-elf-tools/gcc-4.3.3/lib/gcc/arm-elf/4.3.3/../../../../arm-elf/lib/interwork/libc.a(lib_a-clock.o) (_times_r)
/usr/local/arm-elf-tools/gcc-4.3.3/lib/gcc/arm-elf/4.3.3/../../../../arm-elf/lib/interwork/libc.a(lib_a-tmpfile.o)
                              ../../core/lua-5.1.4/src/liolib.o (tmpfile)
/usr/local/arm-elf-tools/gcc-4.3.3/lib/gcc/arm-elf/4.3.3/../../../../arm-elf/lib/interwork/libc.a(lib_a-tmpnam.o)
                              /usr/local/arm-elf-tools/gcc-4.3.3/lib/gcc/arm-elf/4.3.3/../../../../arm-elf/lib/interwork/libc.a(lib_a-tmpfile.o) (_tmpnam_r)
/usr/local/arm-elf-tools/gcc-4.3.3/lib/gcc/arm-elf/4.3.3/../../../../arm-elf/lib/interwork/libc.a(lib_a-tzlock.o)
                              /usr/local/arm-elf-tools/gcc-4.3.3/lib/gcc/arm-elf/4.3.3/../../../../arm-elf/lib/interwork/libc.a(lib_a-mktm_r.o) (__tz_lock)
/usr/local/arm-elf-tools/gcc-4.3.3/lib/gcc/arm-elf/4.3.3/../../../../arm-elf/lib/interwork/libc.a(lib_a-tzvars.o)
                              /usr/local/arm-elf-tools/gcc-4.3.3/lib/gcc/arm-elf/4.3.3/../../../../arm-elf/lib/interwork/libc.a(lib_a-strftime.o) (_tzname)
/usr/local/arm-elf-tools/gcc-4.3.3/lib/gcc/arm-elf/4.3.3/../../../../arm-elf/lib/interwork/libc.a(lib_a-ungetc.o)
                              ../../core/lua-5.1.4/src/lauxlib.o (ungetc)
/usr/local/arm-elf-tools/gcc-4.3.3/lib/gcc/arm-elf/4.3.3/../../../../arm-elf/lib/interwork/libc.a(lib_a-u_strerr.o)
                              /usr/local/arm-elf-tools/gcc-4.3.3/lib/gcc/arm-elf/4.3.3/../../../../arm-elf/lib/interwork/libc.a(lib_a-strerror.o) (_user_strerror)
/usr/local/arm-elf-tools/gcc-4.3.3/lib/gcc/arm-elf/4.3.3/../../../../arm-elf/lib/interwork/libc.a(lib_a-vfprintf.o)
                              /usr/local/arm-elf-tools/gcc-4.3.3/lib/gcc/arm-elf/4.3.3/../../../../arm-elf/lib/interwork/libc.a(lib_a-fprintf.o) (_vfprintf_r)
/usr/local/arm-elf-tools/gcc-4.3.3/lib/gcc/arm-elf/4.3.3/../../../../arm-elf/lib/interwork/libc.a(lib_a-vfscanf.o)
                              /usr/local/arm-elf-tools/gcc-4.3.3/lib/gcc/arm-elf/4.3.3/../../../../arm-elf/lib/interwork/libc.a(lib_a-fscanf.o) (__svfscanf_r)
/usr/local/arm-elf-tools/gcc-4.3.3/lib/gcc/arm-elf/4.3.3/../../../../arm-elf/lib/interwork/libc.a(lib_a-vsnprintf.o)
                              ../../libraries/zlib-1.2.3/gzio.o (vsnprintf)
/usr/local/arm-elf-tools/gcc-4.3.3/lib/gcc/arm-elf/4.3.3/../../../../arm-elf/lib/interwork/libc.a(lib_a-wbuf.o)
                              ../../core/lua-5.1.4/src/print.o (__swbuf_r)
/usr/local/arm-elf-tools/gcc-4.3.3/lib/gcc/arm-elf/4.3.3/../../../../arm-elf/lib/interwork/libc.a(lib_a-wsetup.o)
                              /usr/local/arm-elf-tools/gcc-4.3.3/lib/gcc/arm-elf/4.3.3/../../../../arm-elf/lib/interwork/libc.a(lib_a-fvwrite.o) (__swsetup_r)
/usr/local/arm-elf-tools/gcc-4.3.3/lib/gcc/arm-elf/4.3.3/../../../../arm-elf/lib/interwork/libc.a(lib_a-abs.o)
                              /usr/local/arm-elf-tools/gcc-4.3.3/lib/gcc/arm-elf/4.3.3/../../../../arm-elf/lib/interwork/libc.a(lib_a-strftime.o) (abs)
/usr/local/arm-elf-tools/gcc-4.3.3/lib/gcc/arm-elf/4.3.3/../../../../arm-elf/lib/interwork/libc.a(lib_a-__call_atexit.o)
                              /usr/local/arm-elf-tools/gcc-4.3.3/lib/gcc/arm-elf/4.3.3/../../../../arm-elf/lib/interwork/libc.a(lib_a-exit.o) (__call_exitprocs)
/usr/local/arm-elf-tools/gcc-4.3.3/lib/gcc/arm-elf/4.3.3/../../../../arm-elf/lib/interwork/libc.a(lib_a-div.o)
                              /usr/local/arm-elf-tools/gcc-4.3.3/lib/gcc/arm-elf/4.3.3/../../../../arm-elf/lib/interwork/libc.a(lib_a-mktime.o) (div)
/usr/local/arm-elf-tools/gcc-4.3.3/lib/gcc/arm-elf/4.3.3/../../../../arm-elf/lib/interwork/libc.a(lib_a-dtoa.o)
                              /usr/local/arm-elf-tools/gcc-4.3.3/lib/gcc/arm-elf/4.3.3/../../../../arm-elf/lib/interwork/libc.a(lib_a-svfprintf.o) (_dtoa_r)
/usr/local/arm-elf-tools/gcc-4.3.3/lib/gcc/arm-elf/4.3.3/../../../../arm-elf/lib/interwork/libc.a(lib_a-environ.o)
                              /usr/local/arm-elf-tools/gcc-4.3.3/lib/gcc/arm-elf/4.3.3/../../../../arm-elf/lib/interwork/libc.a(lib_a-getenv_r.o) (environ)
/usr/local/arm-elf-tools/gcc-4.3.3/lib/gcc/arm-elf/4.3.3/../../../../arm-elf/lib/interwork/libc.a(lib_a-envlock.o)
                              /usr/local/arm-elf-tools/gcc-4.3.3/lib/gcc/arm-elf/4.3.3/../../../../arm-elf/lib/interwork/libc.a(lib_a-getenv_r.o) (__env_lock)
/usr/local/arm-elf-tools/gcc-4.3.3/lib/gcc/arm-elf/4.3.3/../../../../arm-elf/lib/interwork/libc.a(lib_a-gdtoa-gethex.o)
                              /usr/local/arm-elf-tools/gcc-4.3.3/lib/gcc/arm-elf/4.3.3/../../../../arm-elf/lib/interwork/libc.a(lib_a-strtod.o) (__gethex)
/usr/local/arm-elf-tools/gcc-4.3.3/lib/gcc/arm-elf/4.3.3/../../../../arm-elf/lib/interwork/libc.a(lib_a-gdtoa-hexnan.o)
                              /usr/local/arm-elf-tools/gcc-4.3.3/lib/gcc/arm-elf/4.3.3/../../../../arm-elf/lib/interwork/libc.a(lib_a-strtod.o) (__hexnan)
/usr/local/arm-elf-tools/gcc-4.3.3/lib/gcc/arm-elf/4.3.3/../../../../arm-elf/lib/interwork/libc.a(lib_a-gettimeofdayr.o)
                              /usr/local/arm-elf-tools/gcc-4.3.3/lib/gcc/arm-elf/4.3.3/../../../../arm-elf/lib/interwork/libc.a(lib_a-sysgettod.o) (_gettimeofday_r)
/usr/local/arm-elf-tools/gcc-4.3.3/lib/gcc/arm-elf/4.3.3/../../../../arm-elf/lib/interwork/libc.a(lib_a-gettzinfo.o)
                              /usr/local/arm-elf-tools/gcc-4.3.3/lib/gcc/arm-elf/4.3.3/../../../../arm-elf/lib/interwork/libc.a(lib_a-mktime.o) (__gettzinfo)
/usr/local/arm-elf-tools/gcc-4.3.3/lib/gcc/arm-elf/4.3.3/../../../../arm-elf/lib/interwork/libc.a(lib_a-isattyr.o)
                              /usr/local/arm-elf-tools/gcc-4.3.3/lib/gcc/arm-elf/4.3.3/../../../../arm-elf/lib/interwork/libc.a(lib_a-makebuf.o) (_isatty_r)
/usr/local/arm-elf-tools/gcc-4.3.3/lib/gcc/arm-elf/4.3.3/../../../../arm-elf/lib/interwork/libc.a(lib_a-iswspace.o)
                              /usr/local/arm-elf-tools/gcc-4.3.3/lib/gcc/arm-elf/4.3.3/../../../../arm-elf/lib/interwork/libc.a(lib_a-vfscanf.o) (iswspace)
/usr/local/arm-elf-tools/gcc-4.3.3/lib/gcc/arm-elf/4.3.3/../../../../arm-elf/lib/interwork/libc.a(lib_a-labs.o)
                              /usr/local/arm-elf-tools/gcc-4.3.3/lib/gcc/arm-elf/4.3.3/../../../../arm-elf/lib/interwork/libc.a(lib_a-strftime.o) (labs)
/usr/local/arm-elf-tools/gcc-4.3.3/lib/gcc/arm-elf/4.3.3/../../../../arm-elf/lib/interwork/libc.a(lib_a-mbrtowc.o)
                              /usr/local/arm-elf-tools/gcc-4.3.3/lib/gcc/arm-elf/4.3.3/../../../../arm-elf/lib/interwork/libc.a(lib_a-vfscanf.o) (_mbrtowc_r)
/usr/local/arm-elf-tools/gcc-4.3.3/lib/gcc/arm-elf/4.3.3/../../../../arm-elf/lib/interwork/libc.a(lib_a-mbtowc_r.o)
                              /usr/local/arm-elf-tools/gcc-4.3.3/lib/gcc/arm-elf/4.3.3/../../../../arm-elf/lib/interwork/libc.a(lib_a-mbrtowc.o) (_mbtowc_r)
/usr/local/arm-elf-tools/gcc-4.3.3/lib/gcc/arm-elf/4.3.3/../../../../arm-elf/lib/interwork/libc.a(lib_a-mprec.o)
                              /usr/local/arm-elf-tools/gcc-4.3.3/lib/gcc/arm-elf/4.3.3/../../../../arm-elf/lib/interwork/libc.a(lib_a-strtod.o) (_Bfree)
/usr/local/arm-elf-tools/gcc-4.3.3/lib/gcc/arm-elf/4.3.3/../../../../arm-elf/lib/interwork/libc.a(lib_a-reent.o)
                              /usr/local/arm-elf-tools/gcc-4.3.3/lib/gcc/arm-elf/4.3.3/../../../../arm-elf/lib/interwork/libc.a(lib_a-gettimeofdayr.o) (errno)
/usr/local/arm-elf-tools/gcc-4.3.3/lib/gcc/arm-elf/4.3.3/../../../../arm-elf/lib/interwork/libc.a(lib_a-sccl.o)
                              /usr/local/arm-elf-tools/gcc-4.3.3/lib/gcc/arm-elf/4.3.3/../../../../arm-elf/lib/interwork/libc.a(lib_a-vfscanf.o) (__sccl)
/usr/local/arm-elf-tools/gcc-4.3.3/lib/gcc/arm-elf/4.3.3/../../../../arm-elf/lib/interwork/libc.a(lib_a-sf_nan.o)
                              /usr/local/arm-elf-tools/gcc-4.3.3/lib/gcc/arm-elf/4.3.3/../../../../arm-elf/lib/interwork/libc.a(lib_a-strtod.o) (nanf)
/usr/local/arm-elf-tools/gcc-4.3.3/lib/gcc/arm-elf/4.3.3/../../../../arm-elf/lib/interwork/libc.a(lib_a-s_isinfd.o)
                              /usr/local/arm-elf-tools/gcc-4.3.3/lib/gcc/arm-elf/4.3.3/../../../../arm-elf/lib/interwork/libc.a(lib_a-svfprintf.o) (__isinfd)
/usr/local/arm-elf-tools/gcc-4.3.3/lib/gcc/arm-elf/4.3.3/../../../../arm-elf/lib/interwork/libc.a(lib_a-strtol.o)
                              /usr/local/arm-elf-tools/gcc-4.3.3/lib/gcc/arm-elf/4.3.3/../../../../arm-elf/lib/interwork/libc.a(lib_a-vfscanf.o) (_strtol_r)

Allocating common symbols
Common symbol       size              file

bgIntFunction1      0x4               ../../core/dynawa/bcsp/uSched.o
timeval             0x4               ../../core/utils/time.o
scrscrX2            0x2               ../../core/screen/screen.o
bt_spp_state        0x10              ../../core/lwalkera-lwBT-f64e170/bt_spp.o
l2cap_insegs        0x4               ../../core/lwalkera-lwBT-f64e170/lwbt/l2cap.o
errno               0x4               /usr/local/arm-elf-tools/gcc-4.3.3/lib/gcc/arm-elf/4.3.3/../../../../arm-elf/lib/interwork/libc.a(lib_a-reent.o)
l2cap_active_pcbs   0x4               ../../core/lwalkera-lwBT-f64e170/lwbt/l2cap.o
fontBuf             0x230             ../../core/screen/font.o
scrscrY2            0x2               ../../core/screen/screen.o
scrscrY1            0x2               ../../core/screen/screen.o
__hexdig            0x100             /usr/local/arm-elf-tools/gcc-4.3.3/lib/gcc/arm-elf/4.3.3/../../../../arm-elf/lib/interwork/libc.a(lib_a-gdtoa-gethex.o)
rfcomm_active_pcbs  0x4               ../../core/lwalkera-lwBT-f64e170/lwbt/rfcomm.o
at_state            0x1               ../../core/lwalkera-lwBT-f64e170/bt_spp.o
sd_blocksize        0x4               ../../core/sdcard/sdcard.o
Serial_internals    0x118             ../../core/dynawa/serial.o
sdp_pcbs            0x4               ../../core/lwalkera-lwBT-f64e170/lwbt/sdp.o
scrrot              0x2               ../../core/screen/screen.o
sd_size             0x4               ../../core/sdcard/sdcard.o
rfcomm_tmp_pcb      0x4               ../../core/lwalkera-lwBT-f64e170/lwbt/rfcomm.o
AbcspInstanceData   0x20a4            ../../core/dynawa/bcsp/abcsp_support_functions.o
hci_tmp_link        0x4               ../../core/lwalkera-lwBT-f64e170/lwbt/hci.o
rhdl_next           0x4               ../../core/lwalkera-lwBT-f64e170/lwbt/sdp.o
sigid_nxt           0x1               ../../core/lwalkera-lwBT-f64e170/lwbt/l2cap.o
bgIntFunction2      0x4               ../../core/dynawa/bcsp/uSched.o
scrscrX1            0x2               ../../core/screen/screen.o
rfcomm_listen_pcbs  0x4               ../../core/lwalkera-lwBT-f64e170/lwbt/rfcomm.o
sd_sectorbuffer     0x200             ../../core/sdcard/sdcard.o
timer_manager       0x38              ../../core/dynawa/timer.o
sdp_tmp_record      0x4               ../../core/lwalkera-lwBT-f64e170/lwbt/sdp.o
l2cap_tmp_inseg     0x4               ../../core/lwalkera-lwBT-f64e170/lwbt/l2cap.o
sd_numsectors       0x4               ../../core/sdcard/sdcard.o
toggle              0x4               ../../core/dynawa/main.o
l2cap_tmp_pcb       0x4               ../../core/lwalkera-lwBT-f64e170/lwbt/l2cap.o
Io_isrSources       0x80              ../../core/dynawa/io.o
pcb                 0x4               ../../core/lwalkera-lwBT-f64e170/lwbt/hci.o
NumberOfHciCommands
                    0x4               ../../core/dynawa/bcsp/main.o
taskHandles         0x4               ../../core/dynawa/main.o
lwip_stats          0xcc              ../../core/lwalkera-lwBT-f64e170/lwip/stats.o
scrmirror           0x2               ../../core/screen/screen.o
l2cap_tmp_sig       0x4               ../../core/lwalkera-lwBT-f64e170/lwbt/l2cap.o
hci_active_links    0x4               ../../core/lwalkera-lwBT-f64e170/lwbt/hci.o
sdp_tmp_pcb         0x4               ../../core/lwalkera-lwBT-f64e170/lwbt/sdp.o
sdp_server_records  0x4               ../../core/lwalkera-lwBT-f64e170/lwbt/sdp.o
status              0x4               ../../core/dynawa/io_isr.o
tid_next            0x2               ../../core/lwalkera-lwBT-f64e170/lwbt/sdp.o
l2cap_listen_pcbs   0x4               ../../core/lwalkera-lwBT-f64e170/lwbt/l2cap.o

Memory Configuration

Name             Origin             Length             Attributes
xdatasram        0x10080000         0x00400000         w !xr
xcodesram        0x10000000         0x00070000         xr
sram             0x00000000         0x00008000         w !xr
*default*        0x00000000         0xffffffff

Linker script and memory map

LOAD ../../core/freertos/portable/GCC/ARM7_AT91SAM7S/portISR.o
LOAD ../../core/usb/device/core/USBD_UDP.o
LOAD ../../core/usb/device/core/USBD_OTGHS.o
LOAD ../../core/usb/device/core/USBD_UDPHS.o
LOAD ../../core/dynawa/serial_isr.o
LOAD ../../core/dynawa/button.o
LOAD ../../core/dynawa/timer_isr.o
LOAD ../../core/dynawa/io_isr.o
LOAD ../../core/startup/extras.o
LOAD ../../core/freertos/tasks.o
LOAD ../../core/freertos/queue.o
LOAD ../../core/freertos/list.o
LOAD ../../core/freertos/portable/GCC/ARM7_AT91SAM7S/port.o
LOAD ../../core/freertos/portable/MemMang/heap_3.o
LOAD ../../core/usb/common/cdc/CDCSetControlLineStateRequest.o
LOAD ../../core/usb/common/cdc/CDCLineCoding.o
LOAD ../../core/usb/device/cdc-serial/CDCDSerialDriver.o
LOAD ../../core/usb/device/cdc-serial/CDCDSerialDriverDescriptors.o
LOAD ../../core/usb/device/core/USBDCallbacks_Resumed.o
LOAD ../../core/usb/device/core/USBDCallbacks_Suspended.o
LOAD ../../core/usb/device/core/USBDDriverCb_CfgChanged.o
LOAD ../../core/usb/device/core/USBDDriverCb_IfSettingChanged.o
LOAD ../../core/usb/device/core/USBDCallbacks_Initialized.o
LOAD ../../core/usb/device/core/USBDCallbacks_Reset.o
LOAD ../../core/usb/device/core/USBDDriver.o
LOAD ../../core/usb/common/core/USBSetAddressRequest.o
LOAD ../../core/usb/common/core/USBGenericDescriptor.o
LOAD ../../core/usb/common/core/USBGenericRequest.o
LOAD ../../core/usb/common/core/USBGetDescriptorRequest.o
LOAD ../../core/usb/common/core/USBSetConfigurationRequest.o
LOAD ../../core/usb/common/core/USBFeatureRequest.o
LOAD ../../core/usb/common/core/USBEndpointDescriptor.o
LOAD ../../core/usb/common/core/USBConfigurationDescriptor.o
LOAD ../../core/usb/common/core/USBInterfaceRequest.o
LOAD ../../core/utils/rprintf.o
LOAD ../../core/utils/time.o
LOAD ../../core/utils/delay.o
LOAD ../../core/screen/screen.o
LOAD ../../core/screen/font.o
LOAD ../../core/lua-5.1.4/src/lapi.o
LOAD ../../core/lua-5.1.4/src/lauxlib.o
LOAD ../../core/lua-5.1.4/src/lbaselib.o
LOAD ../../core/lua-5.1.4/src/lcode.o
LOAD ../../core/lua-5.1.4/src/ldblib.o
LOAD ../../core/lua-5.1.4/src/ldebug.o
LOAD ../../core/lua-5.1.4/src/ldo.o
LOAD ../../core/lua-5.1.4/src/ldump.o
LOAD ../../core/lua-5.1.4/src/lfunc.o
LOAD ../../core/lua-5.1.4/src/lgc.o
LOAD ../../core/lua-5.1.4/src/linit.o
LOAD ../../core/lua-5.1.4/src/liolib.o
LOAD ../../core/lua-5.1.4/src/llex.o
LOAD ../../core/lua-5.1.4/src/lmathlib.o
LOAD ../../core/lua-5.1.4/src/lmem.o
LOAD ../../core/lua-5.1.4/src/loadlib.o
LOAD ../../core/lua-5.1.4/src/lobject.o
LOAD ../../core/lua-5.1.4/src/lopcodes.o
LOAD ../../core/lua-5.1.4/src/loslib.o
LOAD ../../core/lua-5.1.4/src/lparser.o
LOAD ../../core/lua-5.1.4/src/lstate.o
LOAD ../../core/lua-5.1.4/src/lstring.o
LOAD ../../core/lua-5.1.4/src/lstrlib.o
LOAD ../../core/lua-5.1.4/src/ltable.o
LOAD ../../core/lua-5.1.4/src/ltablib.o
LOAD ../../core/lua-5.1.4/src/ltm.o
LOAD ../../core/lua-5.1.4/src/lundump.o
LOAD ../../core/lua-5.1.4/src/lvm.o
LOAD ../../core/lua-5.1.4/src/lzio.o
LOAD ../../core/lua-5.1.4/src/print.o
LOAD ../../core/dynawa/rtos.o
LOAD ../../core/dynawa/usbserial.o
LOAD ../../core/dynawa/serial.o
LOAD ../../core/dynawa/main.o
LOAD ../../core/dynawa/io.o
LOAD ../../core/dynawa/led.o
LOAD ../../core/dynawa/lua/lua.o
LOAD ../../core/dynawa/lua/lua_isr.o
LOAD ../../core/dynawa/lua/lib_dynawa.o
LOAD ../../core/dynawa/lua/lib_dynawa_timer.o
LOAD ../../core/dynawa/lua/lib_dynawa_bitmap.o
LOAD ../../core/dynawa/event.o
LOAD ../../core/dynawa/timer.o
LOAD ../../core/dynawa/bitmap.o
LOAD ../../core/sdcard/sdcard.o
LOAD ../../core/dynawa/fat.o
LOAD ../../core/fatfs-0.07/src/option/ccsbcs.o
LOAD ../../core/fatfs-0.07/src/diskio.o
LOAD ../../core/fatfs-0.07/src/ff.o
LOAD ../../core/monitor/args.o
LOAD ../../core/monitor/argsdispatch.o
LOAD ../../core/monitor/monitor.o
LOAD ../../core/yabcsp/src/crc.o
LOAD ../../core/yabcsp/src/init.o
LOAD ../../core/yabcsp/src/le.o
LOAD ../../core/yabcsp/src/rx.o
LOAD ../../core/yabcsp/src/txmsg.o
LOAD ../../core/yabcsp/src/txslip.o
LOAD ../../core/dynawa/bcsp/main.o
LOAD ../../core/dynawa/bcsp/abcsp_support_functions.o
LOAD ../../core/dynawa/bcsp/uSched.o
LOAD ../../core/dynawa/bcsp/SerialCom.o
LOAD ../../core/peripherals/serial.o
LOAD ../../core/peripherals/oled/oled.o
LOAD ../../core/peripherals/spi.o
LOAD ../../core/peripherals/pmc/pmc.o
LOAD ../../core/peripherals/usart/usart.o
LOAD ../../core/peripherals/aic/aic.o
LOAD ../../core/peripherals/pio/pio.o
LOAD ../../core/peripherals/rtc.o
LOAD ../../core/peripherals/i2c.o
LOAD ../../core/peripherals/accel.o
LOAD ../../core/peripherals/gasgauge.o
LOAD ../../core/peripherals/amblightsensor.o
LOAD ../../core/peripherals/ledrgb.o
LOAD ../../core/lua-5.1.4/src/lnum.o
LOAD ../../core/lwalkera-lwBT-f64e170/lwbt/fcs.o
LOAD ../../core/lwalkera-lwBT-f64e170/lwbt/hci.o
LOAD ../../core/lwalkera-lwBT-f64e170/lwbt/l2cap.o
LOAD ../../core/lwalkera-lwBT-f64e170/lwbt/lwbt_memp.o
LOAD ../../core/lwalkera-lwBT-f64e170/lwbt/rfcomm.o
LOAD ../../core/lwalkera-lwBT-f64e170/lwbt/sdp.o
LOAD ../../core/lwalkera-lwBT-f64e170/lwip/inet.o
LOAD ../../core/lwalkera-lwBT-f64e170/lwip/memp.o
LOAD ../../core/lwalkera-lwBT-f64e170/lwip/pbuf.o
LOAD ../../core/lwalkera-lwBT-f64e170/lwip/stats.o
LOAD ../../core/lwalkera-lwBT-f64e170/bt_spp.o
LOAD ../../libraries/zlib-1.2.3/adler32.o
LOAD ../../libraries/zlib-1.2.3/compress.o
LOAD ../../libraries/zlib-1.2.3/crc32.o
LOAD ../../libraries/zlib-1.2.3/gzio.o
LOAD ../../libraries/zlib-1.2.3/uncompr.o
LOAD ../../libraries/zlib-1.2.3/deflate.o
LOAD ../../libraries/zlib-1.2.3/trees.o
LOAD ../../libraries/zlib-1.2.3/zutil.o
LOAD ../../libraries/zlib-1.2.3/inflate.o
LOAD ../../libraries/zlib-1.2.3/infback.o
LOAD ../../libraries/zlib-1.2.3/inftrees.o
LOAD ../../libraries/zlib-1.2.3/inffast.o
LOAD ../../libraries/libpng-1.4.0/png.o
LOAD ../../libraries/libpng-1.4.0/pngerror.o
LOAD ../../libraries/libpng-1.4.0/pngget.o
LOAD ../../libraries/libpng-1.4.0/pngmem.o
LOAD ../../libraries/libpng-1.4.0/pngpread.o
LOAD ../../libraries/libpng-1.4.0/pngread.o
LOAD ../../libraries/libpng-1.4.0/pngrio.o
LOAD ../../libraries/libpng-1.4.0/pngrtran.o
LOAD ../../libraries/libpng-1.4.0/pngrutil.o
LOAD ../../libraries/libpng-1.4.0/pngset.o
LOAD ../../libraries/libpng-1.4.0/pngtrans.o
LOAD ../../libraries/libpng-1.4.0/pngwio.o
LOAD ../../libraries/libpng-1.4.0/pngwrite.o
LOAD ../../libraries/libpng-1.4.0/pngwtran.o
LOAD ../../libraries/libpng-1.4.0/pngwutil.o
LOAD ../../core/dynawa/png.o
LOAD image.o
LOAD /tmp/ccIBIrH5.o
LOAD /tmp/ccAJfFnu.o
LOAD /usr/local/arm-elf-tools/gcc-4.3.3/lib/gcc/arm-elf/4.3.3/../../../../arm-elf/lib/interwork/libm.a
START GROUP
LOAD /usr/local/arm-elf-tools/gcc-4.3.3/lib/gcc/arm-elf/4.3.3/interwork/libgcc.a
LOAD /usr/local/arm-elf-tools/gcc-4.3.3/lib/gcc/arm-elf/4.3.3/../../../../arm-elf/lib/interwork/libc.a
END GROUP
                0x00100000                __HEAPSIZE__ = 0x100000
                0x000005dc                __STACKSIZE__ = 0x5dc
                0x00000200                __STACKSIZE_IRQ__ = 0x200
                0x00000200                __STACKSIZE_FIQ__ = 0x200
                0x00000100                __STACKSIZE_SVC__ = 0x100
                0x00000000                __STACKSIZE_ABT__ = 0x0
                0x00000000                __STACKSIZE_UND__ = 0x0

.init           0x10000000      0x238
 *(.init .init.*)
 .init          0x10000000       0x50 /tmp/ccIBIrH5.o
                0x10000028                undef_handler
                0x10000000                __boot_handler
                0x10000030                pabort_handler
                0x10000034                dabort_handler
                0x1000003c                fiq_handler
 .init          0x10000050      0x1e8 /tmp/ccAJfFnu.o
                0x10000050                __start
                0x10000050                _start
                0x10000238                . = ALIGN (0x4)

.imageboot      0x10000238        0x8
                0x10000238                __imageboot_start__ = .
 *(.imageboot .imageboot.*)
 .imageboot     0x10000238        0x8 /tmp/ccIBIrH5.o
                0x10000240                . = ALIGN (0x4)
                0x10000240                __imageboot_end__ = .

.text           0x10000240    0x58f60
                0x10000240                __text_start__ = .
                0x10000240                __text_load_start__ = .
 *(.text .text.* .glue_7t .glue_7 .gnu.linkonce.t.*)
 .text.stub     0x10000240      0x458 linker stubs
 .text          0x10000698      0x25c ../../core/freertos/portable/GCC/ARM7_AT91SAM7S/portISR.o
                0x10000794                vPreemptiveTick
                0x10000750                vPortExitCritical
                0x100006f4                vPortDisableInterruptsFromThumb
                0x10000848                swi_handler
                0x10000698                vPortISRStartFirstTask
                0x100006e4                vPortDisableAllInterrupts
                0x1000070c                vPortEnableInterruptsFromThumb
                0x10000724                vPortEnterCritical
 .glue_7        0x100008f4        0x0 ../../core/freertos/portable/GCC/ARM7_AT91SAM7S/portISR.o
 .glue_7t       0x100008f4        0x0 ../../core/freertos/portable/GCC/ARM7_AT91SAM7S/portISR.o
 .text          0x100008f4     0x1134 ../../core/usb/device/core/USBD_UDP.o
                0x10000e38                USBD_RemoteWakeUp
                0x10000d94                USBD_IsHalted
                0x10001064                USBD_ConfigureEndpoint
                0x10001980                UsbIsr_Wrapper
                0x1000118c                USBD_InterruptHandler
                0x10000e7c                USBD_SetAddress
                0x10000f54                USBD_Disconnect
                0x10000f3c                USBD_Connect
                0x10000fc4                USBD_Init
                0x10000dc4                USBD_Stall
                0x10000eb8                USBD_SetConfiguration
                0x10000dbc                USBD_IsHighSpeed
                0x10000cf8                USBD_Unhalt
                0x10000a2c                USBD_Write
                0x10000fb4                USBD_GetState
                0x10000bd4                USBD_Read
                0x10000c54                USBD_Halt
 .glue_7        0x10001a28        0x0 ../../core/usb/device/core/USBD_UDP.o
 .glue_7t       0x10001a28        0x0 ../../core/usb/device/core/USBD_UDP.o
 .text          0x10001a28        0x0 ../../core/usb/device/core/USBD_OTGHS.o
 .glue_7        0x10001a28        0x0 ../../core/usb/device/core/USBD_OTGHS.o
 .glue_7t       0x10001a28        0x0 ../../core/usb/device/core/USBD_OTGHS.o
 .text          0x10001a28        0x0 ../../core/usb/device/core/USBD_UDPHS.o
 .glue_7        0x10001a28        0x0 ../../core/usb/device/core/USBD_UDPHS.o
 .glue_7t       0x10001a28        0x0 ../../core/usb/device/core/USBD_UDPHS.o
 .text          0x10001a28      0x228 ../../core/dynawa/serial_isr.o
                0x10001ba4                Serial0Isr_Wrapper
                0x10001b00                Serial1Isr_Wrapper
                0x10001a28                SerialIsr_Handler
 .glue_7        0x10001c50        0x0 ../../core/dynawa/serial_isr.o
 .glue_7t       0x10001c50        0x0 ../../core/dynawa/serial_isr.o
 .text          0x10001c50      0x218 ../../core/dynawa/button.o
                0x10001c50                button_init
                0x10001cf0                button_timer_handler
                0x10001d80                button_isr
 .glue_7        0x10001e68        0x0 ../../core/dynawa/button.o
 .glue_7t       0x10001e68        0x0 ../../core/dynawa/button.o
 .text          0x10001e68      0x288 ../../core/dynawa/timer_isr.o
                0x10001e68                Timer_Isr
                0x10002048                TimerIsr_Wrapper
 .glue_7        0x100020f0        0x0 ../../core/dynawa/timer_isr.o
 .glue_7t       0x100020f0        0x0 ../../core/dynawa/timer_isr.o
 .text          0x100020f0      0x1fc ../../core/dynawa/io_isr.o
                0x10002194                IoAIsr_Wrapper
                0x100020f0                Io_Isr
                0x1000223c                IoBIsr_Wrapper
 .glue_7        0x100022ec        0x0 ../../core/dynawa/io_isr.o
 .glue_7t       0x100022ec        0x0 ../../core/dynawa/io_isr.o
 .text          0x100022ec      0x810 ../../core/startup/extras.o
                0x10002318                _getpid
                0x100022ec                _lseek_r
                0x100022fc                _kill_r
                0x10002ae8                _mkdir
                0x100022f4                _fstat_r
                0x1000240c                _fstat
                0x10002314                _getpid_r
                0x1000263c                _sbrk_r
                0x100029d0                _read_r
                0x10002338                _isatty
                0x1000231c                _raise
                0x10002440                _times
                0x100023d4                rename
                0x1000230c                _unlink_r
                0x100024b8                _stat
                0x10002470                syscallsInit
                0x1000281c                _lseek
                0x10002690                _open_r
                0x100025a8                _close_r
                0x100023f8                _link
                0x100023c0                _rename
                0x10002304                _link_r
                0x10002acc                _chmod
                0x100028c8                _write_r
                0x1000245c                _unlink
                0x10002348                _sync
                0x10002420                _kill
                0x10002320                _gettimeofday
                0x10002434                _exit
                0x100023e0                _system
 .glue_7        0x10002afc        0x0 ../../core/startup/extras.o
 .glue_7t       0x10002afc        0x0 ../../core/startup/extras.o
 .text          0x10002afc      0xe88 ../../core/freertos/tasks.o
                0x100032b8                uxTaskPriorityGet
                0x10002afc                TaskGetTimeouts
                0x10002c84                xTaskGetPriority
                0x10002ca8                xTaskGetName
                0x10003210                vTaskPrioritySet
                0x100035dc                vTaskEndScheduler
                0x1000335c                vTaskPlaceOnEventList
                0x10002b0c                xTaskIsTaskSuspended
                0x10002ccc                GetDelayedTaskList
                0x10002cd8                GetOverflowDelayedTaskList
                0x10002ef0                xTaskResumeFromISR
                0x10002cbc                GetReadyTaskByPriority
                0x10002c94                xTaskGetIDNumber
                0x10002fd0                ulTaskEndTrace
                0x10003038                xTaskGetTickCount
                0x10002dc0                xTaskRemoveFromEventList
                0x10002ffc                vTaskStartTrace
                0x100032e0                vTaskDelete
                0x10002f74                xTaskCheckForTimeOut
                0x10002ce4                GetListOfTasksWaitingTermination
                0x10002b30                vTaskSuspendAll
                0x10002d04                vTaskPriorityDisinherit
                0x10002c60                usVoidTaskCheckFreeStackSpace
                0x10002d54                vTaskPriorityInherit
                0x10003138                vTaskResume
                0x10002b4c                vTaskSwitchContext
                0x100031b8                vTaskSuspend
                0x10002b40                uxTaskGetNumberOfTasks
                0x10002e34                vTaskIncrementTick
                0x10002cec                GetSuspendedTaskList
                0x10002cf4                xTaskSetContext
                0x10003528                vTaskList
                0x10003418                vTaskDelayUntil
                0x10002c78                xTaskGetCurrentTaskHandle
                0x10002c48                usTaskCheckFreeStackSpace
                0x10003054                xTaskResumeAll
                0x10003940                vTaskStartScheduler
                0x10002cb0                xTaskGetTopUsedPriority
                0x10002c3c                vTaskMissedYield
                0x10003670                xTaskCreate
                0x100033bc                vTaskDelay
                0x10002cfc                xTaskGetContext
                0x10002c24                vTaskSetTimeOutState
 .glue_7        0x10003984        0x0 ../../core/freertos/tasks.o
 .glue_7t       0x10003984        0x0 ../../core/freertos/tasks.o
 .text          0x10003984      0x478 ../../core/freertos/queue.o
                0x10003c30                xQueueGenericSendFromISR
                0x10003d94                xQueueCreate
                0x1000399c                vQueueDelete
                0x10003c74                xQueueGenericSend
                0x100039cc                xQueueReceiveFromISR
                0x10003990                xQueueIsQueueFullFromISR
                0x10003aa0                xQueueGenericReceive
                0x100039b4                uxQueueMessagesWaiting
                0x10003984                uxQueueMessagesWaitingFromISR
                0x10003988                xQueueIsQueueEmptyFromISR
                0x10003d4c                xQueueCreateMutex
 .glue_7        0x10003dfc        0x0 ../../core/freertos/queue.o
 .glue_7t       0x10003dfc        0x0 ../../core/freertos/queue.o
 .text          0x10003dfc       0x90 ../../core/freertos/list.o
                0x10003e1c                vListInsertEnd
                0x10003e6c                vListRemove
                0x10003e14                vListInitialiseItem
                0x10003dfc                vListInitialise
                0x10003e38                vListInsert
 .glue_7        0x10003e8c        0x0 ../../core/freertos/list.o
 .glue_7t       0x10003e8c        0x0 ../../core/freertos/list.o
 .text          0x10003e8c       0xe8 ../../core/freertos/portable/GCC/ARM7_AT91SAM7S/port.o
                0x10003f34                xPortStartScheduler
                0x10003f30                vPortEndScheduler
                0x10003e8c                pxPortInitialiseStack
 .glue_7        0x10003f74        0x0 ../../core/freertos/portable/GCC/ARM7_AT91SAM7S/port.o
 .glue_7t       0x10003f74        0x0 ../../core/freertos/portable/GCC/ARM7_AT91SAM7S/port.o
 .text          0x10003f74       0x38 ../../core/freertos/portable/MemMang/heap_3.o
                0x10003f74                vPortFree
                0x10003f90                pvPortMalloc
 .glue_7        0x10003fac        0x0 ../../core/freertos/portable/MemMang/heap_3.o
 .glue_7t       0x10003fac        0x0 ../../core/freertos/portable/MemMang/heap_3.o
 .text          0x10003fac       0x20 ../../core/usb/common/cdc/CDCSetControlLineStateRequest.o
                0x10003fbc                CDCSetControlLineStateRequest_IsDtePresent
                0x10003fac                CDCSetControlLineStateRequest_ActivateCarrier
 .glue_7        0x10003fcc        0x0 ../../core/usb/common/cdc/CDCSetControlLineStateRequest.o
 .glue_7t       0x10003fcc        0x0 ../../core/usb/common/cdc/CDCSetControlLineStateRequest.o
 .text          0x10003fcc       0x20 ../../core/usb/common/cdc/CDCLineCoding.o
                0x10003fcc                CDCLineCoding_Initialize
 .glue_7        0x10003fec        0x0 ../../core/usb/common/cdc/CDCLineCoding.o
 .glue_7t       0x10003fec        0x0 ../../core/usb/common/cdc/CDCLineCoding.o
 .text          0x10003fec      0x15c ../../core/usb/device/cdc-serial/CDCDSerialDriver.o
                0x10004108                CDCDSerialDriver_Initialize
                0x10004088                CDCDSerialDriver_RequestHandler
                0x10003fec                CDCDSerialDriver_GetSerialState
                0x10004030                CDCDSerialDriver_Write
                0x10003ff8                CDCDSerialDriver_SetSerialState
                0x10004068                CDCDSerialDriver_Read
                0x100040fc                USBDCallbacks_RequestReceived
 .glue_7        0x10004148        0x0 ../../core/usb/device/cdc-serial/CDCDSerialDriver.o
 .glue_7t       0x10004148        0x0 ../../core/usb/device/cdc-serial/CDCDSerialDriver.o
 .text          0x10004148        0x0 ../../core/usb/device/cdc-serial/CDCDSerialDriverDescriptors.o
 .glue_7        0x10004148        0x0 ../../core/usb/device/cdc-serial/CDCDSerialDriverDescriptors.o
 .glue_7t       0x10004148        0x0 ../../core/usb/device/cdc-serial/CDCDSerialDriverDescriptors.o
 .text          0x10004148        0x4 ../../core/usb/device/core/USBDCallbacks_Resumed.o
                0x10004148                USBDCallbacks_Resumed
 .glue_7        0x1000414c        0x0 ../../core/usb/device/core/USBDCallbacks_Resumed.o
 .glue_7t       0x1000414c        0x0 ../../core/usb/device/core/USBDCallbacks_Resumed.o
 .text          0x1000414c        0x4 ../../core/usb/device/core/USBDCallbacks_Suspended.o
                0x1000414c                USBDCallbacks_Suspended
 .glue_7        0x10004150        0x0 ../../core/usb/device/core/USBDCallbacks_Suspended.o
 .glue_7t       0x10004150        0x0 ../../core/usb/device/core/USBDCallbacks_Suspended.o
 .text          0x10004150        0x4 ../../core/usb/device/core/USBDDriverCb_CfgChanged.o
                0x10004150                USBDDriverCallbacks_ConfigurationChanged
 .glue_7        0x10004154        0x0 ../../core/usb/device/core/USBDDriverCb_CfgChanged.o
 .glue_7t       0x10004154        0x0 ../../core/usb/device/core/USBDDriverCb_CfgChanged.o
 .text          0x10004154        0x4 ../../core/usb/device/core/USBDDriverCb_IfSettingChanged.o
                0x10004154                USBDDriverCallbacks_InterfaceSettingChanged
 .glue_7        0x10004158        0x0 ../../core/usb/device/core/USBDDriverCb_IfSettingChanged.o
 .glue_7t       0x10004158        0x0 ../../core/usb/device/core/USBDDriverCb_IfSettingChanged.o
 .text          0x10004158       0x38 ../../core/usb/device/core/USBDCallbacks_Initialized.o
                0x10004158                USBDCallbacks_Initialized
 .glue_7        0x10004190        0x0 ../../core/usb/device/core/USBDCallbacks_Initialized.o
 .glue_7t       0x10004190        0x0 ../../core/usb/device/core/USBDCallbacks_Initialized.o
 .text          0x10004190        0x4 ../../core/usb/device/core/USBDCallbacks_Reset.o
                0x10004190                USBDCallbacks_Reset
 .glue_7        0x10004194        0x0 ../../core/usb/device/core/USBDCallbacks_Reset.o
 .glue_7t       0x10004194        0x0 ../../core/usb/device/core/USBDCallbacks_Reset.o
 .text          0x10004194      0x2c8 ../../core/usb/device/core/USBDDriver.o
                0x100041a0                USBDDriver_IsRemoteWakeUpEnabled
                0x10004194                USBDDriver_Initialize
                0x100041a4                USBDDriver_RequestHandler
 .glue_7        0x1000445c        0x0 ../../core/usb/device/core/USBDDriver.o
 .glue_7t       0x1000445c        0x0 ../../core/usb/device/core/USBDDriver.o
 .text          0x1000445c       0x10 ../../core/usb/common/core/USBSetAddressRequest.o
                0x1000445c                USBSetAddressRequest_GetAddress
 .glue_7        0x1000446c        0x0 ../../core/usb/common/core/USBSetAddressRequest.o
 .glue_7t       0x1000446c        0x0 ../../core/usb/common/core/USBSetAddressRequest.o
 .text          0x1000446c       0x10 ../../core/usb/common/core/USBGenericDescriptor.o
                0x10004470                USBGenericDescriptor_GetType
                0x1000446c                USBGenericDescriptor_GetLength
                0x10004474                USBGenericDescriptor_GetNextDescriptor
 .glue_7        0x1000447c        0x0 ../../core/usb/common/core/USBGenericDescriptor.o
 .glue_7t       0x1000447c        0x0 ../../core/usb/common/core/USBGenericDescriptor.o
 .text          0x1000447c       0x30 ../../core/usb/common/core/USBGenericRequest.o
                0x10004488                USBGenericRequest_GetValue
                0x1000448c                USBGenericRequest_GetIndex
                0x1000449c                USBGenericRequest_GetRecipient
                0x10004484                USBGenericRequest_GetRequest
                0x10004490                USBGenericRequest_GetLength
                0x100044a4                USBGenericRequest_GetDirection
                0x1000447c                USBGenericRequest_GetType
                0x10004494                USBGenericRequest_GetEndpointNumber
 .glue_7        0x100044ac        0x0 ../../core/usb/common/core/USBGenericRequest.o
 .glue_7t       0x100044ac        0x0 ../../core/usb/common/core/USBGenericRequest.o
 .text          0x100044ac       0x20 ../../core/usb/common/core/USBGetDescriptorRequest.o
                0x100044bc                USBGetDescriptorRequest_GetDescriptorType
                0x100044ac                USBGetDescriptorRequest_GetDescriptorIndex
 .glue_7        0x100044cc        0x0 ../../core/usb/common/core/USBGetDescriptorRequest.o
 .glue_7t       0x100044cc        0x0 ../../core/usb/common/core/USBGetDescriptorRequest.o
 .text          0x100044cc       0x10 ../../core/usb/common/core/USBSetConfigurationRequest.o
                0x100044cc                USBSetConfigurationRequest_GetConfiguration
 .glue_7        0x100044dc        0x0 ../../core/usb/common/core/USBSetConfigurationRequest.o
 .glue_7t       0x100044dc        0x0 ../../core/usb/common/core/USBSetConfigurationRequest.o
 .text          0x100044dc       0x20 ../../core/usb/common/core/USBFeatureRequest.o
                0x100044ec                USBFeatureRequest_GetFeatureSelector
                0x100044dc                USBFeatureRequest_GetTestSelector
 .glue_7        0x100044fc        0x0 ../../core/usb/common/core/USBFeatureRequest.o
 .glue_7t       0x100044fc        0x0 ../../core/usb/common/core/USBFeatureRequest.o
 .text          0x100044fc       0x24 ../../core/usb/common/core/USBEndpointDescriptor.o
                0x10004504                USBEndpointDescriptor_GetDirection
                0x1000450c                USBEndpointDescriptor_GetType
                0x10004514                USBEndpointDescriptor_GetMaxPacketSize
                0x100044fc                USBEndpointDescriptor_GetNumber
 .glue_7        0x10004520        0x0 ../../core/usb/common/core/USBEndpointDescriptor.o
 .glue_7t       0x10004520        0x0 ../../core/usb/common/core/USBEndpointDescriptor.o
 .text          0x10004520       0x98 ../../core/usb/common/core/USBConfigurationDescriptor.o
                0x10004520                USBConfigurationDescriptor_GetTotalLength
                0x10004530                USBConfigurationDescriptor_IsSelfPowered
                0x10004538                USBConfigurationDescriptor_Parse
                0x1000452c                USBConfigurationDescriptor_GetNumInterfaces
 .glue_7        0x100045b8        0x0 ../../core/usb/common/core/USBConfigurationDescriptor.o
 .glue_7t       0x100045b8        0x0 ../../core/usb/common/core/USBConfigurationDescriptor.o
 .text          0x100045b8       0x20 ../../core/usb/common/core/USBInterfaceRequest.o
                0x100045b8                USBInterfaceRequest_GetAlternateSetting
                0x100045c8                USBInterfaceRequest_GetInterface
 .glue_7        0x100045d8        0x0 ../../core/usb/common/core/USBInterfaceRequest.o
 .glue_7t       0x100045d8        0x0 ../../core/usb/common/core/USBInterfaceRequest.o
 .text          0x100045d8      0x7c0 ../../core/utils/rprintf.o
                0x100045d8                usart_rprintf
                0x100049a0                rprintf
 .glue_7        0x10004d98        0x0 ../../core/utils/rprintf.o
 .glue_7t       0x10004d98        0x0 ../../core/utils/rprintf.o
 .text          0x10004d98       0xb8 ../../core/utils/time.o
                0x10004e44                timer_get_timer
                0x10004d98                timer_int
                0x10004df4                timer_init
 .glue_7        0x10004e50        0x0 ../../core/utils/time.o
 .glue_7t       0x10004e50        0x0 ../../core/utils/time.o
 .text          0x10004e50       0xa4 ../../core/utils/delay.o
                0x10004ea0                delayms
                0x10004e50                delay
 .glue_7        0x10004ef4        0x0 ../../core/utils/delay.o
 .glue_7t       0x10004ef4        0x0 ../../core/utils/delay.o
 .text          0x10004ef4      0x32c ../../core/screen/screen.o
                0x1000511c                scrWriteRect
                0x10005030                scrWriteBitmap
                0x10004f38                scrWriteBitmapRGBA
                0x10004ef4                scrInit
 .glue_7        0x10005220        0x0 ../../core/screen/screen.o
 .glue_7t       0x10005220        0x0 ../../core/screen/screen.o
 .text          0x10005220       0xd0 ../../core/screen/font.o
                0x10005234                fontPutChar
                0x10005220                fontSetCharPos
 .glue_7        0x100052f0        0x0 ../../core/screen/font.o
 .glue_7t       0x100052f0        0x0 ../../core/screen/font.o
 .text          0x100052f0     0x102c ../../core/lua-5.1.4/src/lapi.o
                0x10005748                lua_getupvalue
                0x1000547c                lua_insert
                0x100055ac                lua_touserdata
                0x10005668                lua_pushlightuserdata
                0x100053f0                lua_atpanic
                0x100058d8                lua_isnumber
                0x10005730                lua_getallocf
                0x10005bcc                lua_load
                0x10006084                lua_objlen
                0x10005c24                lua_pcall
                0x10005fd8                lua_getfield
                0x10005a38                lua_concat
                0x1000558c                lua_tocfunction
                0x10005ae0                lua_next
                0x100053f8                lua_gettop
                0x10006034                lua_pushvfstring
                0x100055d0                lua_tothread
                0x10005828                lua_tointeger
                0x10005694                lua_getmetatable
                0x10005628                lua_pushnumber
                0x10005450                lua_remove
                0x10005eec                lua_setfield
                0x100053e8                lua_setlevel
                0x10005aac                lua_pushlstring
                0x10005534                lua_isstring
                0x100054b4                lua_pushvalue
                0x1000561c                lua_pushnil
                0x1000585c                lua_tonumber
                0x10005740                lua_setallocf
                0x10005418                lua_settop
                0x10005c84                lua_pushcclosure
                0x1000605c                lua_pushfstring
                0x100060cc                lua_tolstring
                0x100054d4                lua_type
                0x10005510                lua_iscfunction
                0x10005654                lua_pushboolean
                0x100053a0                lua_xmove
                0x10005f2c                lua_settable
                0x10005d98                lua_setmetatable
                0x100055e8                lua_topointer
                0x10005e18                lua_rawseti
                0x10005fb0                lua_rawget
                0x10005b98                lua_dump
                0x100059f4                lua_newuserdata
                0x100058a0                lua_isinteger
                0x10005384                luaA_pushobject
                0x10006124                lua_lessthan
                0x10005d64                lua_call
                0x1000572c                lua_status
                0x10005b08                lua_error
                0x100062b0                lua_checkstack
                0x1000615c                lua_equal
                0x10006018                lua_gettable
                0x10005ec0                lua_pushstring
                0x10005c00                lua_cpcall
                0x100061e8                lua_replace
                0x10005b14                lua_gc
                0x10006284                lua_newthread
                0x10005998                lua_setfenv
                0x10005900                lua_setupvalue
                0x10005f84                lua_rawgeti
                0x10005678                lua_pushthread
                0x10005e6c                lua_rawset
                0x10005568                lua_toboolean
                0x100054f8                lua_typename
                0x100056dc                lua_getfenv
                0x1000554c                lua_isuserdata
                0x100057c0                lua_pushvalue_as_number
                0x100061b4                lua_rawequal
                0x10005f50                lua_createtable
                0x10005640                lua_pushinteger
 .glue_7        0x1000631c        0x0 ../../core/lua-5.1.4/src/lapi.o
 .glue_7t       0x1000631c        0x0 ../../core/lua-5.1.4/src/lapi.o
 .text          0x1000631c      0xc48 ../../core/lua-5.1.4/src/lauxlib.o
                0x10006664                luaL_ref
                0x10006b14                luaL_openlib
                0x100067ec                luaL_addlstring
                0x10006a50                luaL_callmeta
                0x10006618                luaL_unref
                0x10006c18                luaL_checkstack
                0x10006e18                luaL_checklstring
                0x10006874                luaL_findtable
                0x100063b0                luaL_loadbuffer
                0x100063cc                luaL_loadstring
                0x10006340                luaL_newstate
                0x10006ae0                luaL_error
                0x10006a00                luaL_getmetafield
                0x10006da0                luaL_checknumber
                0x10006934                luaL_gsub
                0x10006cc0                luaL_checkany
                0x1000631c                luaL_buffinit
                0x10006a94                luaL_where
                0x10006840                luaL_pushresult
                0x10006e3c                luaL_optlstring
                0x100069ac                luaL_newmetatable
                0x10006824                luaL_addstring
                0x10006744                luaL_addvalue
                0x10006c3c                luaL_argerror
                0x10006d40                luaL_checkinteger
                0x10006ea4                luaL_checkudata
                0x10006de4                luaL_optnumber
                0x10006d70                luaL_optinteger
                0x10006ce4                luaL_typerror
                0x100067bc                luaL_prepbuffer
                0x10006f04                luaL_checkoption
                0x10006e84                luaL_checktype
                0x10006c0c                luaL_register
                0x10006440                luaL_loadfile
 .glue_7        0x10006f64        0x0 ../../core/lua-5.1.4/src/lauxlib.o
 .glue_7t       0x10006f64        0x0 ../../core/lua-5.1.4/src/lauxlib.o
 .text          0x10006f64      0xe18 ../../core/lua-5.1.4/src/lbaselib.o
                0x10007240                luaopen_base
 .glue_7        0x10007d7c        0x0 ../../core/lua-5.1.4/src/lbaselib.o
 .glue_7t       0x10007d7c        0x0 ../../core/lua-5.1.4/src/lbaselib.o
 .text          0x10007d7c     0x1274 ../../core/lua-5.1.4/src/lcode.o
                0x100080b4                luaK_setlist
                0x1000875c                luaK_exp2val
                0x1000803c                luaK_nil
                0x10008774                luaK_exp2RK
                0x10007d7c                luaK_getlabel
                0x100086d8                luaK_exp2nextreg
                0x100084e4                luaK_goiftrue
                0x10007f98                luaK_dischargevars
                0x10008718                luaK_exp2anyreg
                0x10008f2c                luaK_storevar
                0x10008e98                luaK_indexed
                0x10008170                luaK_patchlist
                0x1000822c                luaK_setreturns
                0x1000801c                luaK_ret
                0x1000836c                luaK_integerK
                0x10008190                luaK_jump
                0x10008df4                luaK_infix
                0x10007f78                luaK_codeABC
                0x10008388                luaK_numberK
                0x1000815c                luaK_patchtohere
                0x100081e4                luaK_checkstack
                0x10008a7c                luaK_prefix
                0x10007dcc                luaK_fixline
                0x10008fd8                luaK_stringK
                0x10008214                luaK_reserveregs
                0x10007f5c                luaK_codeABx
                0x10008eb0                luaK_self
                0x10007d84                luaK_setoneret
                0x10008114                luaK_concat
                0x10008cd8                luaK_posfix
 .glue_7        0x10008ff0        0x0 ../../core/lua-5.1.4/src/lcode.o
 .glue_7t       0x10008ff0        0x0 ../../core/lua-5.1.4/src/lcode.o
 .text          0x10008ff0      0x960 ../../core/lua-5.1.4/src/ldblib.o
                0x10008ff0                luaopen_debug
 .glue_7        0x10009950        0x0 ../../core/lua-5.1.4/src/ldblib.o
 .glue_7t       0x10009950        0x0 ../../core/lua-5.1.4/src/ldblib.o
 .text          0x10009950      0xbac ../../core/lua-5.1.4/src/ldebug.o
                0x10009984                lua_sethook
                0x100099a4                lua_gethookmask
                0x10009f54                luaG_ordererror
                0x100099ac                lua_gethookcount
                0x1000a258                lua_getinfo
                0x1000a210                lua_setlocal
                0x1000a17c                luaG_concaterror
                0x10009e40                luaG_checkcode
                0x10009e54                luaG_errormsg
                0x10009ebc                luaG_runerror
                0x100099a0                lua_gethook
                0x100099b0                lua_getstack
                0x1000a14c                luaG_aritherror
                0x10009a14                luaG_checkopenop
                0x1000a0c0                luaG_typeerror
                0x1000a4c0                lua_getlocal
 .glue_7        0x1000a4fc        0x0 ../../core/lua-5.1.4/src/ldebug.o
 .glue_7t       0x1000a4fc        0x0 ../../core/lua-5.1.4/src/ldebug.o
 .text          0x1000a4fc      0xa6c ../../core/lua-5.1.4/src/ldo.o
                0x1000aa78                lua_resume
                0x1000a964                luaD_rawrunprotected
                0x1000aefc                luaD_call
                0x1000a828                luaD_callhook
                0x1000abb0                luaD_precall
                0x1000aa38                luaD_protectedparser
                0x1000aaf8                luaD_throw
                0x1000a8c0                luaD_poscall
                0x1000a5f4                luaD_reallocstack
                0x1000a4fc                lua_yield
                0x1000a58c                luaD_reallocCI
                0x1000a9a0                luaD_pcall
                0x1000a730                luaD_growstack
                0x1000a530                luaD_seterrorobj
 .glue_7        0x1000af68        0x0 ../../core/lua-5.1.4/src/ldo.o
 .glue_7t       0x1000af68        0x0 ../../core/lua-5.1.4/src/ldo.o
 .text          0x1000af68      0x2b8 ../../core/lua-5.1.4/src/ldump.o
                0x1000b1e4                luaU_dump
 .glue_7        0x1000b220        0x0 ../../core/lua-5.1.4/src/ldump.o
 .glue_7t       0x1000b220        0x0 ../../core/lua-5.1.4/src/ldump.o
 .text          0x1000b220      0x2c8 ../../core/lua-5.1.4/src/lfunc.o
                0x1000b48c                luaF_close
                0x1000b288                luaF_freeproto
                0x1000b320                luaF_findupval
                0x1000b410                luaF_newLclosure
                0x1000b3e4                luaF_newupval
                0x1000b260                luaF_freeclosure
                0x1000b2fc                luaF_freeupval
                0x1000b220                luaF_getlocalname
                0x1000b390                luaF_newproto
                0x1000b454                luaF_newCclosure
 .glue_7        0x1000b4e8        0x0 ../../core/lua-5.1.4/src/lfunc.o
 .glue_7t       0x1000b4e8        0x0 ../../core/lua-5.1.4/src/lfunc.o
 .text          0x1000b4e8      0xb4c ../../core/lua-5.1.4/src/lgc.o
                0x1000b61c                luaC_barrierback
                0x1000b5f0                luaC_barrierf
                0x1000bfa4                luaC_step
                0x1000bbbc                luaC_freeall
                0x1000b69c                luaC_separateudata
                0x1000c018                luaC_callGCTM
                0x1000b644                luaC_linkupval
                0x1000bf4c                luaC_fullgc
                0x1000b630                luaC_link
 .glue_7        0x1000c034        0x0 ../../core/lua-5.1.4/src/lgc.o
 .glue_7t       0x1000c034        0x0 ../../core/lua-5.1.4/src/lgc.o
 .text          0x1000c034       0x34 ../../core/lua-5.1.4/src/linit.o
                0x1000c034                luaL_openlibs
 .glue_7        0x1000c068        0x0 ../../core/lua-5.1.4/src/linit.o
 .glue_7t       0x1000c068        0x0 ../../core/lua-5.1.4/src/linit.o
 .text          0x1000c068      0xbc0 ../../core/lua-5.1.4/src/liolib.o
                0x1000cb0c                luaopen_io
 .glue_7        0x1000cc28        0x0 ../../core/lua-5.1.4/src/liolib.o
 .glue_7t       0x1000cc28        0x0 ../../core/lua-5.1.4/src/liolib.o
 .text          0x1000cc28      0xb58 ../../core/lua-5.1.4/src/llex.o
                0x1000cc28                luaX_setinput
                0x1000cc80                luaX_newstring
                0x1000d74c                luaX_init
                0x1000cfdc                luaX_syntaxerror
                0x1000ccb0                luaX_token2str
                0x1000d704                luaX_lookahead
                0x1000d718                luaX_next
                0x1000ccfc                luaX_lexerror
 .glue_7        0x1000d780        0x0 ../../core/lua-5.1.4/src/llex.o
 .glue_7t       0x1000d780        0x0 ../../core/lua-5.1.4/src/llex.o
 .text          0x1000d780      0x5b4 ../../core/lua-5.1.4/src/lmathlib.o
                0x1000d780                luaopen_math
 .glue_7        0x1000dd34        0x0 ../../core/lua-5.1.4/src/lmathlib.o
 .glue_7t       0x1000dd34        0x0 ../../core/lua-5.1.4/src/lmathlib.o
 .text          0x1000dd34       0xc4 ../../core/lua-5.1.4/src/lmem.o
                0x1000dd34                luaM_realloc_
                0x1000dd70                luaM_toobig
                0x1000dd84                luaM_growaux_
 .glue_7        0x1000ddf8        0x0 ../../core/lua-5.1.4/src/lmem.o
 .glue_7t       0x1000ddf8        0x0 ../../core/lua-5.1.4/src/lmem.o
 .text          0x1000ddf8      0x970 ../../core/lua-5.1.4/src/loadlib.o
                0x1000e604                luaopen_package
 .glue_7        0x1000e768        0x0 ../../core/lua-5.1.4/src/loadlib.o
 .glue_7t       0x1000e768        0x0 ../../core/lua-5.1.4/src/loadlib.o
 .text          0x1000e768      0x364 ../../core/lua-5.1.4/src/lobject.o
                0x1000ea2c                luaO_pushfstring
                0x1000e768                luaO_int2fb
                0x1000e788                luaO_fb2int
                0x1000e7bc                luaO_chunkid
                0x1000e8a0                luaO_pushvfstring
                0x1000ea44                luaO_rawequalObj
                0x1000e7a0                luaO_log2
 .glue_7        0x1000eacc        0x0 ../../core/lua-5.1.4/src/lobject.o
 .glue_7t       0x1000eacc        0x0 ../../core/lua-5.1.4/src/lobject.o
 .text          0x1000eacc        0x0 ../../core/lua-5.1.4/src/lopcodes.o
 .glue_7        0x1000eacc        0x0 ../../core/lua-5.1.4/src/lopcodes.o
 .glue_7t       0x1000eacc        0x0 ../../core/lua-5.1.4/src/lopcodes.o
 .text          0x1000eacc      0x560 ../../core/lua-5.1.4/src/loslib.o
                0x1000eacc                luaopen_os
 .glue_7        0x1000f02c        0x0 ../../core/lua-5.1.4/src/loslib.o
 .glue_7t       0x1000f02c        0x0 ../../core/lua-5.1.4/src/loslib.o
 .text          0x1000f02c     0x1a14 ../../core/lua-5.1.4/src/lparser.o
                0x100109cc                luaY_parser
 .glue_7        0x10010a40        0x0 ../../core/lua-5.1.4/src/lparser.o
 .glue_7t       0x10010a40        0x0 ../../core/lua-5.1.4/src/lparser.o
 .text          0x10010a40      0x354 ../../core/lua-5.1.4/src/lstate.o
                0x10010d10                luaE_newthread
                0x10010ab0                lua_close
                0x10010afc                lua_newstate
                0x10010c5c                luaE_freethread
 .glue_7        0x10010d94        0x0 ../../core/lua-5.1.4/src/lstate.o
 .glue_7t       0x10010d94        0x0 ../../core/lua-5.1.4/src/lstate.o
 .text          0x10010d94      0x1d4 ../../core/lua-5.1.4/src/lstring.o
                0x10010d94                luaS_newudata
                0x10010e6c                luaS_newlstr
                0x10010de0                luaS_resize
 .glue_7        0x10010f68        0x0 ../../core/lua-5.1.4/src/lstring.o
 .glue_7t       0x10010f68        0x0 ../../core/lua-5.1.4/src/lstring.o
 .text          0x10010f68     0x11dc ../../core/lua-5.1.4/src/lstrlib.o
                0x100120b8                luaopen_string
 .glue_7        0x10012144        0x0 ../../core/lua-5.1.4/src/lstrlib.o
 .glue_7t       0x10012144        0x0 ../../core/lua-5.1.4/src/lstrlib.o
 .text          0x10012144      0x918 ../../core/lua-5.1.4/src/ltable.o
                0x100128c8                luaH_resizearray
                0x10012188                luaH_getstr
                0x100128f0                luaH_next
                0x10012a08                luaH_new
                0x10012144                luaH_getint
                0x10012520                luaH_set
                0x10012738                luaH_setstr
                0x100121b8                luaH_getn
                0x10012368                luaH_free
                0x10012488                luaH_get
                0x10012790                luaH_setint
 .glue_7        0x10012a5c        0x0 ../../core/lua-5.1.4/src/ltable.o
 .glue_7t       0x10012a5c        0x0 ../../core/lua-5.1.4/src/ltable.o
 .text          0x10012a5c      0x674 ../../core/lua-5.1.4/src/ltablib.o
                0x10012a5c                luaopen_table
 .glue_7        0x100130d0        0x0 ../../core/lua-5.1.4/src/ltablib.o
 .glue_7t       0x100130d0        0x0 ../../core/lua-5.1.4/src/ltablib.o
 .text          0x100130d0       0xb4 ../../core/lua-5.1.4/src/ltm.o
                0x100130d0                luaT_gettmbyobj
                0x10013118                luaT_gettm
                0x1001313c                luaT_init
 .glue_7        0x10013184        0x0 ../../core/lua-5.1.4/src/ltm.o
 .glue_7t       0x10013184        0x0 ../../core/lua-5.1.4/src/ltm.o
 .text          0x10013184      0x4c4 ../../core/lua-5.1.4/src/lundump.o
                0x100135d0                luaU_undump
                0x10013184                luaU_header
 .glue_7        0x10013648        0x0 ../../core/lua-5.1.4/src/lundump.o
 .glue_7t       0x10013648        0x0 ../../core/lua-5.1.4/src/lundump.o
 .text          0x10013648     0x1aa8 ../../core/lua-5.1.4/src/lvm.o
                0x10013b8c                luaV_concat
                0x1001397c                luaV_settable
                0x100137b8                luaV_lessthan
                0x10013cd4                luaV_tonumber
                0x100138fc                luaV_equalval
                0x10013ebc                luaV_execute
                0x10013a98                luaV_gettable
                0x10013b4c                luaV_tostring
 .glue_7        0x100150f0        0x0 ../../core/lua-5.1.4/src/lvm.o
 .glue_7t       0x100150f0        0x0 ../../core/lua-5.1.4/src/lvm.o
 .text          0x100150f0       0xec ../../core/lua-5.1.4/src/lzio.o
                0x10015160                luaZ_openspace
                0x10015194                luaZ_read
                0x100150f0                luaZ_fill
                0x10015128                luaZ_lookahead
                0x10015150                luaZ_init
 .glue_7        0x100151dc        0x0 ../../core/lua-5.1.4/src/lzio.o
 .glue_7t       0x100151dc        0x0 ../../core/lua-5.1.4/src/lzio.o
 .text          0x100151dc      0x644 ../../core/lua-5.1.4/src/print.o
                0x100153f0                luaU_print
 .glue_7        0x10015820        0x0 ../../core/lua-5.1.4/src/print.o
 .glue_7t       0x10015820        0x0 ../../core/lua-5.1.4/src/print.o
 .text          0x10015820      0x580 ../../core/dynawa/rtos.o
                0x100158a4                Queue_receive
                0x100158d8                Semaphore_create
                0x10015cec                Task_nextTask
                0x10015884                Semaphore_take
                0x10015850                Semaphore_give
                0x10015918                Queue_msgsAvailable
                0x10015948                RTOS_currentTask
                0x10015d40                Task_exitCritical
                0x100158c0                Semaphore_delete
                0x10015d14                Task_setPriority
                0x10015958                Task_name
                0x10015d20                Task_priority
                0x10015908                Queue_receiveFromISR
                0x10015d58                Task_sleep
                0x10015924                RTOS_ticksSinceBoot
                0x100158cc                Queue_delete
                0x10015820                Task_yield
                0x100158fc                Queue_create
                0x100159c4                RTOS_iterateForNextTask
                0x10015bd0                RTOS_findTaskByName
                0x10015d4c                Task_enterCritical
                0x10015a9c                RTOS_findTask
                0x10015868                Queue_send
                0x1001583c                Queue_sendFromISR
                0x100159b8                Task_id
                0x10015a4c                RTOS_iterateByID
                0x10015ba4                RTOS_findTaskByID
                0x10015bfc                RTOS_getNextTaskControlBlock
                0x10015d64                Task_delete
                0x10015930                RTOS_topTaskPriority
                0x10015d70                Task_create
                0x1001593c                RTOS_numberOfTasks
                0x10015964                RTOS_iterateByName
                0x10015824                Semaphore_giveFromISR
                0x10015d2c                Task_remainingStack
 .glue_7        0x10015da0        0x0 ../../core/dynawa/rtos.o
 .glue_7t       0x10015da0        0x0 ../../core/dynawa/rtos.o
 .text          0x10015da0      0x290 ../../core/dynawa/usbserial.o
                0x10015e58                usbserial_onUsbData
                0x10015e90                UsbSerial_read
                0x10015da0                UsbSerial_isActive
                0x10015de0                UsbSerial_writeSlip
                0x10015db0                UsbSerial_write
                0x10015f38                UsbSerial_readSlip
                0x10016004                UsbSerial_init
 .glue_7        0x10016030        0x0 ../../core/dynawa/usbserial.o
 .glue_7t       0x10016030        0x0 ../../core/dynawa/usbserial.o
 .text          0x10016030      0x56c ../../core/dynawa/serial.o
                0x10016104                Serial_anyBytesAvailable
                0x10016064                Serial_parity
                0x10016030                Serial_baud
                0x100161ec                Serial_read
                0x100161bc                Serial_readChar
                0x10016228                Serial_readDMA
                0x100162a8                Serial_flush
                0x1001647c                Serial_setBaud
                0x1001609c                Serial_handshaking
                0x1001628c                Serial_bytesAvailable
                0x10016420                Serial_setParity
                0x1001611c                Serial_clearErrors
                0x100160b8                Serial_writeChar
                0x1001604c                Serial_dataBits
                0x100163ec                Serial_setStopBits
                0x10016450                Serial_setDataBits
                0x100160bc                Serial_writeDMA
                0x100163c8                Serial_setHandshaking
                0x100162c8                Serial_write
                0x1001649c                Serial_init
                0x10016080                Serial_stopBits
                0x10016194                Serial_startBreak
                0x1001613c                Serial_errors
                0x1001630c                Serial_setDetails
                0x100161a8                Serial_stopBreak
 .glue_7        0x1001659c        0x0 ../../core/dynawa/serial.o
 .glue_7t       0x1001659c        0x0 ../../core/dynawa/serial.o
 .text          0x1001659c       0xe8 ../../core/dynawa/main.o
                0x1001659c                kill
                0x10016674                MakeStarterTask
                0x100165bc                main
                0x100165ac                vApplicationIdleHook
 .glue_7        0x10016684        0x0 ../../core/dynawa/main.o
 .glue_7t       0x10016684        0x0 ../../core/dynawa/main.o
 .text          0x10016684      0x2b4 ../../core/dynawa/io.o
                0x1001682c                Io_initInterrupts
                0x100167c0                Io_init
                0x100166e8                Io_setValue
                0x1001676c                Io_setFilter
                0x10016748                Io_setPullup
                0x10016738                Io_pullup
                0x10016820                Io_removeInterruptHandler
                0x10016780                Io_setPeripheral
                0x100166d8                Io_value
                0x1001675c                Io_filter
                0x10016708                Io_off
                0x10016910                Io_new
                0x10016724                Io_setDirection
                0x10016684                Io_valid
                0x100166fc                Io_on
                0x100166c8                Io_pin
                0x10016714                Io_direction
                0x10016888                Io_addInterruptHandler
                0x10016694                Io_setPin
 .glue_7        0x10016938        0x0 ../../core/dynawa/io.o
 .glue_7t       0x10016938        0x0 ../../core/dynawa/io.o
 .text          0x10016938       0x60 ../../core/dynawa/led.o
                0x10016974                Led_init
                0x1001695c                Led_stateToggle
                0x10016944                Led_setState
                0x10016938                Led_state
 .glue_7        0x10016998        0x0 ../../core/dynawa/led.o
 .glue_7t       0x10016998        0x0 ../../core/dynawa/led.o
 .text          0x10016998      0x578 ../../core/dynawa/lua/lua.o
                0x100169fc                lua_main
                0x10016998                my_gets
                0x10016c58                lua_event_loop
 .glue_7        0x10016f10        0x0 ../../core/dynawa/lua/lua.o
 .glue_7t       0x10016f10        0x0 ../../core/dynawa/lua/lua.o
 .text          0x10016f10       0x28 ../../core/dynawa/lua/lua_isr.o
                0x10016f10                lua_timer_handler
 .glue_7        0x10016f38        0x0 ../../core/dynawa/lua/lua_isr.o
 .glue_7t       0x10016f38        0x0 ../../core/dynawa/lua/lua_isr.o
 .text          0x10016f38       0xe8 ../../core/dynawa/lua/lib_dynawa.o
                0x10016f38                luaopen_dynawa
 .glue_7        0x10017020        0x0 ../../core/dynawa/lua/lib_dynawa.o
 .glue_7t       0x10017020        0x0 ../../core/dynawa/lua/lib_dynawa.o
 .text          0x10017020       0xe4 ../../core/dynawa/lua/lib_dynawa_timer.o
                0x10017020                dynawa_timer_register
 .glue_7        0x10017104        0x0 ../../core/dynawa/lua/lib_dynawa_timer.o
 .glue_7t       0x10017104        0x0 ../../core/dynawa/lua/lib_dynawa_timer.o
 .text          0x10017104      0x4a0 ../../core/dynawa/lua/lib_dynawa_bitmap.o
                0x10017104                dynawa_bitmap_register
 .glue_7        0x100175a4        0x0 ../../core/dynawa/lua/lib_dynawa_bitmap.o
 .glue_7t       0x100175a4        0x0 ../../core/dynawa/lua/lib_dynawa_bitmap.o
 .text          0x100175a4       0x70 ../../core/dynawa/event.o
                0x100175e8                event_post
                0x100175a4                event_get
                0x100175c0                event_post_isr
                0x10017600                event_init
 .glue_7        0x10017614        0x0 ../../core/dynawa/event.o
 .glue_7t       0x10017614        0x0 ../../core/dynawa/event.o
 .text          0x10017614      0x340 ../../core/dynawa/timer.o
                0x1001763c                Timer_setHandler
                0x10017644                Timer_enable
                0x10017798                Timer_stop
                0x10017670                Timer_setTimeTarget
                0x10017658                Timer_getTimeTarget
                0x10017688                Timer_managerInit
                0x10017894                Timer_start
                0x1001772c                Timer_init
                0x10017614                Timer_closeStopped
                0x10017664                Timer_getTime
                0x10017768                Timer_setProcessingFlag
                0x10017748                Timer_managerDeinit
                0x10017864                Timer_close
 .glue_7        0x10017954        0x0 ../../core/dynawa/timer.o
 .glue_7t       0x10017954        0x0 ../../core/dynawa/timer.o
 .text          0x10017954      0xb7c ../../core/dynawa/bitmap.o
                0x10018050                bitmap_mask
                0x10017968                bitmap_check_bounds
                0x10017a18                bitmap_op_mask
                0x10017f88                bitmap_set_pixels
                0x10017b3c                bitmap_op_combine
                0x10018294                bitmap_copy
                0x10017960                bitmap_set_header
                0x10017954                bitmap_size
                0x10017d0c                bitmap_combine
                0x10017c50                bitmap_copy2
 .glue_7        0x100184d0        0x0 ../../core/dynawa/bitmap.o
 .glue_7t       0x100184d0        0x0 ../../core/dynawa/bitmap.o
 .text          0x100184d0      0x490 ../../core/sdcard/sdcard.o
                0x10018728                sd_info
                0x100185c8                sd_writesector
                0x10018508                sd_get_response
                0x100186f8                sd_read_n
                0x100184d0                sd_card_detect
                0x10018560                sd_command
                0x100184d4                sd_get_datatoken
                0x10018820                sd_init
                0x10018678                sd_readsector
                0x1001853c                sd_send_dummys
 .glue_7        0x10018960        0x0 ../../core/sdcard/sdcard.o
 .glue_7t       0x10018960        0x0 ../../core/sdcard/sdcard.o
 .text          0x10018960       0xa4 ../../core/dynawa/fat.o
                0x10018988                f_printerror
                0x10018960                f_ferrorlookup
                0x100189c0                get_fattime
 .glue_7        0x10018a04        0x0 ../../core/dynawa/fat.o
 .glue_7t       0x10018a04        0x0 ../../core/dynawa/fat.o
 .text          0x10018a04       0x70 ../../core/fatfs-0.07/src/option/ccsbcs.o
                0x10018a48                ff_wtoupper
                0x10018a04                ff_convert
 .glue_7        0x10018a74        0x0 ../../core/fatfs-0.07/src/option/ccsbcs.o
 .glue_7t       0x10018a74        0x0 ../../core/fatfs-0.07/src/option/ccsbcs.o
 .text          0x10018a74       0x9c ../../core/fatfs-0.07/src/diskio.o
                0x10018a74                disk_initialize
                0x10018a78                disk_status
                0x10018a7c                disk_ioctl
                0x10018a80                disk_write
                0x10018ab8                disk_read
 .glue_7        0x10018b10        0x0 ../../core/fatfs-0.07/src/diskio.o
 .glue_7t       0x10018b10        0x0 ../../core/fatfs-0.07/src/diskio.o
 .text          0x10018b10     0x2994 ../../core/fatfs-0.07/src/ff.o
                0x100195b4                get_fat
                0x1001ac84                f_rename
                0x1001a218                f_truncate
                0x10018b2c                gen_numname
                0x1001b0d0                f_unlink
                0x1001a55c                f_close
                0x1001a78c                f_read
                0x1001a2b4                f_readdir
                0x1001ae2c                f_chmod
                0x1001a4bc                f_sync
                0x1001a968                chk_mounted
                0x10018bf0                f_mkfs
                0x10018bc4                f_mount
                0x1001b2cc                f_opendir
                0x100194ac                put_fat
                0x1001a318                f_lseek
                0x1001b27c                f_stat
                0x10018b10                clust2sect
                0x1001adcc                f_utime
                0x1001a570                f_write
                0x1001b338                f_open
                0x1001ae90                f_mkdir
                0x1001b190                f_getfree
 .glue_7        0x1001b4a4        0x0 ../../core/fatfs-0.07/src/ff.o
 .glue_7t       0x1001b4a4        0x0 ../../core/fatfs-0.07/src/ff.o
 .text          0x1001b4a4      0x1d0 ../../core/monitor/args.o
                0x1001b4a4                argsParse
                0x1001b590                argsGetLine
 .glue_7        0x1001b674        0x0 ../../core/monitor/args.o
 .glue_7t       0x1001b674        0x0 ../../core/monitor/args.o
 .text          0x1001b674       0x94 ../../core/monitor/argsdispatch.o
                0x1001b674                argsDispatch
 .glue_7        0x1001b708        0x0 ../../core/monitor/argsdispatch.o
 .glue_7t       0x1001b708        0x0 ../../core/monitor/argsdispatch.o
 .text          0x1001b708      0xc74 ../../core/monitor/monitor.o
                0x1001b708                monitorTimevalSubtract
                0x1001c2e4                chmod
                0x1001b788                monitorTaskStart
                0x1001c364                sync
                0x1001c358                mkdir
 .glue_7        0x1001c37c        0x0 ../../core/monitor/monitor.o
 .glue_7t       0x1001c37c        0x0 ../../core/monitor/monitor.o
 .text          0x1001c37c       0xd0 ../../core/yabcsp/src/crc.o
                0x1001c3b8                abcsp_crc_reverse
                0x1001c384                abcsp_crc_update
                0x1001c40c                abcsp_crc_block
                0x1001c37c                abcsp_crc_init
 .glue_7        0x1001c44c        0x0 ../../core/yabcsp/src/crc.o
 .glue_7t       0x1001c44c        0x0 ../../core/yabcsp/src/crc.o
 .text          0x1001c44c       0x44 ../../core/yabcsp/src/init.o
                0x1001c460                abcsp_init
                0x1001c44c                abcsp_deinit
 .glue_7        0x1001c490        0x0 ../../core/yabcsp/src/init.o
 .glue_7t       0x1001c490        0x0 ../../core/yabcsp/src/init.o
 .text          0x1001c490      0x1d0 ../../core/yabcsp/src/le.o
                0x1001c624                abcsp_bcsple_putmsg
                0x1001c4ec                abcsp_bcsple_init
                0x1001c60c                abcsp_tconf_timed_event
                0x1001c4d8                abcsp_bcsple_deinit
                0x1001c618                abcsp_tshy_timed_event
 .glue_7        0x1001c660        0x0 ../../core/yabcsp/src/le.o
 .glue_7t       0x1001c660        0x0 ../../core/yabcsp/src/le.o
 .text          0x1001c660      0x374 ../../core/yabcsp/src/rx.o
                0x1001c674                abcsp_uart_deliverbytes
                0x1001c660                abcsp_uart_init
 .glue_7        0x1001c9d4        0x0 ../../core/yabcsp/src/rx.o
 .glue_7t       0x1001c9d4        0x0 ../../core/yabcsp/src/rx.o
 .text          0x1001c9d4      0x4ec ../../core/yabcsp/src/txmsg.o
                0x1001ca7c                abcsp_pumptxmsgs
                0x1001ca00                abcsp_bcsp_timed_event
                0x1001ce34                abcsp_sendmsg
                0x1001c9d4                abcsp_txmsg_init
                0x1001ca30                abcsp_txmsg_deinit
 .glue_7        0x1001cec0        0x0 ../../core/yabcsp/src/txmsg.o
 .glue_7t       0x1001cec0        0x0 ../../core/yabcsp/src/txmsg.o
 .text          0x1001cec0      0x168 ../../core/yabcsp/src/txslip.o
                0x1001cec0                abcsp_txslip_init
                0x1001cecc                abcsp_txslip_msgdelim
                0x1001cf1c                abcsp_txslip_sendbuf
                0x1001cf00                abcsp_txslip_flush
 .glue_7        0x1001d028        0x0 ../../core/yabcsp/src/txslip.o
 .glue_7t       0x1001d028        0x0 ../../core/yabcsp/src/txslip.o
 .text          0x1001d028      0x5a0 ../../core/dynawa/bcsp/main.o
                0x1001d230                queueMessage
                0x1001d4cc                phybusif_output
                0x1001d450                BgIntPump
                0x1001d04c                bcsp_main
 .glue_7        0x1001d5c8        0x0 ../../core/dynawa/bcsp/main.o
 .glue_7t       0x1001d5c8        0x0 ../../core/dynawa/bcsp/main.o
 .text          0x1001d5c8      0x698 ../../core/dynawa/bcsp/abcsp_support_functions.o
                0x1001d7f4                abcsp_start_bcsp_timer
                0x1001d720                abcsp_cancel_tconf_timer
                0x1001d7c0                abcsp_start_tshy_timer
                0x1001d68c                abcsp_txmsg_done
                0x1001d78c                abcsp_start_tconf_timer
                0x1001d614                abcsp_txmsg_length
                0x1001d768                abcsp_cancel_bcsp_timer
                0x1001d5e4                abcsp_txmsg_getbuf
                0x1001d99c                abcsp_delivermsg
                0x1001d644                abcsp_rxmsg_complete
                0x1001d91c                buf2pbuf
                0x1001d6cc                abcsp_uart_sendbytes
                0x1001d5c8                abcsp_txmsg_taken
                0x1001d670                abcsp_rxmsg_getbuf
                0x1001d708                abcsp_panic
                0x1001d744                abcsp_cancel_tshy_timer
                0x1001d62c                abcsp_txmsg_init_read
                0x1001d894                abcsp_req_pumptxmsgs
                0x1001d6ac                abcsp_rxmsg_destroy
                0x1001d8f0                abcsp_rxmsg_create
                0x1001d8a8                abcsp_event
                0x1001d654                abcsp_rxmsg_write
 .glue_7        0x1001dc60        0x0 ../../core/dynawa/bcsp/abcsp_support_functions.o
 .glue_7t       0x1001dc60        0x0 ../../core/dynawa/bcsp/abcsp_support_functions.o
 .text          0x1001dc60      0x460 ../../core/dynawa/bcsp/uSched.o
                0x1001de14                InitMicroSched
                0x1001dd7c                bg_int1
                0x1001ddd8                StopTimer
                0x1001dd20                bg_int2
                0x1001de70                GetTime
                0x1001de88                MicroSched
                0x1001dc7c                ScheduleTaskToRun
                0x1001dc60                TerminateMicroSched
                0x1001e040                register_bg_int
                0x1001dfdc                StartTimer
 .glue_7        0x1001e0c0        0x0 ../../core/dynawa/bcsp/uSched.o
 .glue_7t       0x1001e0c0        0x0 ../../core/dynawa/bcsp/uSched.o
 .text          0x1001e0c0      0x870 ../../core/dynawa/bcsp/SerialCom.o
                0x1001e1b0                UartDrv_GetTxSpace
                0x1001e174                UartDrv_GetRxAvailable
                0x1001e2cc                handleRxData
                0x1001e7dc                txThreadFunc
                0x1001e0d4                UartDrv_Configure
                0x1001e0f4                clearBuffer
                0x1001e494                UartDrv_Start
                0x1001e14c                UartDrv_RegisterHandlers
                0x1001e340                errorHandler
                0x1001e590                rxThreadFunc_old
                0x1001e6b0                rxThreadFunc
                0x1001e0c0                setComDefault
                0x1001e138                UartDrv_Reset
                0x1001e1f8                UartDrv_Rx
                0x1001e0c4                UartDrv_Stop
                0x1001e368                UartDrv_Tx
 .glue_7        0x1001e930        0x0 ../../core/dynawa/bcsp/SerialCom.o
 .glue_7t       0x1001e930        0x0 ../../core/dynawa/bcsp/SerialCom.o
 .text          0x1001e930       0x54 ../../core/peripherals/serial.o
                0x1001e964                dbg_usart_putchar
                0x1001e930                dbg_usart_init
 .glue_7        0x1001e984        0x0 ../../core/peripherals/serial.o
 .glue_7t       0x1001e984        0x0 ../../core/peripherals/serial.o
 .text          0x1001e984       0x38 ../../core/peripherals/oled/oled.o
                0x1001e984                oledWriteCommand
                0x1001e99c                oledWrite
                0x1001e9b8                oledScreen
 .glue_7        0x1001e9bc        0x0 ../../core/peripherals/oled/oled.o
 .glue_7t       0x1001e9bc        0x0 ../../core/peripherals/oled/oled.o
 .text          0x1001e9bc       0xa8 ../../core/peripherals/spi.o
                0x1001e9bc                spi_init
                0x1001ea10                spi_byte
 .glue_7        0x1001ea64        0x0 ../../core/peripherals/spi.o
 .glue_7t       0x1001ea64        0x0 ../../core/peripherals/spi.o
 .text          0x1001ea64      0x120 ../../core/peripherals/pmc/pmc.o
                0x1001ea64                PMC_DisableProcessorClock
                0x1001eb4c                PMC_EnablePeripheral
                0x1001eb14                PMC_DisablePeripheral
                0x1001ea78                PMC_IsAllPeriphEnabled
                0x1001eab8                PMC_DisableAllPeripherals
                0x1001ea90                PMC_IsPeriphEnabled
                0x1001eae4                PMC_EnableAllPeripherals
                0x1001eaa4                PMC_CPUInIdleMode
 .glue_7        0x1001eb84        0x0 ../../core/peripherals/pmc/pmc.o
 .glue_7t       0x1001eb84        0x0 ../../core/peripherals/pmc/pmc.o
 .text          0x1001eb84      0x164 ../../core/peripherals/usart/usart.o
                0x1001ebac                USART_SetTransmitterEnabled
                0x1001ec4c                USART_Read
                0x1001ec3c                USART_IsDataAvailable
                0x1001eb84                USART_Configure
                0x1001ec44                USART_SetIrdaFilter
                0x1001ec98                USART_Write
                0x1001ebbc                USART_SetReceiverEnabled
                0x1001ebcc                USART_WriteBuffer
                0x1001ec04                USART_ReadBuffer
 .glue_7        0x1001ece8        0x0 ../../core/peripherals/usart/usart.o
 .glue_7t       0x1001ece8        0x0 ../../core/peripherals/usart/usart.o
 .text          0x1001ece8       0x44 ../../core/peripherals/aic/aic.o
                0x1001ed1c                AIC_DisableIT
                0x1001ed0c                AIC_EnableIT
                0x1001ece8                AIC_ConfigureIT
 .glue_7        0x1001ed2c        0x0 ../../core/peripherals/aic/aic.o
 .glue_7t       0x1001ed2c        0x0 ../../core/peripherals/aic/aic.o
 .text          0x1001ed2c      0x104 ../../core/peripherals/pio/pio.o
                0x1001edf8                PIO_Get
                0x1001ed2c                PIO_Configure
                0x1001edf0                PIO_Clear
                0x1001ee18                PIO_GetOutputDataStatus
                0x1001ede8                PIO_Set
                0x1001ee28                PIO_GetISR
 .glue_7        0x1001ee30        0x0 ../../core/peripherals/pio/pio.o
 .glue_7t       0x1001ee30        0x0 ../../core/peripherals/pio/pio.o
 .text          0x1001ee30       0x8c ../../core/peripherals/rtc.o
                0x1001ee68                rtc_set
                0x1001ee30                rtc_get
 .glue_7        0x1001eebc        0x0 ../../core/peripherals/rtc.o
 .glue_7t       0x1001eebc        0x0 ../../core/peripherals/rtc.o
 .text          0x1001eebc      0x1f4 ../../core/peripherals/i2c.o
                0x1001f06c                i2cMasterWrite
                0x1001ef80                i2cMultipleWriteByteInit
                0x1001efb4                i2cMultipleWriteEnd
                0x1001f03c                i2cMultipleReadByteEnd
                0x1001eebc                i2cMasterConf
                0x1001f01c                i2cMultipleReadByteRead
                0x1001efcc                i2cReadByte
                0x1001ef94                i2cMultipleWriteByte
                0x1001effc                i2cMultipleReadByteStart
                0x1001ef50                i2cWriteByte
 .glue_7        0x1001f0b0        0x0 ../../core/peripherals/i2c.o
 .glue_7t       0x1001f0b0        0x0 ../../core/peripherals/i2c.o
 .text          0x1001f0b0      0x104 ../../core/peripherals/accel.o
                0x1001f110                spiAccelWrite8
                0x1001f180                accel_read
                0x1001f0b0                spiAccelRead16
                0x1001f14c                accel_start
 .glue_7        0x1001f1b4        0x0 ../../core/peripherals/accel.o
 .glue_7t       0x1001f1b4        0x0 ../../core/peripherals/accel.o
 .text          0x1001f1b4       0x34 ../../core/peripherals/gasgauge.o
                0x1001f1b4                gasgauge_init
 .glue_7        0x1001f1e8        0x0 ../../core/peripherals/gasgauge.o
 .glue_7t       0x1001f1e8        0x0 ../../core/peripherals/gasgauge.o
 .text          0x1001f1e8       0x64 ../../core/peripherals/amblightsensor.o
                0x1001f220                ambLightADC
                0x1001f1e8                ADCinit
 .glue_7        0x1001f24c        0x0 ../../core/peripherals/amblightsensor.o
 .glue_7t       0x1001f24c        0x0 ../../core/peripherals/amblightsensor.o
 .text          0x1001f24c       0xc0 ../../core/peripherals/ledrgb.o
                0x1001f2bc                ledrgb_set
                0x1001f26c                ledrgb_open
                0x1001f24c                ledrgb_close
 .glue_7        0x1001f30c        0x0 ../../core/peripherals/ledrgb.o
 .glue_7t       0x1001f30c        0x0 ../../core/peripherals/ledrgb.o
 .text          0x1001f30c      0x3ac ../../core/lua-5.1.4/src/lnum.o
                0x1001f68c                luaO_num2buf
                0x1001f494                try_modint
                0x1001f33c                try_addint
                0x1001f558                luaO_str2d
                0x1001f364                try_subint
                0x1001f544                try_unmint
                0x1001f410                try_divint
                0x1001f4dc                try_powint
                0x1001f388                try_mulint
                0x1001f30c                tt_integer_valued
 .glue_7        0x1001f6b8        0x0 ../../core/lua-5.1.4/src/lnum.o
 .glue_7t       0x1001f6b8        0x0 ../../core/lua-5.1.4/src/lnum.o
 .text          0x1001f6b8      0x178 ../../core/lwalkera-lwBT-f64e170/lwbt/fcs.o
                0x1001f700                fcs8_crc_check
                0x1001f7a8                fcs16_crc
                0x1001f81c                fcs16_crc_calc
                0x1001f800                fcs16_crc_check
                0x1001f6b8                fcs8_crc
                0x1001f75c                fcs8_crc_calc
 .glue_7        0x1001f830        0x0 ../../core/lwalkera-lwBT-f64e170/lwbt/fcs.o
 .glue_7t       0x1001f830        0x0 ../../core/lwalkera-lwBT-f64e170/lwbt/fcs.o
 .text          0x1001f830     0x16e8 ../../core/lwalkera-lwBT-f64e170/lwbt/hci.o
                0x1001f830                hci_arg
                0x1001ff54                hci_write_link_policy_settings
                0x1001ff10                hci_reset
                0x1002042c                hci_inquiry
                0x10020624                hci_init
                0x1001fbf0                lp_write_flush_timeout
                0x10020e74                hci_acl_input
                0x1002010c                hci_write_cod
                0x10020508                hci_new
                0x100204b8                hci_close
                0x1001fcb4                hci_read_local_features
                0x1002009c                hci_disconnect
                0x1001fdb4                hci_host_buffer_size
                0x1001f86c                hci_wlp_complete
                0x1001fe74                hci_write_scan_enable
                0x10020224                hci_set_event_filter
                0x10020160                hci_change_local_name
                0x100201bc                hci_write_stored_link_key
                0x1001fae8                lp_acl_write
                0x1001f83c                hci_cmd_complete
                0x1001f9f0                hci_cmd_ass
                0x100206b8                hci_event_input
                0x100203b4                hci_pin_code_request_reply
                0x1001ffcc                hci_sniff_mode
                0x1001f854                hci_link_key_not
                0x100202e4                hci_pin_code_request_neg_reply
                0x1001fec0                hci_write_page_timeout
                0x1001fd3c                hci_host_num_comp_packets
                0x1001f860                hci_connection_complete
                0x10020338                hci_reject_connection_request
                0x1001f848                hci_pin_req
                0x1001fe2c                hci_set_hc_to_h_fc
                0x1001fcf8                hci_read_buffer_size
                0x1001fc68                hci_read_bd_addr
                0x1001fad8                lp_is_connected
                0x1001fa40                hci_get_link
                0x10020534                lp_connect_req
                0x1001f878                hci_get_error_code
                0x1002066c                hci_reset_all
                0x1001f9e4                lp_pdu_maxsize
 .glue_7        0x10020f18        0x0 ../../core/lwalkera-lwBT-f64e170/lwbt/hci.o
 .glue_7t       0x10020f18        0x0 ../../core/lwalkera-lwBT-f64e170/lwbt/hci.o
 .text          0x10020f18     0x1938 ../../core/lwalkera-lwBT-f64e170/lwbt/l2cap.o
                0x10020f78                l2cap_disconnect_ind
                0x10021518                lp_connect_cfm
                0x10021318                l2ca_datawrite
                0x100219ec                l2cap_process_sig
                0x10020f94                l2cap_connect_ind
                0x10021660                l2ca_disconnect_req
                0x10020f18                l2cap_init
                0x100216d8                l2cap_tmr
                0x10021134                lp_disconnect_ind
                0x100211a8                l2cap_new
                0x10020f74                l2cap_arg
                0x100218ec                l2ca_connect_req
                0x10020f84                lp_connect_ind
                0x10020fe4                l2cap_close
                0x10020f7c                l2cap_timeout_ind
                0x10021818                l2ca_config_req
                0x1002257c                l2cap_input
                0x10020f54                l2cap_next_sigid
                0x10020f80                l2cap_recv
                0x100213c4                l2cap_rexmit_signal
                0x100213d8                l2cap_signal
                0x1002108c                l2cap_reset_all
                0x10021600                l2ca_ping
                0x100211f8                l2cap_write
 .glue_7        0x10022850        0x0 ../../core/lwalkera-lwBT-f64e170/lwbt/l2cap.o
 .glue_7t       0x10022850        0x0 ../../core/lwalkera-lwBT-f64e170/lwbt/l2cap.o
 .text          0x10022850       0xc4 ../../core/lwalkera-lwBT-f64e170/lwbt/lwbt_memp.o
                0x10022850                lwbt_memp_init
                0x100228bc                lwbt_memp_free
                0x100228d4                lwbt_memp_malloc
 .glue_7        0x10022914        0x0 ../../core/lwalkera-lwBT-f64e170/lwbt/lwbt_memp.o
 .glue_7t       0x10022914        0x0 ../../core/lwalkera-lwBT-f64e170/lwbt/lwbt_memp.o
 .text          0x10022914     0x1318 ../../core/lwalkera-lwBT-f64e170/lwbt/rfcomm.o
                0x10022a98                rfcomm_lp_disconnected
                0x10022f8c                rfcomm_rpn
                0x10022938                rfcomm_disc
                0x10022cf8                rfcomm_uih_credits
                0x10022914                rfcomm_init
                0x10022934                rfcomm_recv
                0x10022a60                rfcomm_get_active_pcb
                0x10022aec                rfcomm_tmr
                0x10022c64                rfcomm_disconnect
                0x10023778                rfcomm_input
                0x100231bc                rfcomm_new
                0x100230b4                rfcomm_test
                0x10022a1c                rfcomm_reset_all
                0x10022930                rfcomm_arg
                0x10022e4c                rfcomm_uih
                0x1002298c                rfcomm_close
                0x1002293c                rfcomm_listen
                0x100232d8                rfcomm_process_msg
                0x10023120                rfcomm_pn
                0x10023024                rfcomm_msc
                0x100231f8                rfcomm_connect
 .glue_7        0x10023c2c        0x0 ../../core/lwalkera-lwBT-f64e170/lwbt/rfcomm.o
 .glue_7t       0x10023c2c        0x0 ../../core/lwalkera-lwBT-f64e170/lwbt/rfcomm.o
 .text          0x10023c2c      0xfd0 ../../core/lwalkera-lwBT-f64e170/lwbt/sdp.o
                0x10023c2c                sdp_init
                0x10024a94                sdp_lp_disconnected
                0x100240e4                sdp_service_attrib_req
                0x10023e70                sdp_service_search_req
                0x10023ce8                sdp_arg
                0x10024a84                sdp_free
                0x10024394                sdp_service_search_attrib_rsp
                0x1002457c                sdp_service_attrib_rsp
                0x10023c78                sdp_register_service
                0x10024b9c                sdp_record_new
                0x10024adc                sdp_reset_all
                0x100246c4                sdp_recv
                0x10023c58                sdp_next_rhdl
                0x10024acc                sdp_record_free
                0x10023cd4                sdp_next_transid
                0x100241d0                sdp_attribute_search
                0x10023cec                sdp_pattern_search
                0x10023da0                sdp_service_search_attrib_req
                0x10023f34                sdp_service_search_rsp
                0x10024bd8                sdp_new
                0x10023c94                sdp_unregister_service
 .glue_7        0x10024bfc        0x0 ../../core/lwalkera-lwBT-f64e170/lwbt/sdp.o
 .glue_7t       0x10024bfc        0x0 ../../core/lwalkera-lwBT-f64e170/lwbt/sdp.o
 .text          0x10024bfc       0x60 ../../core/lwalkera-lwBT-f64e170/lwip/inet.o
                0x10024c3c                ntohl
                0x10024c1c                htonl
                0x10024c0c                ntohs
                0x10024bfc                htons
 .glue_7        0x10024c5c        0x0 ../../core/lwalkera-lwBT-f64e170/lwip/inet.o
 .glue_7t       0x10024c5c        0x0 ../../core/lwalkera-lwBT-f64e170/lwip/inet.o
 .text          0x10024c5c      0x138 ../../core/lwalkera-lwBT-f64e170/lwip/memp.o
                0x10024ce4                memp_free
                0x10024d24                memp_malloc
                0x10024c5c                memp_init
 .glue_7        0x10024d94        0x0 ../../core/lwalkera-lwBT-f64e170/lwip/memp.o
 .glue_7t       0x10024d94        0x0 ../../core/lwalkera-lwBT-f64e170/lwip/memp.o
 .text          0x10024d94      0x5d4 ../../core/lwalkera-lwBT-f64e170/lwip/pbuf.o
                0x10025140                pbuf_realloc
                0x10025064                pbuf_free
                0x10024fe4                pbuf_cat
                0x10024da8                pbuf_ref
                0x10024e4c                pbuf_copy_partial
                0x10024ee8                pbuf_copy
                0x100251bc                pbuf_alloc
                0x10024d94                pbuf_clen
                0x10024db4                pbuf_header
                0x1002504c                pbuf_chain
                0x100250e4                pbuf_dechain
 .glue_7        0x10025368        0x0 ../../core/lwalkera-lwBT-f64e170/lwip/pbuf.o
 .glue_7t       0x10025368        0x0 ../../core/lwalkera-lwBT-f64e170/lwip/pbuf.o
 .text          0x10025368        0x0 ../../core/lwalkera-lwBT-f64e170/lwip/stats.o
 .glue_7        0x10025368        0x0 ../../core/lwalkera-lwBT-f64e170/lwip/stats.o
 .glue_7t       0x10025368        0x0 ../../core/lwalkera-lwBT-f64e170/lwip/stats.o
 .text          0x10025368      0x984 ../../core/lwalkera-lwBT-f64e170/bt_spp.o
                0x10025694                bt_connect_ind
                0x10025370                acl_conn_complete
                0x100256f0                rfcomm_disconnected
                0x10025ab8                l2cap_connected
                0x100258ac                rfcomm_accept
                0x10025710                get_rfcomm_cn
                0x10025bd8                sdp_attributes_recv
                0x10025374                read_bdaddr_complete
                0x100255d0                acl_wpl_complete
                0x100253d0                command_complete
                0x100255ec                inquiry_complete
                0x10025c50                rfcomm_connected
                0x1002536c                at_input
                0x10025a60                bt_spp_start
                0x100256d4                l2cap_disconnected_cfm
                0x10025368                bt_spp_tmr
                0x10025780                pin_req
                0x1002575c                link_key_not
                0x100258e4                spp_recv
                0x100257b8                bt_spp_init
                0x10025c98                l2cap_disconnected_ind
 .glue_7        0x10025cec        0x0 ../../core/lwalkera-lwBT-f64e170/bt_spp.o
 .glue_7t       0x10025cec        0x0 ../../core/lwalkera-lwBT-f64e170/bt_spp.o
 .text          0x10025cec      0x308 ../../libraries/zlib-1.2.3/adler32.o
                0x10025cec                adler32
                0x10025f78                adler32_combine
 .glue_7        0x10025ff4        0x0 ../../libraries/zlib-1.2.3/adler32.o
 .glue_7t       0x10025ff4        0x0 ../../libraries/zlib-1.2.3/adler32.o
 .text          0x10025ff4       0x8c ../../libraries/zlib-1.2.3/compress.o
                0x10026004                compress2
                0x10025ff4                compressBound
                0x10026068                compress
 .glue_7        0x10026080        0x0 ../../libraries/zlib-1.2.3/compress.o
 .glue_7t       0x10026080        0x0 ../../libraries/zlib-1.2.3/compress.o
 .text          0x10026080      0x744 ../../libraries/zlib-1.2.3/crc32.o
                0x10026088                crc32
                0x100266a0                crc32_combine
                0x10026080                get_crc_table
 .glue_7        0x100267c4        0x0 ../../libraries/zlib-1.2.3/crc32.o
 .glue_7t       0x100267c4        0x0 ../../libraries/zlib-1.2.3/crc32.o
 .text          0x100267c4      0xc5c ../../libraries/zlib-1.2.3/gzio.o
                0x10026bf8                gzflush
                0x100267c4                gzungetc
                0x100271a0                gzgetc
                0x10027410                gzopen
                0x10026868                gzerror
                0x10026830                gzdirect
                0x100271c4                gzsetparams
                0x10027148                gztell
                0x10026848                gzclearerr
                0x10027014                gzseek
                0x10026e30                gzread
                0x10026b5c                gzputs
                0x100273dc                gzdopen
                0x10026a3c                gzclose
                0x10026ac8                gzwrite
                0x10026b78                gzputc
                0x10026808                gzeof
                0x10027158                gzgets
                0x10026ba0                gzrewind
                0x10026c1c                gzprintf
 .glue_7        0x10027420        0x0 ../../libraries/zlib-1.2.3/gzio.o
 .glue_7t       0x10027420        0x0 ../../libraries/zlib-1.2.3/gzio.o
 .text          0x10027420       0x6c ../../libraries/zlib-1.2.3/uncompr.o
                0x10027420                uncompress
 .glue_7        0x1002748c        0x0 ../../libraries/zlib-1.2.3/uncompr.o
 .glue_7t       0x1002748c        0x0 ../../libraries/zlib-1.2.3/uncompr.o
 .text          0x1002748c     0x16bc ../../libraries/zlib-1.2.3/deflate.o
                0x10027b08                deflate
                0x100274d4                deflateTune
                0x1002748c                deflateSetHeader
                0x10027a50                deflateSetDictionary
                0x10028864                deflateBound
                0x10028b24                deflateInit_
                0x10028970                deflateInit2_
                0x1002889c                deflateReset
                0x100274a8                deflatePrime
                0x100277a4                deflateCopy
                0x10028118                deflateParams
                0x10027504                deflateEnd
 .glue_7        0x10028b48        0x0 ../../libraries/zlib-1.2.3/deflate.o
 .glue_7t       0x10028b48        0x0 ../../libraries/zlib-1.2.3/deflate.o
 .text          0x10028b48     0x14b0 ../../libraries/zlib-1.2.3/trees.o
                0x10029bc0                _tr_flush_block
                0x10029508                _tr_stored_block
                0x10028b48                _tr_init
                0x10029828                _tr_tally
                0x10029604                _tr_align
 .glue_7        0x10029ff8        0x0 ../../libraries/zlib-1.2.3/trees.o
 .glue_7t       0x10029ff8        0x0 ../../libraries/zlib-1.2.3/trees.o
 .text          0x10029ff8       0x38 ../../libraries/zlib-1.2.3/zutil.o
                0x10029ff8                zlibVersion
                0x1002a000                zlibCompileFlags
                0x1002a014                zcfree
                0x1002a004                zError
                0x1002a020                zcalloc
 .glue_7        0x1002a030        0x0 ../../libraries/zlib-1.2.3/zutil.o
 .glue_7t       0x1002a030        0x0 ../../libraries/zlib-1.2.3/zutil.o
 .text          0x1002a030     0x12e8 ../../libraries/zlib-1.2.3/inflate.o
                0x1002a2f8                inflateCopy
                0x1002a518                inflate
                0x1002a2cc                inflateSyncPoint
                0x1002a1a8                inflateGetHeader
                0x1002a158                inflateInit_
                0x1002a078                inflatePrime
                0x1002a030                inflateReset
                0x1002a1c8                inflateSync
                0x1002a48c                inflateSetDictionary
                0x1002a16c                inflateEnd
                0x1002a0b4                inflateInit2_
 .glue_7        0x1002b318        0x0 ../../libraries/zlib-1.2.3/inflate.o
 .glue_7t       0x1002b318        0x0 ../../libraries/zlib-1.2.3/inflate.o
 .text          0x1002b318      0x970 ../../libraries/zlib-1.2.3/infback.o
                0x1002b318                inflateBackInit_
                0x1002b3d0                inflateBack
                0x1002b3a4                inflateBackEnd
 .glue_7        0x1002bc88        0x0 ../../libraries/zlib-1.2.3/infback.o
 .glue_7t       0x1002bc88        0x0 ../../libraries/zlib-1.2.3/infback.o
 .text          0x1002bc88      0x394 ../../libraries/zlib-1.2.3/inftrees.o
                0x1002bc88                inflate_table
 .glue_7        0x1002c01c        0x0 ../../libraries/zlib-1.2.3/inftrees.o
 .glue_7t       0x1002c01c        0x0 ../../libraries/zlib-1.2.3/inftrees.o
 .text          0x1002c01c      0x3ec ../../libraries/zlib-1.2.3/inffast.o
                0x1002c01c                inflate_fast
 .glue_7        0x1002c408        0x0 ../../libraries/zlib-1.2.3/inffast.o
 .glue_7t       0x1002c408        0x0 ../../libraries/zlib-1.2.3/inffast.o
 .text          0x1002c408      0x9b8 ../../libraries/libpng-1.4.0/png.o
                0x1002c428                png_get_header_ver
                0x1002c948                png_zfree
                0x1002c440                png_64bit_product
                0x1002c864                png_zalloc
                0x1002c420                png_get_libpng_ver
                0x1002c818                png_sig_cmp
                0x1002c78c                png_set_sig_bytes
                0x1002ccbc                png_info_destroy
                0x1002c408                png_get_io_ptr
                0x1002c8b4                png_convert_to_rfc1123
                0x1002c47c                png_check_cHRM_fixed
                0x1002c7d0                png_handle_as_unknown
                0x1002c438                png_access_version_number
                0x1002cc8c                png_info_init_3
                0x1002c418                png_get_copyright
                0x1002c430                png_get_header_version
                0x1002c7b8                png_reset_zstream
                0x1002c5bc                png_check_IHDR
                0x1002cd6c                png_calculate_crc
                0x1002cda8                png_reset_crc
                0x1002cd38                png_create_info_struct
                0x1002cd00                png_destroy_info_struct
                0x1002c954                png_free_data
                0x1002c580                png_data_freer
                0x1002c410                png_init_io
 .glue_7        0x1002cdc0        0x0 ../../libraries/libpng-1.4.0/png.o
 .glue_7t       0x1002cdc0        0x0 ../../libraries/libpng-1.4.0/png.o
 .text          0x1002cdc0      0x1a8 ../../libraries/libpng-1.4.0/pngerror.o
                0x1002cef0                png_error
                0x1002ce68                png_warning
                0x1002cdc0                png_set_longjmp_fn
                0x1002cec4                png_chunk_warning
                0x1002cddc                png_get_error_ptr
                0x1002cf3c                png_chunk_error
                0x1002cdd0                png_set_error_fn
 .glue_7        0x1002cf68        0x0 ../../libraries/libpng-1.4.0/pngerror.o
 .glue_7t       0x1002cf68        0x0 ../../libraries/libpng-1.4.0/pngerror.o
 .text          0x1002cf68      0x7c8 ../../libraries/libpng-1.4.0/pngget.o
                0x1002d548                png_get_sBIT
                0x1002d23c                png_get_cHRM_fixed
                0x1002d154                png_get_bKGD
                0x1002d3b0                png_get_hIST
                0x1002cff0                png_get_interlace_type
                0x1002d0f0                png_get_x_offset_pixels
                0x1002d390                png_get_sPLT
                0x1002cf7c                png_get_rowbytes
                0x1002d340                png_get_iCCP
                0x1002d648                png_get_rgb_to_gray_status
                0x1002d684                png_get_chunk_cache_max
                0x1002cfe0                png_get_filter_type
                0x1002d5a0                png_get_tIME
                0x1002d0d0                png_get_y_offset_microns
                0x1002d6a8                png_get_io_chunk_name
                0x1002cfb0                png_get_image_height
                0x1002d410                png_get_pCAL
                0x1002cfa0                png_get_image_width
                0x1002d010                png_get_x_pixels_per_meter
                0x1002d31c                png_get_sRGB
                0x1002d130                png_get_channels
                0x1002d66c                png_get_user_width_max
                0x1002d2cc                png_get_gAMA
                0x1002d110                png_get_y_offset_pixels
                0x1002d660                png_get_compression_buffer_size
                0x1002cf68                png_get_valid
                0x1002d000                png_get_compression_type
                0x1002d0b0                png_get_x_offset_microns
                0x1002cf8c                png_get_rows
                0x1002d3d0                png_get_oFFs
                0x1002cfc0                png_get_bit_depth
                0x1002d678                png_get_user_height_max
                0x1002cfd0                png_get_color_type
                0x1002d51c                png_get_PLTE
                0x1002d050                png_get_pixels_per_meter
                0x1002d6b0                png_get_IHDR
                0x1002d2f8                png_get_gAMA_fixed
                0x1002d140                png_get_signature
                0x1002d6a0                png_get_io_state
                0x1002d568                png_get_text
                0x1002d490                png_get_sCAL
                0x1002d174                png_get_cHRM
                0x1002d5c4                png_get_tRNS
                0x1002d4d4                png_get_pHYs
                0x1002d030                png_get_y_pixels_per_meter
                0x1002d628                png_get_unknown_chunks
                0x1002d074                png_get_pixel_aspect_ratio
                0x1002d654                png_get_user_chunk_ptr
 .glue_7        0x1002d730        0x0 ../../libraries/libpng-1.4.0/pngget.o
 .glue_7t       0x1002d730        0x0 ../../libraries/libpng-1.4.0/pngget.o
 .text          0x1002d730      0x1b0 ../../libraries/libpng-1.4.0/pngmem.o
                0x1002d7c8                png_destroy_struct
                0x1002d730                png_set_mem_fn
                0x1002d75c                png_free_default
                0x1002d878                png_create_struct_2
                0x1002d7f0                png_malloc
                0x1002d8cc                png_create_struct
                0x1002d858                png_calloc
                0x1002d794                png_destroy_struct_2
                0x1002d770                png_free
                0x1002d750                png_get_mem_ptr
                0x1002d838                png_malloc_warn
                0x1002d7d8                png_malloc_default
 .glue_7        0x1002d8e0        0x0 ../../libraries/libpng-1.4.0/pngmem.o
 .glue_7t       0x1002d8e0        0x0 ../../libraries/libpng-1.4.0/pngmem.o
 .text          0x1002d8e0     0x17c4 ../../libraries/libpng-1.4.0/pngpread.o
                0x1002d96c                png_set_progressive_read_fn
                0x1002ef74                png_push_read_sig
                0x1002dd48                png_read_push_finish_row
                0x1002d940                png_push_have_row
                0x1002e894                png_push_read_tEXt
                0x1002d92c                png_push_have_end
                0x1002f054                png_process_data
                0x1002dc10                png_push_handle_tEXt
                0x1002d964                png_get_progressive_ptr
                0x1002de60                png_push_process_row
                0x1002e184                png_process_IDAT_data
                0x1002d8f0                png_push_restore_buffer
                0x1002f000                png_process_some_data
                0x1002d9c0                png_push_fill_buffer
                0x1002da5c                png_push_handle_unknown
                0x1002d918                png_push_have_info
                0x1002e288                png_push_read_IDAT
                0x1002db68                png_push_handle_iTXt
                0x1002e974                png_push_read_chunk
                0x1002e4fc                png_push_read_iTXt
                0x1002d8e0                png_push_crc_skip
                0x1002dc64                png_push_save_buffer
                0x1002e61c                png_push_read_zTXt
                0x1002d99c                png_progressive_combine_row
                0x1002e428                png_push_crc_finish
                0x1002dbbc                png_push_handle_zTXt
 .glue_7        0x1002f0a4        0x0 ../../libraries/libpng-1.4.0/pngpread.o
 .glue_7t       0x1002f0a4        0x0 ../../libraries/libpng-1.4.0/pngpread.o
 .text          0x1002f0a4     0x1238 ../../libraries/libpng-1.4.0/pngread.o
                0x1002f0b0                png_read_destroy
                0x1002f0a4                png_set_read_status_fn
                0x100302c0                png_create_read_struct
                0x1002ff00                png_read_png
                0x1002f684                png_start_read_image
                0x1002fb08                png_read_info
                0x1002f2a8                png_destroy_read_struct
                0x1002fad4                png_read_update_info
                0x1002fa0c                png_read_image
                0x1002f69c                png_read_row
                0x10030074                png_create_read_struct_2
                0x1002fa5c                png_read_rows
                0x1002f34c                png_read_end
 .glue_7        0x100302dc        0x0 ../../libraries/libpng-1.4.0/pngread.o
 .glue_7t       0x100302dc        0x0 ../../libraries/libpng-1.4.0/pngread.o
 .text          0x100302dc       0x98 ../../libraries/libpng-1.4.0/pngrio.o
                0x100302dc                png_set_read_fn
                0x10030354                png_read_data
                0x10030328                png_default_read_data
 .glue_7        0x10030374        0x0 ../../libraries/libpng-1.4.0/pngrio.o
 .glue_7t       0x10030374        0x0 ../../libraries/libpng-1.4.0/pngrio.o
 .text          0x10030374     0x3838 ../../libraries/libpng-1.4.0/pngrtran.o
                0x100309dc                png_do_read_filler
                0x100304c0                png_set_read_user_transform_fn
                0x10030388                png_set_strip_alpha
                0x10030468                png_set_expand_gray_1_2_4_to_8
                0x10030374                png_set_strip_16
                0x10031a20                png_build_gamma_table
                0x10030734                png_do_unshift
                0x10030cb8                png_do_rgb_to_gray
                0x100335e0                png_set_rgb_to_gray
                0x100304a4                png_set_gray_to_rgb
                0x10030b9c                png_do_gray_to_rgb
                0x1003351c                png_set_rgb_to_gray_fixed
                0x10033778                png_do_read_transformations
                0x100336b8                png_set_crc_action
                0x10030448                png_set_palette_to_rgb
                0x100308a4                png_do_read_swap_alpha
                0x100311f8                png_do_gamma
                0x10030428                png_set_expand
                0x100304e0                png_read_transform_info
                0x1003200c                png_init_read_transformations
                0x10031650                png_do_expand
                0x10030488                png_set_tRNS_to_alpha
                0x10030950                png_do_read_invert_alpha
                0x1003119c                png_build_grayscale_palette
                0x1003197c                png_do_read_intrapixel
                0x1003086c                png_do_chop
                0x10033650                png_set_background
                0x10030668                png_do_unpack
                0x10031494                png_do_expand_palette
                0x1003039c                png_set_gamma
                0x10032a40                png_do_background
 .glue_7        0x10033bac        0x0 ../../libraries/libpng-1.4.0/pngrtran.o
 .glue_7t       0x10033bac        0x0 ../../libraries/libpng-1.4.0/pngrtran.o
 .text          0x10033bac     0x2c98 ../../libraries/libpng-1.4.0/pngrutil.o
                0x100367ec                png_read_chunk_header
                0x10035e8c                png_handle_sRGB
                0x100349b0                png_read_finish_row
                0x100366b4                png_handle_IHDR
                0x10033e60                png_crc_error
                0x10034534                png_check_chunk_name
                0x10033bac                png_get_uint_31
                0x10033edc                png_read_filter_row
                0x10033bd8                png_read_start_row
                0x10035714                png_handle_pHYs
                0x10034968                png_handle_IEND
                0x100357c4                png_handle_hIST
                0x1003645c                png_handle_gAMA
                0x1003522c                png_handle_tIME
                0x100359e4                png_handle_tRNS
                0x10036580                png_handle_PLTE
                0x10035664                png_handle_oFFs
                0x10035894                png_handle_bKGD
                0x100352e0                png_handle_sCAL
                0x10035d20                png_handle_iCCP
                0x10034f6c                png_handle_zTXt
                0x10035458                png_handle_pCAL
                0x10034d78                png_handle_iTXt
                0x10034c1c                png_handle_unknown
                0x100348c8                png_crc_read
                0x10036358                png_handle_sBIT
                0x10034300                png_combine_row
                0x10035b3c                png_handle_sPLT
                0x100348e8                png_crc_finish
                0x1003600c                png_handle_cHRM
                0x100345ac                png_decompress_chunk
                0x10034014                png_do_read_interlace
                0x100350f0                png_handle_tEXt
 .glue_7        0x10036844        0x0 ../../libraries/libpng-1.4.0/pngrutil.o
 .glue_7t       0x10036844        0x0 ../../libraries/libpng-1.4.0/pngrutil.o
 .text          0x10036844     0x1028 ../../libraries/libpng-1.4.0/pngset.o
                0x10036c7c                png_set_sBIT
                0x1003763c                png_set_cHRM_fixed
                0x10036f6c                png_set_gAMA
                0x10036a48                png_set_unknown_chunk_location
                0x10036a7c                png_permit_mng_features
                0x100373c4                png_set_text
                0x10036f08                png_set_gAMA_fixed
                0x10036acc                png_set_chunk_cache_max
                0x10036ca0                png_set_bKGD
                0x100369ac                png_set_oFFs
                0x10037594                png_set_IHDR
                0x10036b64                png_set_keep_unknown_chunks
                0x10036dc8                png_set_tRNS
                0x10037470                png_set_pCAL
                0x10036cc4                png_set_unknown_chunks
                0x100373e4                png_set_PLTE
                0x10036aa8                png_set_invalid
                0x1003701c                png_set_sPLT
                0x10036844                png_set_cHRM
                0x100369d0                png_set_sCAL
                0x10037310                png_set_iCCP
                0x10037138                png_set_text_2
                0x10036aec                png_set_compression_buffer_size
                0x10036a94                png_set_read_user_chunk_fn
                0x10036e7c                png_set_hIST
                0x10036ab8                png_set_user_limits
                0x10037760                png_set_sRGB_gAMA_and_cHRM
                0x10036a0c                png_set_pHYs
                0x10036a2c                png_set_sRGB
                0x10036c48                png_set_tIME
                0x10036b24                png_set_rows
 .glue_7        0x1003786c        0x0 ../../libraries/libpng-1.4.0/pngset.o
 .glue_7t       0x1003786c        0x0 ../../libraries/libpng-1.4.0/pngset.o
 .text          0x1003786c      0x484 ../../libraries/libpng-1.4.0/pngtrans.o
                0x1003799c                png_set_add_alpha
                0x10037ac0                png_do_strip_filler
                0x10037930                png_set_filler
                0x1003790c                png_set_interlace_handling
                0x10037a58                png_do_swap
                0x1003789c                png_set_packing
                0x100379bc                png_set_swap_alpha
                0x10037cc8                png_set_user_transform_info
                0x1003786c                png_set_bgr
                0x10037880                png_set_swap
                0x10037c38                png_do_bgr
                0x100378c4                png_set_packswap
                0x100379e4                png_set_invert_mono
                0x10037a84                png_do_packswap
                0x100379f8                png_do_invert
                0x100379d0                png_set_invert_alpha
                0x10037ce4                png_get_user_transform_ptr
                0x100378e4                png_set_shift
 .glue_7        0x10037cf0        0x0 ../../libraries/libpng-1.4.0/pngtrans.o
 .glue_7t       0x10037cf0        0x0 ../../libraries/libpng-1.4.0/pngtrans.o
 .text          0x10037cf0       0xc8 ../../libraries/libpng-1.4.0/pngwio.o
                0x10037d6c                png_default_write_data
                0x10037d5c                png_default_flush
                0x10037d04                png_set_write_fn
                0x10037cf0                png_flush
                0x10037d98                png_write_data
 .glue_7        0x10037db8        0x0 ../../libraries/libpng-1.4.0/pngwio.o
 .glue_7t       0x10037db8        0x0 ../../libraries/libpng-1.4.0/pngwio.o
 .text          0x10037db8     0x1158 ../../libraries/libpng-1.4.0/pngwrite.o
                0x10037e4c                png_set_write_status_fn
                0x10037dec                png_set_compression_level
                0x10038714                png_create_write_struct_2
                0x10037e0c                png_set_compression_mem_level
                0x100386ac                png_write_rows
                0x10037ea8                png_set_compression_window_bits
                0x10037ddc                png_set_flush
                0x100388c4                png_create_write_struct
                0x10038a48                png_write_info_before_PLTE
                0x100384e0                png_write_row
                0x10038c14                png_write_info
                0x10038914                png_write_end
                0x10038e64                png_write_png
                0x10038150                png_set_filter
                0x10037e58                png_set_write_user_transform_fn
                0x100382c4                png_write_destroy
                0x100388dc                png_convert_from_time_t
                0x100386d0                png_write_image
                0x10037e78                png_set_compression_method
                0x10037ef8                png_set_filter_heuristics
                0x10038434                png_write_flush
                0x10037e2c                png_set_compression_strategy
                0x1003839c                png_destroy_write_struct
                0x10037db8                png_convert_from_struct_tm
 .glue_7        0x10038f10        0x0 ../../libraries/libpng-1.4.0/pngwrite.o
 .glue_7t       0x10038f10        0x0 ../../libraries/libpng-1.4.0/pngwrite.o
 .text          0x10038f10      0x598 ../../libraries/libpng-1.4.0/pngwtran.o
                0x10038f10                png_do_pack
                0x10039258                png_do_write_invert_alpha
                0x10039014                png_do_shift
                0x10039364                png_do_write_transformations
                0x100391b4                png_do_write_swap_alpha
                0x100392d0                png_do_write_intrapixel
 .glue_7        0x100394a8        0x0 ../../libraries/libpng-1.4.0/pngwtran.o
 .glue_7t       0x100394a8        0x0 ../../libraries/libpng-1.4.0/pngwtran.o
 .text          0x100394a8     0x24b8 ../../libraries/libpng-1.4.0/pngwutil.o
                0x1003a90c                png_write_gAMA_fixed
                0x1003a128                png_write_iCCP
                0x100399d4                png_check_keyword
                0x1003a8d8                png_write_sRGB
                0x1003a3a8                png_write_sCAL
                0x1003b614                png_write_IHDR
                0x10039ee8                png_write_tEXt
                0x10039b34                png_write_chunk_end
                0x1003a6a4                png_write_cHRM
                0x100394b8                png_save_int_32
                0x1003a5e8                png_write_cHRM_fixed
                0x10039684                png_write_start_row
                0x10039dd4                png_write_iTXt
                0x10039f50                png_write_zTXt
                0x1003a214                png_write_PLTE
                0x1003a464                png_write_bKGD
                0x1003a83c                png_write_sBIT
                0x1003ac60                png_write_filtered_row
                0x1003a054                png_write_sPLT
                0x1003ad14                png_write_find_filter
                0x1003a9ac                png_write_IDAT
                0x100394c8                png_save_uint_16
                0x100394a8                png_save_uint_32
                0x10039bb8                png_write_chunk_data
                0x1003a2ec                png_write_tIME
                0x1003a2c4                png_write_chunk
                0x10039c64                png_write_chunk_start
                0x10039ff8                png_write_hIST
                0x1003aa88                png_write_finish_row
                0x1003a988                png_write_IEND
                0x10039cc4                png_write_pCAL
                0x1003a410                png_write_oFFs
                0x1003a934                png_write_gAMA
                0x100394d0                png_do_write_interlace
                0x1003a354                png_write_pHYs
                0x10039b68                png_write_sig
                0x1003a520                png_write_tRNS
 .glue_7        0x1003b960        0x0 ../../libraries/libpng-1.4.0/pngwutil.o
 .glue_7t       0x1003b960        0x0 ../../libraries/libpng-1.4.0/pngwutil.o
 .text          0x1003b960      0x4e4 ../../core/dynawa/png.o
                0x1003b968                write_png
                0x1003bbfc                read_png
                0x1003b964                end_callback
                0x1003b960                info_callback
                0x1003bdfc                check_if_png
                0x1003bb1c                initialize_png_reader
                0x1003bbb4                process_data
                0x1003bba4                row_callback
 .glue_7        0x1003be44        0x0 ../../core/dynawa/png.o
 .glue_7t       0x1003be44        0x0 ../../core/dynawa/png.o
 .text          0x1003be44      0x188 image.o
                0x1003be90                lua
                0x1003bf74                Run
                0x1003bec4                blinkLoop
                0x1003be58                bcsp
                0x1003bf30                console
                0x1003be74                led_loop
                0x1003be44                panic
                0x1003bed0                bc
 .glue_7        0x1003bfcc        0x0 image.o
 .glue_7t       0x1003bfcc        0x0 image.o
 .text          0x1003bfcc        0x0 /tmp/ccIBIrH5.o
 .glue_7        0x1003bfcc        0x0 /tmp/ccIBIrH5.o
 .glue_7t       0x1003bfcc        0x0 /tmp/ccIBIrH5.o
 .text          0x1003bfcc        0x0 /tmp/ccAJfFnu.o
 .glue_7        0x1003bfcc        0x0 /tmp/ccAJfFnu.o
 .glue_7t       0x1003bfcc        0x0 /tmp/ccAJfFnu.o
 .text          0x1003bfcc      0x4cc /usr/local/arm-elf-tools/gcc-4.3.3/lib/gcc/arm-elf/4.3.3/../../../../arm-elf/lib/interwork/libm.a(lib_a-s_atan.o)
                0x1003bfcc                atan
 .glue_7        0x1003c498        0x0 /usr/local/arm-elf-tools/gcc-4.3.3/lib/gcc/arm-elf/4.3.3/../../../../arm-elf/lib/interwork/libm.a(lib_a-s_atan.o)
 .glue_7t       0x1003c498        0x0 /usr/local/arm-elf-tools/gcc-4.3.3/lib/gcc/arm-elf/4.3.3/../../../../arm-elf/lib/interwork/libm.a(lib_a-s_atan.o)
 .text          0x1003c498      0x1bc /usr/local/arm-elf-tools/gcc-4.3.3/lib/gcc/arm-elf/4.3.3/../../../../arm-elf/lib/interwork/libm.a(lib_a-s_ceil.o)
                0x1003c498                ceil
 .glue_7        0x1003c654        0x0 /usr/local/arm-elf-tools/gcc-4.3.3/lib/gcc/arm-elf/4.3.3/../../../../arm-elf/lib/interwork/libm.a(lib_a-s_ceil.o)
 .glue_7t       0x1003c654        0x0 /usr/local/arm-elf-tools/gcc-4.3.3/lib/gcc/arm-elf/4.3.3/../../../../arm-elf/lib/interwork/libm.a(lib_a-s_ceil.o)
 .text          0x1003c654       0xec /usr/local/arm-elf-tools/gcc-4.3.3/lib/gcc/arm-elf/4.3.3/../../../../arm-elf/lib/interwork/libm.a(lib_a-s_cos.o)
                0x1003c654                cos
 .glue_7        0x1003c740        0x0 /usr/local/arm-elf-tools/gcc-4.3.3/lib/gcc/arm-elf/4.3.3/../../../../arm-elf/lib/interwork/libm.a(lib_a-s_cos.o)
 .glue_7t       0x1003c740        0x0 /usr/local/arm-elf-tools/gcc-4.3.3/lib/gcc/arm-elf/4.3.3/../../../../arm-elf/lib/interwork/libm.a(lib_a-s_cos.o)
 .text          0x1003c740       0x20 /usr/local/arm-elf-tools/gcc-4.3.3/lib/gcc/arm-elf/4.3.3/../../../../arm-elf/lib/interwork/libm.a(lib_a-s_fabs.o)
                0x1003c740                fabs
 .glue_7        0x1003c760        0x0 /usr/local/arm-elf-tools/gcc-4.3.3/lib/gcc/arm-elf/4.3.3/../../../../arm-elf/lib/interwork/libm.a(lib_a-s_fabs.o)
 .glue_7t       0x1003c760        0x0 /usr/local/arm-elf-tools/gcc-4.3.3/lib/gcc/arm-elf/4.3.3/../../../../arm-elf/lib/interwork/libm.a(lib_a-s_fabs.o)
 .text          0x1003c760      0x1c4 /usr/local/arm-elf-tools/gcc-4.3.3/lib/gcc/arm-elf/4.3.3/../../../../arm-elf/lib/interwork/libm.a(lib_a-s_floor.o)
                0x1003c760                floor
 .glue_7        0x1003c924        0x0 /usr/local/arm-elf-tools/gcc-4.3.3/lib/gcc/arm-elf/4.3.3/../../../../arm-elf/lib/interwork/libm.a(lib_a-s_floor.o)
 .glue_7t       0x1003c924        0x0 /usr/local/arm-elf-tools/gcc-4.3.3/lib/gcc/arm-elf/4.3.3/../../../../arm-elf/lib/interwork/libm.a(lib_a-s_floor.o)
 .text          0x1003c924       0xa4 /usr/local/arm-elf-tools/gcc-4.3.3/lib/gcc/arm-elf/4.3.3/../../../../arm-elf/lib/interwork/libm.a(lib_a-s_frexp.o)
                0x1003c924                frexp
 .glue_7        0x1003c9c8        0x0 /usr/local/arm-elf-tools/gcc-4.3.3/lib/gcc/arm-elf/4.3.3/../../../../arm-elf/lib/interwork/libm.a(lib_a-s_frexp.o)
 .glue_7t       0x1003c9c8        0x0 /usr/local/arm-elf-tools/gcc-4.3.3/lib/gcc/arm-elf/4.3.3/../../../../arm-elf/lib/interwork/libm.a(lib_a-s_frexp.o)
 .text          0x1003c9c8       0x98 /usr/local/arm-elf-tools/gcc-4.3.3/lib/gcc/arm-elf/4.3.3/../../../../arm-elf/lib/interwork/libm.a(lib_a-s_ldexp.o)
                0x1003c9c8                ldexp
 .glue_7        0x1003ca60        0x0 /usr/local/arm-elf-tools/gcc-4.3.3/lib/gcc/arm-elf/4.3.3/../../../../arm-elf/lib/interwork/libm.a(lib_a-s_ldexp.o)
 .glue_7t       0x1003ca60        0x0 /usr/local/arm-elf-tools/gcc-4.3.3/lib/gcc/arm-elf/4.3.3/../../../../arm-elf/lib/interwork/libm.a(lib_a-s_ldexp.o)
 .text          0x1003ca60      0x118 /usr/local/arm-elf-tools/gcc-4.3.3/lib/gcc/arm-elf/4.3.3/../../../../arm-elf/lib/interwork/libm.a(lib_a-s_modf.o)
                0x1003ca60                modf
 .glue_7        0x1003cb78        0x0 /usr/local/arm-elf-tools/gcc-4.3.3/lib/gcc/arm-elf/4.3.3/../../../../arm-elf/lib/interwork/libm.a(lib_a-s_modf.o)
 .glue_7t       0x1003cb78        0x0 /usr/local/arm-elf-tools/gcc-4.3.3/lib/gcc/arm-elf/4.3.3/../../../../arm-elf/lib/interwork/libm.a(lib_a-s_modf.o)
 .text          0x1003cb78      0x1bc /usr/local/arm-elf-tools/gcc-4.3.3/lib/gcc/arm-elf/4.3.3/../../../../arm-elf/lib/interwork/libm.a(lib_a-s_scalbn.o)
                0x1003cb78                scalbn
 .glue_7        0x1003cd34        0x0 /usr/local/arm-elf-tools/gcc-4.3.3/lib/gcc/arm-elf/4.3.3/../../../../arm-elf/lib/interwork/libm.a(lib_a-s_scalbn.o)
 .glue_7t       0x1003cd34        0x0 /usr/local/arm-elf-tools/gcc-4.3.3/lib/gcc/arm-elf/4.3.3/../../../../arm-elf/lib/interwork/libm.a(lib_a-s_scalbn.o)
 .text          0x1003cd34       0xf8 /usr/local/arm-elf-tools/gcc-4.3.3/lib/gcc/arm-elf/4.3.3/../../../../arm-elf/lib/interwork/libm.a(lib_a-s_sin.o)
                0x1003cd34                sin
 .glue_7        0x1003ce2c        0x0 /usr/local/arm-elf-tools/gcc-4.3.3/lib/gcc/arm-elf/4.3.3/../../../../arm-elf/lib/interwork/libm.a(lib_a-s_sin.o)
 .glue_7t       0x1003ce2c        0x0 /usr/local/arm-elf-tools/gcc-4.3.3/lib/gcc/arm-elf/4.3.3/../../../../arm-elf/lib/interwork/libm.a(lib_a-s_sin.o)
 .text          0x1003ce2c      0x190 /usr/local/arm-elf-tools/gcc-4.3.3/lib/gcc/arm-elf/4.3.3/../../../../arm-elf/lib/interwork/libm.a(lib_a-s_tanh.o)
                0x1003ce2c                tanh
 .glue_7        0x1003cfbc        0x0 /usr/local/arm-elf-tools/gcc-4.3.3/lib/gcc/arm-elf/4.3.3/../../../../arm-elf/lib/interwork/libm.a(lib_a-s_tanh.o)
 .glue_7t       0x1003cfbc        0x0 /usr/local/arm-elf-tools/gcc-4.3.3/lib/gcc/arm-elf/4.3.3/../../../../arm-elf/lib/interwork/libm.a(lib_a-s_tanh.o)
 .text          0x1003cfbc       0x98 /usr/local/arm-elf-tools/gcc-4.3.3/lib/gcc/arm-elf/4.3.3/../../../../arm-elf/lib/interwork/libm.a(lib_a-s_tan.o)
                0x1003cfbc                tan
 .glue_7        0x1003d054        0x0 /usr/local/arm-elf-tools/gcc-4.3.3/lib/gcc/arm-elf/4.3.3/../../../../arm-elf/lib/interwork/libm.a(lib_a-s_tan.o)
 .glue_7t       0x1003d054        0x0 /usr/local/arm-elf-tools/gcc-4.3.3/lib/gcc/arm-elf/4.3.3/../../../../arm-elf/lib/interwork/libm.a(lib_a-s_tan.o)
 .text          0x1003d054      0x10c /usr/local/arm-elf-tools/gcc-4.3.3/lib/gcc/arm-elf/4.3.3/../../../../arm-elf/lib/interwork/libm.a(lib_a-w_acos.o)
                0x1003d054                acos
 .glue_7        0x1003d160        0x0 /usr/local/arm-elf-tools/gcc-4.3.3/lib/gcc/arm-elf/4.3.3/../../../../arm-elf/lib/interwork/libm.a(lib_a-w_acos.o)
 .glue_7t       0x1003d160        0x0 /usr/local/arm-elf-tools/gcc-4.3.3/lib/gcc/arm-elf/4.3.3/../../../../arm-elf/lib/interwork/libm.a(lib_a-w_acos.o)
 .text          0x1003d160      0x10c /usr/local/arm-elf-tools/gcc-4.3.3/lib/gcc/arm-elf/4.3.3/../../../../arm-elf/lib/interwork/libm.a(lib_a-w_asin.o)
                0x1003d160                asin
 .glue_7        0x1003d26c        0x0 /usr/local/arm-elf-tools/gcc-4.3.3/lib/gcc/arm-elf/4.3.3/../../../../arm-elf/lib/interwork/libm.a(lib_a-w_asin.o)
 .glue_7t       0x1003d26c        0x0 /usr/local/arm-elf-tools/gcc-4.3.3/lib/gcc/arm-elf/4.3.3/../../../../arm-elf/lib/interwork/libm.a(lib_a-w_asin.o)
 .text          0x1003d26c       0x10 /usr/local/arm-elf-tools/gcc-4.3.3/lib/gcc/arm-elf/4.3.3/../../../../arm-elf/lib/interwork/libm.a(lib_a-w_atan2.o)
                0x1003d26c                atan2
 .glue_7        0x1003d27c        0x0 /usr/local/arm-elf-tools/gcc-4.3.3/lib/gcc/arm-elf/4.3.3/../../../../arm-elf/lib/interwork/libm.a(lib_a-w_atan2.o)
 .glue_7t       0x1003d27c        0x0 /usr/local/arm-elf-tools/gcc-4.3.3/lib/gcc/arm-elf/4.3.3/../../../../arm-elf/lib/interwork/libm.a(lib_a-w_atan2.o)
 .text          0x1003d27c      0x12c /usr/local/arm-elf-tools/gcc-4.3.3/lib/gcc/arm-elf/4.3.3/../../../../arm-elf/lib/interwork/libm.a(lib_a-w_cosh.o)
                0x1003d27c                cosh
 .glue_7        0x1003d3a8        0x0 /usr/local/arm-elf-tools/gcc-4.3.3/lib/gcc/arm-elf/4.3.3/../../../../arm-elf/lib/interwork/libm.a(lib_a-w_cosh.o)
 .glue_7t       0x1003d3a8        0x0 /usr/local/arm-elf-tools/gcc-4.3.3/lib/gcc/arm-elf/4.3.3/../../../../arm-elf/lib/interwork/libm.a(lib_a-w_cosh.o)
 .text          0x1003d3a8      0x190 /usr/local/arm-elf-tools/gcc-4.3.3/lib/gcc/arm-elf/4.3.3/../../../../arm-elf/lib/interwork/libm.a(lib_a-w_exp.o)
                0x1003d3a8                exp
 .glue_7        0x1003d538        0x0 /usr/local/arm-elf-tools/gcc-4.3.3/lib/gcc/arm-elf/4.3.3/../../../../arm-elf/lib/interwork/libm.a(lib_a-w_exp.o)
 .glue_7t       0x1003d538        0x0 /usr/local/arm-elf-tools/gcc-4.3.3/lib/gcc/arm-elf/4.3.3/../../../../arm-elf/lib/interwork/libm.a(lib_a-w_exp.o)
 .text          0x1003d538      0x138 /usr/local/arm-elf-tools/gcc-4.3.3/lib/gcc/arm-elf/4.3.3/../../../../arm-elf/lib/interwork/libm.a(lib_a-w_fmod.o)
                0x1003d538                fmod
 .glue_7        0x1003d670        0x0 /usr/local/arm-elf-tools/gcc-4.3.3/lib/gcc/arm-elf/4.3.3/../../../../arm-elf/lib/interwork/libm.a(lib_a-w_fmod.o)
 .glue_7t       0x1003d670        0x0 /usr/local/arm-elf-tools/gcc-4.3.3/lib/gcc/arm-elf/4.3.3/../../../../arm-elf/lib/interwork/libm.a(lib_a-w_fmod.o)
 .text          0x1003d670      0x188 /usr/local/arm-elf-tools/gcc-4.3.3/lib/gcc/arm-elf/4.3.3/../../../../arm-elf/lib/interwork/libm.a(lib_a-w_log10.o)
                0x1003d670                log10
 .glue_7        0x1003d7f8        0x0 /usr/local/arm-elf-tools/gcc-4.3.3/lib/gcc/arm-elf/4.3.3/../../../../arm-elf/lib/interwork/libm.a(lib_a-w_log10.o)
 .glue_7t       0x1003d7f8        0x0 /usr/local/arm-elf-tools/gcc-4.3.3/lib/gcc/arm-elf/4.3.3/../../../../arm-elf/lib/interwork/libm.a(lib_a-w_log10.o)
 .text          0x1003d7f8      0x188 /usr/local/arm-elf-tools/gcc-4.3.3/lib/gcc/arm-elf/4.3.3/../../../../arm-elf/lib/interwork/libm.a(lib_a-w_log.o)
                0x1003d7f8                log
 .glue_7        0x1003d980        0x0 /usr/local/arm-elf-tools/gcc-4.3.3/lib/gcc/arm-elf/4.3.3/../../../../arm-elf/lib/interwork/libm.a(lib_a-w_log.o)
 .glue_7t       0x1003d980        0x0 /usr/local/arm-elf-tools/gcc-4.3.3/lib/gcc/arm-elf/4.3.3/../../../../arm-elf/lib/interwork/libm.a(lib_a-w_log.o)
 .text          0x1003d980      0x4f4 /usr/local/arm-elf-tools/gcc-4.3.3/lib/gcc/arm-elf/4.3.3/../../../../arm-elf/lib/interwork/libm.a(lib_a-w_pow.o)
                0x1003d980                pow
 .glue_7        0x1003de74        0x0 /usr/local/arm-elf-tools/gcc-4.3.3/lib/gcc/arm-elf/4.3.3/../../../../arm-elf/lib/interwork/libm.a(lib_a-w_pow.o)
 .glue_7t       0x1003de74        0x0 /usr/local/arm-elf-tools/gcc-4.3.3/lib/gcc/arm-elf/4.3.3/../../../../arm-elf/lib/interwork/libm.a(lib_a-w_pow.o)
 .text          0x1003de74      0x158 /usr/local/arm-elf-tools/gcc-4.3.3/lib/gcc/arm-elf/4.3.3/../../../../arm-elf/lib/interwork/libm.a(lib_a-w_sinh.o)
                0x1003de74                sinh
 .glue_7        0x1003dfcc        0x0 /usr/local/arm-elf-tools/gcc-4.3.3/lib/gcc/arm-elf/4.3.3/../../../../arm-elf/lib/interwork/libm.a(lib_a-w_sinh.o)
 .glue_7t       0x1003dfcc        0x0 /usr/local/arm-elf-tools/gcc-4.3.3/lib/gcc/arm-elf/4.3.3/../../../../arm-elf/lib/interwork/libm.a(lib_a-w_sinh.o)
 .text          0x1003dfcc      0x124 /usr/local/arm-elf-tools/gcc-4.3.3/lib/gcc/arm-elf/4.3.3/../../../../arm-elf/lib/interwork/libm.a(lib_a-w_sqrt.o)
                0x1003dfcc                sqrt
 .glue_7        0x1003e0f0        0x0 /usr/local/arm-elf-tools/gcc-4.3.3/lib/gcc/arm-elf/4.3.3/../../../../arm-elf/lib/interwork/libm.a(lib_a-w_sqrt.o)
 .glue_7t       0x1003e0f0        0x0 /usr/local/arm-elf-tools/gcc-4.3.3/lib/gcc/arm-elf/4.3.3/../../../../arm-elf/lib/interwork/libm.a(lib_a-w_sqrt.o)
 .text          0x1003e0f0      0x620 /usr/local/arm-elf-tools/gcc-4.3.3/lib/gcc/arm-elf/4.3.3/../../../../arm-elf/lib/interwork/libm.a(lib_a-e_acos.o)
                0x1003e0f0                __ieee754_acos
 .glue_7        0x1003e710        0x0 /usr/local/arm-elf-tools/gcc-4.3.3/lib/gcc/arm-elf/4.3.3/../../../../arm-elf/lib/interwork/libm.a(lib_a-e_acos.o)
 .glue_7t       0x1003e710        0x0 /usr/local/arm-elf-tools/gcc-4.3.3/lib/gcc/arm-elf/4.3.3/../../../../arm-elf/lib/interwork/libm.a(lib_a-e_acos.o)
 .text          0x1003e710      0x5d4 /usr/local/arm-elf-tools/gcc-4.3.3/lib/gcc/arm-elf/4.3.3/../../../../arm-elf/lib/interwork/libm.a(lib_a-e_asin.o)
                0x1003e710                __ieee754_asin
 .glue_7        0x1003ece4        0x0 /usr/local/arm-elf-tools/gcc-4.3.3/lib/gcc/arm-elf/4.3.3/../../../../arm-elf/lib/interwork/libm.a(lib_a-e_asin.o)
 .glue_7t       0x1003ece4        0x0 /usr/local/arm-elf-tools/gcc-4.3.3/lib/gcc/arm-elf/4.3.3/../../../../arm-elf/lib/interwork/libm.a(lib_a-e_asin.o)
 .text          0x1003ece4      0x2e4 /usr/local/arm-elf-tools/gcc-4.3.3/lib/gcc/arm-elf/4.3.3/../../../../arm-elf/lib/interwork/libm.a(lib_a-e_atan2.o)
                0x1003ece4                __ieee754_atan2
 .glue_7        0x1003efc8        0x0 /usr/local/arm-elf-tools/gcc-4.3.3/lib/gcc/arm-elf/4.3.3/../../../../arm-elf/lib/interwork/libm.a(lib_a-e_atan2.o)
 .glue_7t       0x1003efc8        0x0 /usr/local/arm-elf-tools/gcc-4.3.3/lib/gcc/arm-elf/4.3.3/../../../../arm-elf/lib/interwork/libm.a(lib_a-e_atan2.o)
 .text          0x1003efc8      0x24c /usr/local/arm-elf-tools/gcc-4.3.3/lib/gcc/arm-elf/4.3.3/../../../../arm-elf/lib/interwork/libm.a(lib_a-e_cosh.o)
                0x1003efc8                __ieee754_cosh
 .glue_7        0x1003f214        0x0 /usr/local/arm-elf-tools/gcc-4.3.3/lib/gcc/arm-elf/4.3.3/../../../../arm-elf/lib/interwork/libm.a(lib_a-e_cosh.o)
 .glue_7t       0x1003f214        0x0 /usr/local/arm-elf-tools/gcc-4.3.3/lib/gcc/arm-elf/4.3.3/../../../../arm-elf/lib/interwork/libm.a(lib_a-e_cosh.o)
 .text          0x1003f214      0x4b0 /usr/local/arm-elf-tools/gcc-4.3.3/lib/gcc/arm-elf/4.3.3/../../../../arm-elf/lib/interwork/libm.a(lib_a-e_exp.o)
                0x1003f214                __ieee754_exp
 .glue_7        0x1003f6c4        0x0 /usr/local/arm-elf-tools/gcc-4.3.3/lib/gcc/arm-elf/4.3.3/../../../../arm-elf/lib/interwork/libm.a(lib_a-e_exp.o)
 .glue_7t       0x1003f6c4        0x0 /usr/local/arm-elf-tools/gcc-4.3.3/lib/gcc/arm-elf/4.3.3/../../../../arm-elf/lib/interwork/libm.a(lib_a-e_exp.o)
 .text          0x1003f6c4      0x3e0 /usr/local/arm-elf-tools/gcc-4.3.3/lib/gcc/arm-elf/4.3.3/../../../../arm-elf/lib/interwork/libm.a(lib_a-e_fmod.o)
                0x1003f6c4                __ieee754_fmod
 .glue_7        0x1003faa4        0x0 /usr/local/arm-elf-tools/gcc-4.3.3/lib/gcc/arm-elf/4.3.3/../../../../arm-elf/lib/interwork/libm.a(lib_a-e_fmod.o)
 .glue_7t       0x1003faa4        0x0 /usr/local/arm-elf-tools/gcc-4.3.3/lib/gcc/arm-elf/4.3.3/../../../../arm-elf/lib/interwork/libm.a(lib_a-e_fmod.o)
 .text          0x1003faa4      0x194 /usr/local/arm-elf-tools/gcc-4.3.3/lib/gcc/arm-elf/4.3.3/../../../../arm-elf/lib/interwork/libm.a(lib_a-e_log10.o)
                0x1003faa4                __ieee754_log10
 .glue_7        0x1003fc38        0x0 /usr/local/arm-elf-tools/gcc-4.3.3/lib/gcc/arm-elf/4.3.3/../../../../arm-elf/lib/interwork/libm.a(lib_a-e_log10.o)
 .glue_7t       0x1003fc38        0x0 /usr/local/arm-elf-tools/gcc-4.3.3/lib/gcc/arm-elf/4.3.3/../../../../arm-elf/lib/interwork/libm.a(lib_a-e_log10.o)
 .text          0x1003fc38      0x5c8 /usr/local/arm-elf-tools/gcc-4.3.3/lib/gcc/arm-elf/4.3.3/../../../../arm-elf/lib/interwork/libm.a(lib_a-e_log.o)
                0x1003fc38                __ieee754_log
 .glue_7        0x10040200        0x0 /usr/local/arm-elf-tools/gcc-4.3.3/lib/gcc/arm-elf/4.3.3/../../../../arm-elf/lib/interwork/libm.a(lib_a-e_log.o)
 .glue_7t       0x10040200        0x0 /usr/local/arm-elf-tools/gcc-4.3.3/lib/gcc/arm-elf/4.3.3/../../../../arm-elf/lib/interwork/libm.a(lib_a-e_log.o)
 .text          0x10040200     0x1094 /usr/local/arm-elf-tools/gcc-4.3.3/lib/gcc/arm-elf/4.3.3/../../../../arm-elf/lib/interwork/libm.a(lib_a-e_pow.o)
                0x10040200                __ieee754_pow
 .glue_7        0x10041294        0x0 /usr/local/arm-elf-tools/gcc-4.3.3/lib/gcc/arm-elf/4.3.3/../../../../arm-elf/lib/interwork/libm.a(lib_a-e_pow.o)
 .glue_7t       0x10041294        0x0 /usr/local/arm-elf-tools/gcc-4.3.3/lib/gcc/arm-elf/4.3.3/../../../../arm-elf/lib/interwork/libm.a(lib_a-e_pow.o)
 .text          0x10041294      0x62c /usr/local/arm-elf-tools/gcc-4.3.3/lib/gcc/arm-elf/4.3.3/../../../../arm-elf/lib/interwork/libm.a(lib_a-e_rem_pio2.o)
                0x10041294                __ieee754_rem_pio2
 .glue_7        0x100418c0        0x0 /usr/local/arm-elf-tools/gcc-4.3.3/lib/gcc/arm-elf/4.3.3/../../../../arm-elf/lib/interwork/libm.a(lib_a-e_rem_pio2.o)
 .glue_7t       0x100418c0        0x0 /usr/local/arm-elf-tools/gcc-4.3.3/lib/gcc/arm-elf/4.3.3/../../../../arm-elf/lib/interwork/libm.a(lib_a-e_rem_pio2.o)
 .text          0x100418c0      0x268 /usr/local/arm-elf-tools/gcc-4.3.3/lib/gcc/arm-elf/4.3.3/../../../../arm-elf/lib/interwork/libm.a(lib_a-e_sinh.o)
                0x100418c0                __ieee754_sinh
 .glue_7        0x10041b28        0x0 /usr/local/arm-elf-tools/gcc-4.3.3/lib/gcc/arm-elf/4.3.3/../../../../arm-elf/lib/interwork/libm.a(lib_a-e_sinh.o)
 .glue_7t       0x10041b28        0x0 /usr/local/arm-elf-tools/gcc-4.3.3/lib/gcc/arm-elf/4.3.3/../../../../arm-elf/lib/interwork/libm.a(lib_a-e_sinh.o)
 .text          0x10041b28      0x250 /usr/local/arm-elf-tools/gcc-4.3.3/lib/gcc/arm-elf/4.3.3/../../../../arm-elf/lib/interwork/libm.a(lib_a-e_sqrt.o)
                0x10041b28                __ieee754_sqrt
 .glue_7        0x10041d78        0x0 /usr/local/arm-elf-tools/gcc-4.3.3/lib/gcc/arm-elf/4.3.3/../../../../arm-elf/lib/interwork/libm.a(lib_a-e_sqrt.o)
 .glue_7t       0x10041d78        0x0 /usr/local/arm-elf-tools/gcc-4.3.3/lib/gcc/arm-elf/4.3.3/../../../../arm-elf/lib/interwork/libm.a(lib_a-e_sqrt.o)
 .text          0x10041d78      0x35c /usr/local/arm-elf-tools/gcc-4.3.3/lib/gcc/arm-elf/4.3.3/../../../../arm-elf/lib/interwork/libm.a(lib_a-k_cos.o)
                0x10041d78                __kernel_cos
 .glue_7        0x100420d4        0x0 /usr/local/arm-elf-tools/gcc-4.3.3/lib/gcc/arm-elf/4.3.3/../../../../arm-elf/lib/interwork/libm.a(lib_a-k_cos.o)
 .glue_7t       0x100420d4        0x0 /usr/local/arm-elf-tools/gcc-4.3.3/lib/gcc/arm-elf/4.3.3/../../../../arm-elf/lib/interwork/libm.a(lib_a-k_cos.o)
 .text          0x100420d4      0xc3c /usr/local/arm-elf-tools/gcc-4.3.3/lib/gcc/arm-elf/4.3.3/../../../../arm-elf/lib/interwork/libm.a(lib_a-k_rem_pio2.o)
                0x100420d4                __kernel_rem_pio2
 .glue_7        0x10042d10        0x0 /usr/local/arm-elf-tools/gcc-4.3.3/lib/gcc/arm-elf/4.3.3/../../../../arm-elf/lib/interwork/libm.a(lib_a-k_rem_pio2.o)
 .glue_7t       0x10042d10        0x0 /usr/local/arm-elf-tools/gcc-4.3.3/lib/gcc/arm-elf/4.3.3/../../../../arm-elf/lib/interwork/libm.a(lib_a-k_rem_pio2.o)
 .text          0x10042d10      0x20c /usr/local/arm-elf-tools/gcc-4.3.3/lib/gcc/arm-elf/4.3.3/../../../../arm-elf/lib/interwork/libm.a(lib_a-k_sin.o)
                0x10042d10                __kernel_sin
 .glue_7        0x10042f1c        0x0 /usr/local/arm-elf-tools/gcc-4.3.3/lib/gcc/arm-elf/4.3.3/../../../../arm-elf/lib/interwork/libm.a(lib_a-k_sin.o)
 .glue_7t       0x10042f1c        0x0 /usr/local/arm-elf-tools/gcc-4.3.3/lib/gcc/arm-elf/4.3.3/../../../../arm-elf/lib/interwork/libm.a(lib_a-k_sin.o)
 .text          0x10042f1c      0x590 /usr/local/arm-elf-tools/gcc-4.3.3/lib/gcc/arm-elf/4.3.3/../../../../arm-elf/lib/interwork/libm.a(lib_a-k_tan.o)
                0x10042f1c                __kernel_tan
 .glue_7        0x100434ac        0x0 /usr/local/arm-elf-tools/gcc-4.3.3/lib/gcc/arm-elf/4.3.3/../../../../arm-elf/lib/interwork/libm.a(lib_a-k_tan.o)
 .glue_7t       0x100434ac        0x0 /usr/local/arm-elf-tools/gcc-4.3.3/lib/gcc/arm-elf/4.3.3/../../../../arm-elf/lib/interwork/libm.a(lib_a-k_tan.o)
 .text          0x100434ac       0x24 /usr/local/arm-elf-tools/gcc-4.3.3/lib/gcc/arm-elf/4.3.3/../../../../arm-elf/lib/interwork/libm.a(lib_a-s_copysign.o)
                0x100434ac                copysign
 .glue_7        0x100434d0        0x0 /usr/local/arm-elf-tools/gcc-4.3.3/lib/gcc/arm-elf/4.3.3/../../../../arm-elf/lib/interwork/libm.a(lib_a-s_copysign.o)
 .glue_7t       0x100434d0        0x0 /usr/local/arm-elf-tools/gcc-4.3.3/lib/gcc/arm-elf/4.3.3/../../../../arm-elf/lib/interwork/libm.a(lib_a-s_copysign.o)
 .text          0x100434d0      0x6d8 /usr/local/arm-elf-tools/gcc-4.3.3/lib/gcc/arm-elf/4.3.3/../../../../arm-elf/lib/interwork/libm.a(lib_a-s_expm1.o)
                0x100434d0                expm1
 .glue_7        0x10043ba8        0x0 /usr/local/arm-elf-tools/gcc-4.3.3/lib/gcc/arm-elf/4.3.3/../../../../arm-elf/lib/interwork/libm.a(lib_a-s_expm1.o)
 .glue_7t       0x10043ba8        0x0 /usr/local/arm-elf-tools/gcc-4.3.3/lib/gcc/arm-elf/4.3.3/../../../../arm-elf/lib/interwork/libm.a(lib_a-s_expm1.o)
 .text          0x10043ba8       0x18 /usr/local/arm-elf-tools/gcc-4.3.3/lib/gcc/arm-elf/4.3.3/../../../../arm-elf/lib/interwork/libm.a(lib_a-s_finite.o)
                0x10043ba8                finite
 .glue_7        0x10043bc0        0x0 /usr/local/arm-elf-tools/gcc-4.3.3/lib/gcc/arm-elf/4.3.3/../../../../arm-elf/lib/interwork/libm.a(lib_a-s_finite.o)
 .glue_7t       0x10043bc0        0x0 /usr/local/arm-elf-tools/gcc-4.3.3/lib/gcc/arm-elf/4.3.3/../../../../arm-elf/lib/interwork/libm.a(lib_a-s_finite.o)
 .text          0x10043bc0       0x30 /usr/local/arm-elf-tools/gcc-4.3.3/lib/gcc/arm-elf/4.3.3/../../../../arm-elf/lib/interwork/libm.a(lib_a-s_isnand.o)
                0x10043bc0                __isnand
 .glue_7        0x10043bf0        0x0 /usr/local/arm-elf-tools/gcc-4.3.3/lib/gcc/arm-elf/4.3.3/../../../../arm-elf/lib/interwork/libm.a(lib_a-s_isnand.o)
 .glue_7t       0x10043bf0        0x0 /usr/local/arm-elf-tools/gcc-4.3.3/lib/gcc/arm-elf/4.3.3/../../../../arm-elf/lib/interwork/libm.a(lib_a-s_isnand.o)
 .text          0x10043bf0        0x0 /usr/local/arm-elf-tools/gcc-4.3.3/lib/gcc/arm-elf/4.3.3/../../../../arm-elf/lib/interwork/libm.a(lib_a-s_lib_ver.o)
 .glue_7        0x10043bf0        0x0 /usr/local/arm-elf-tools/gcc-4.3.3/lib/gcc/arm-elf/4.3.3/../../../../arm-elf/lib/interwork/libm.a(lib_a-s_lib_ver.o)
 .glue_7t       0x10043bf0        0x0 /usr/local/arm-elf-tools/gcc-4.3.3/lib/gcc/arm-elf/4.3.3/../../../../arm-elf/lib/interwork/libm.a(lib_a-s_lib_ver.o)
 .text          0x10043bf0        0x8 /usr/local/arm-elf-tools/gcc-4.3.3/lib/gcc/arm-elf/4.3.3/../../../../arm-elf/lib/interwork/libm.a(lib_a-s_matherr.o)
                0x10043bf0                matherr
 .glue_7        0x10043bf8        0x0 /usr/local/arm-elf-tools/gcc-4.3.3/lib/gcc/arm-elf/4.3.3/../../../../arm-elf/lib/interwork/libm.a(lib_a-s_matherr.o)
 .glue_7t       0x10043bf8        0x0 /usr/local/arm-elf-tools/gcc-4.3.3/lib/gcc/arm-elf/4.3.3/../../../../arm-elf/lib/interwork/libm.a(lib_a-s_matherr.o)
 .text          0x10043bf8       0x20 /usr/local/arm-elf-tools/gcc-4.3.3/lib/gcc/arm-elf/4.3.3/../../../../arm-elf/lib/interwork/libm.a(lib_a-s_nan.o)
                0x10043bf8                nan
 .glue_7        0x10043c18        0x0 /usr/local/arm-elf-tools/gcc-4.3.3/lib/gcc/arm-elf/4.3.3/../../../../arm-elf/lib/interwork/libm.a(lib_a-s_nan.o)
 .glue_7t       0x10043c18        0x0 /usr/local/arm-elf-tools/gcc-4.3.3/lib/gcc/arm-elf/4.3.3/../../../../arm-elf/lib/interwork/libm.a(lib_a-s_nan.o)
 .text          0x10043c18      0x1c4 /usr/local/arm-elf-tools/gcc-4.3.3/lib/gcc/arm-elf/4.3.3/../../../../arm-elf/lib/interwork/libm.a(lib_a-s_rint.o)
                0x10043c18                rint
 .glue_7        0x10043ddc        0x0 /usr/local/arm-elf-tools/gcc-4.3.3/lib/gcc/arm-elf/4.3.3/../../../../arm-elf/lib/interwork/libm.a(lib_a-s_rint.o)
 .glue_7t       0x10043ddc        0x0 /usr/local/arm-elf-tools/gcc-4.3.3/lib/gcc/arm-elf/4.3.3/../../../../arm-elf/lib/interwork/libm.a(lib_a-s_rint.o)
 .text          0x10043ddc      0x114 /usr/local/arm-elf-tools/gcc-4.3.3/lib/gcc/arm-elf/4.3.3/interwork/libgcc.a(_udivsi3.o)
                0x10043ddc                __udivsi3
                0x10043ddc                __aeabi_uidiv
                0x10043ed8                __aeabi_uidivmod
 .glue_7        0x10043ef0        0x0 /usr/local/arm-elf-tools/gcc-4.3.3/lib/gcc/arm-elf/4.3.3/interwork/libgcc.a(_udivsi3.o)
 .glue_7t       0x10043ef0        0x0 /usr/local/arm-elf-tools/gcc-4.3.3/lib/gcc/arm-elf/4.3.3/interwork/libgcc.a(_udivsi3.o)
 .text          0x10043ef0      0x144 /usr/local/arm-elf-tools/gcc-4.3.3/lib/gcc/arm-elf/4.3.3/interwork/libgcc.a(_divsi3.o)
                0x10043ef0                __aeabi_idiv
                0x10043ef0                __divsi3
                0x1004401c                __aeabi_idivmod
 .glue_7        0x10044034        0x0 /usr/local/arm-elf-tools/gcc-4.3.3/lib/gcc/arm-elf/4.3.3/interwork/libgcc.a(_divsi3.o)
 .glue_7t       0x10044034        0x0 /usr/local/arm-elf-tools/gcc-4.3.3/lib/gcc/arm-elf/4.3.3/interwork/libgcc.a(_divsi3.o)
 .text          0x10044034       0xd0 /usr/local/arm-elf-tools/gcc-4.3.3/lib/gcc/arm-elf/4.3.3/interwork/libgcc.a(_umodsi3.o)
                0x10044034                __umodsi3
 .glue_7        0x10044104        0x0 /usr/local/arm-elf-tools/gcc-4.3.3/lib/gcc/arm-elf/4.3.3/interwork/libgcc.a(_umodsi3.o)
 .glue_7t       0x10044104        0x0 /usr/local/arm-elf-tools/gcc-4.3.3/lib/gcc/arm-elf/4.3.3/interwork/libgcc.a(_umodsi3.o)
 .text          0x10044104       0xe8 /usr/local/arm-elf-tools/gcc-4.3.3/lib/gcc/arm-elf/4.3.3/interwork/libgcc.a(_modsi3.o)
                0x10044104                __modsi3
 .glue_7        0x100441ec        0x0 /usr/local/arm-elf-tools/gcc-4.3.3/lib/gcc/arm-elf/4.3.3/interwork/libgcc.a(_modsi3.o)
 .glue_7t       0x100441ec        0x0 /usr/local/arm-elf-tools/gcc-4.3.3/lib/gcc/arm-elf/4.3.3/interwork/libgcc.a(_modsi3.o)
 .text          0x100441ec        0x4 /usr/local/arm-elf-tools/gcc-4.3.3/lib/gcc/arm-elf/4.3.3/interwork/libgcc.a(_dvmd_tls.o)
                0x100441ec                __aeabi_ldiv0
                0x100441ec                __div0
                0x100441ec                __aeabi_idiv0
 .glue_7        0x100441f0        0x0 /usr/local/arm-elf-tools/gcc-4.3.3/lib/gcc/arm-elf/4.3.3/interwork/libgcc.a(_dvmd_tls.o)
 .glue_7t       0x100441f0        0x0 /usr/local/arm-elf-tools/gcc-4.3.3/lib/gcc/arm-elf/4.3.3/interwork/libgcc.a(_dvmd_tls.o)
 .text          0x100441f0       0x5c /usr/local/arm-elf-tools/gcc-4.3.3/lib/gcc/arm-elf/4.3.3/interwork/libgcc.a(_fixunsdfsi.o)
                0x100441f0                __fixunsdfsi
 .glue_7        0x1004424c        0x0 /usr/local/arm-elf-tools/gcc-4.3.3/lib/gcc/arm-elf/4.3.3/interwork/libgcc.a(_fixunsdfsi.o)
 .glue_7t       0x1004424c        0x0 /usr/local/arm-elf-tools/gcc-4.3.3/lib/gcc/arm-elf/4.3.3/interwork/libgcc.a(_fixunsdfsi.o)
 .text          0x1004424c      0x20c /usr/local/arm-elf-tools/gcc-4.3.3/lib/gcc/arm-elf/4.3.3/interwork/libgcc.a(_mul_sf.o)
                0x10044294                __mulsf3
 .glue_7        0x10044458        0x0 /usr/local/arm-elf-tools/gcc-4.3.3/lib/gcc/arm-elf/4.3.3/interwork/libgcc.a(_mul_sf.o)
 .glue_7t       0x10044458        0x0 /usr/local/arm-elf-tools/gcc-4.3.3/lib/gcc/arm-elf/4.3.3/interwork/libgcc.a(_mul_sf.o)
 .text          0x10044458      0x1b4 /usr/local/arm-elf-tools/gcc-4.3.3/lib/gcc/arm-elf/4.3.3/interwork/libgcc.a(_div_sf.o)
                0x100444a0                __divsf3
 .glue_7        0x1004460c        0x0 /usr/local/arm-elf-tools/gcc-4.3.3/lib/gcc/arm-elf/4.3.3/interwork/libgcc.a(_div_sf.o)
 .glue_7t       0x1004460c        0x0 /usr/local/arm-elf-tools/gcc-4.3.3/lib/gcc/arm-elf/4.3.3/interwork/libgcc.a(_div_sf.o)
 .text          0x1004460c       0x84 /usr/local/arm-elf-tools/gcc-4.3.3/lib/gcc/arm-elf/4.3.3/interwork/libgcc.a(_eq_sf.o)
                0x10044620                __eqsf2
 .glue_7        0x10044690        0x0 /usr/local/arm-elf-tools/gcc-4.3.3/lib/gcc/arm-elf/4.3.3/interwork/libgcc.a(_eq_sf.o)
 .glue_7t       0x10044690        0x0 /usr/local/arm-elf-tools/gcc-4.3.3/lib/gcc/arm-elf/4.3.3/interwork/libgcc.a(_eq_sf.o)
 .text          0x10044690       0xa4 /usr/local/arm-elf-tools/gcc-4.3.3/lib/gcc/arm-elf/4.3.3/interwork/libgcc.a(_si_to_sf.o)
                0x100446a0                __floatsisf
 .glue_7        0x10044734        0x0 /usr/local/arm-elf-tools/gcc-4.3.3/lib/gcc/arm-elf/4.3.3/interwork/libgcc.a(_si_to_sf.o)
 .glue_7t       0x10044734        0x0 /usr/local/arm-elf-tools/gcc-4.3.3/lib/gcc/arm-elf/4.3.3/interwork/libgcc.a(_si_to_sf.o)
 .text          0x10044734       0x48 /usr/local/arm-elf-tools/gcc-4.3.3/lib/gcc/arm-elf/4.3.3/interwork/libgcc.a(_sf_to_df.o)
                0x10044734                __extendsfdf2
 .glue_7        0x1004477c        0x0 /usr/local/arm-elf-tools/gcc-4.3.3/lib/gcc/arm-elf/4.3.3/interwork/libgcc.a(_sf_to_df.o)
 .glue_7t       0x1004477c        0x0 /usr/local/arm-elf-tools/gcc-4.3.3/lib/gcc/arm-elf/4.3.3/interwork/libgcc.a(_sf_to_df.o)
 .text          0x1004477c        0x0 /usr/local/arm-elf-tools/gcc-4.3.3/lib/gcc/arm-elf/4.3.3/interwork/libgcc.a(_thenan_sf.o)
 .glue_7        0x1004477c        0x0 /usr/local/arm-elf-tools/gcc-4.3.3/lib/gcc/arm-elf/4.3.3/interwork/libgcc.a(_thenan_sf.o)
 .glue_7t       0x1004477c        0x0 /usr/local/arm-elf-tools/gcc-4.3.3/lib/gcc/arm-elf/4.3.3/interwork/libgcc.a(_thenan_sf.o)
 .text          0x1004477c       0xc0 /usr/local/arm-elf-tools/gcc-4.3.3/lib/gcc/arm-elf/4.3.3/interwork/libgcc.a(_usi_to_sf.o)
                0x1004478c                __floatunsisf
 .glue_7        0x1004483c        0x0 /usr/local/arm-elf-tools/gcc-4.3.3/lib/gcc/arm-elf/4.3.3/interwork/libgcc.a(_usi_to_sf.o)
 .glue_7t       0x1004483c        0x0 /usr/local/arm-elf-tools/gcc-4.3.3/lib/gcc/arm-elf/4.3.3/interwork/libgcc.a(_usi_to_sf.o)
 .text          0x1004483c      0x578 /usr/local/arm-elf-tools/gcc-4.3.3/lib/gcc/arm-elf/4.3.3/interwork/libgcc.a(_addsub_df.o)
                0x10044d5c                __adddf3
                0x10044cf8                __subdf3
 .glue_7        0x10044db4        0x0 /usr/local/arm-elf-tools/gcc-4.3.3/lib/gcc/arm-elf/4.3.3/interwork/libgcc.a(_addsub_df.o)
 .glue_7t       0x10044db4        0x0 /usr/local/arm-elf-tools/gcc-4.3.3/lib/gcc/arm-elf/4.3.3/interwork/libgcc.a(_addsub_df.o)
 .text          0x10044db4      0x30c /usr/local/arm-elf-tools/gcc-4.3.3/lib/gcc/arm-elf/4.3.3/interwork/libgcc.a(_mul_df.o)
                0x10044dfc                __muldf3
 .glue_7        0x100450c0        0x0 /usr/local/arm-elf-tools/gcc-4.3.3/lib/gcc/arm-elf/4.3.3/interwork/libgcc.a(_mul_df.o)
 .glue_7t       0x100450c0        0x0 /usr/local/arm-elf-tools/gcc-4.3.3/lib/gcc/arm-elf/4.3.3/interwork/libgcc.a(_mul_df.o)
 .text          0x100450c0      0x258 /usr/local/arm-elf-tools/gcc-4.3.3/lib/gcc/arm-elf/4.3.3/interwork/libgcc.a(_div_df.o)
                0x10045108                __divdf3
 .glue_7        0x10045318        0x0 /usr/local/arm-elf-tools/gcc-4.3.3/lib/gcc/arm-elf/4.3.3/interwork/libgcc.a(_div_df.o)
 .glue_7t       0x10045318        0x0 /usr/local/arm-elf-tools/gcc-4.3.3/lib/gcc/arm-elf/4.3.3/interwork/libgcc.a(_div_df.o)
 .text          0x10045318       0x8c /usr/local/arm-elf-tools/gcc-4.3.3/lib/gcc/arm-elf/4.3.3/interwork/libgcc.a(_eq_df.o)
                0x1004532c                __eqdf2
 .glue_7        0x100453a4        0x0 /usr/local/arm-elf-tools/gcc-4.3.3/lib/gcc/arm-elf/4.3.3/interwork/libgcc.a(_eq_df.o)
 .glue_7t       0x100453a4        0x0 /usr/local/arm-elf-tools/gcc-4.3.3/lib/gcc/arm-elf/4.3.3/interwork/libgcc.a(_eq_df.o)
 .text          0x100453a4       0x8c /usr/local/arm-elf-tools/gcc-4.3.3/lib/gcc/arm-elf/4.3.3/interwork/libgcc.a(_ne_df.o)
                0x100453b8                __nedf2
 .glue_7        0x10045430        0x0 /usr/local/arm-elf-tools/gcc-4.3.3/lib/gcc/arm-elf/4.3.3/interwork/libgcc.a(_ne_df.o)
 .glue_7t       0x10045430        0x0 /usr/local/arm-elf-tools/gcc-4.3.3/lib/gcc/arm-elf/4.3.3/interwork/libgcc.a(_ne_df.o)
 .text          0x10045430       0x8c /usr/local/arm-elf-tools/gcc-4.3.3/lib/gcc/arm-elf/4.3.3/interwork/libgcc.a(_gt_df.o)
                0x10045444                __gtdf2
 .glue_7        0x100454bc        0x0 /usr/local/arm-elf-tools/gcc-4.3.3/lib/gcc/arm-elf/4.3.3/interwork/libgcc.a(_gt_df.o)
 .glue_7t       0x100454bc        0x0 /usr/local/arm-elf-tools/gcc-4.3.3/lib/gcc/arm-elf/4.3.3/interwork/libgcc.a(_gt_df.o)
 .text          0x100454bc       0x8c /usr/local/arm-elf-tools/gcc-4.3.3/lib/gcc/arm-elf/4.3.3/interwork/libgcc.a(_ge_df.o)
                0x100454d0                __gedf2
 .glue_7        0x10045548        0x0 /usr/local/arm-elf-tools/gcc-4.3.3/lib/gcc/arm-elf/4.3.3/interwork/libgcc.a(_ge_df.o)
 .glue_7t       0x10045548        0x0 /usr/local/arm-elf-tools/gcc-4.3.3/lib/gcc/arm-elf/4.3.3/interwork/libgcc.a(_ge_df.o)
 .text          0x10045548       0x8c /usr/local/arm-elf-tools/gcc-4.3.3/lib/gcc/arm-elf/4.3.3/interwork/libgcc.a(_lt_df.o)
                0x1004555c                __ltdf2
 .glue_7        0x100455d4        0x0 /usr/local/arm-elf-tools/gcc-4.3.3/lib/gcc/arm-elf/4.3.3/interwork/libgcc.a(_lt_df.o)
 .glue_7t       0x100455d4        0x0 /usr/local/arm-elf-tools/gcc-4.3.3/lib/gcc/arm-elf/4.3.3/interwork/libgcc.a(_lt_df.o)
 .text          0x100455d4       0x8c /usr/local/arm-elf-tools/gcc-4.3.3/lib/gcc/arm-elf/4.3.3/interwork/libgcc.a(_le_df.o)
                0x100455e8                __ledf2
 .glue_7        0x10045660        0x0 /usr/local/arm-elf-tools/gcc-4.3.3/lib/gcc/arm-elf/4.3.3/interwork/libgcc.a(_le_df.o)
 .glue_7t       0x10045660        0x0 /usr/local/arm-elf-tools/gcc-4.3.3/lib/gcc/arm-elf/4.3.3/interwork/libgcc.a(_le_df.o)
 .text          0x10045660       0xd4 /usr/local/arm-elf-tools/gcc-4.3.3/lib/gcc/arm-elf/4.3.3/interwork/libgcc.a(_si_to_df.o)
                0x10045670                __floatsidf
 .glue_7        0x10045734        0x0 /usr/local/arm-elf-tools/gcc-4.3.3/lib/gcc/arm-elf/4.3.3/interwork/libgcc.a(_si_to_df.o)
 .glue_7t       0x10045734        0x0 /usr/local/arm-elf-tools/gcc-4.3.3/lib/gcc/arm-elf/4.3.3/interwork/libgcc.a(_si_to_df.o)
 .text          0x10045734       0xf8 /usr/local/arm-elf-tools/gcc-4.3.3/lib/gcc/arm-elf/4.3.3/interwork/libgcc.a(_df_to_si.o)
                0x10045770                __fixdfsi
 .glue_7        0x1004582c        0x0 /usr/local/arm-elf-tools/gcc-4.3.3/lib/gcc/arm-elf/4.3.3/interwork/libgcc.a(_df_to_si.o)
 .glue_7t       0x1004582c        0x0 /usr/local/arm-elf-tools/gcc-4.3.3/lib/gcc/arm-elf/4.3.3/interwork/libgcc.a(_df_to_si.o)
 .text          0x1004582c       0x40 /usr/local/arm-elf-tools/gcc-4.3.3/lib/gcc/arm-elf/4.3.3/interwork/libgcc.a(_make_df.o)
                0x1004582c                __make_dp
 .glue_7        0x1004586c        0x0 /usr/local/arm-elf-tools/gcc-4.3.3/lib/gcc/arm-elf/4.3.3/interwork/libgcc.a(_make_df.o)
 .glue_7t       0x1004586c        0x0 /usr/local/arm-elf-tools/gcc-4.3.3/lib/gcc/arm-elf/4.3.3/interwork/libgcc.a(_make_df.o)
 .text          0x1004586c       0x58 /usr/local/arm-elf-tools/gcc-4.3.3/lib/gcc/arm-elf/4.3.3/interwork/libgcc.a(_df_to_sf.o)
                0x1004586c                __truncdfsf2
 .glue_7        0x100458c4        0x0 /usr/local/arm-elf-tools/gcc-4.3.3/lib/gcc/arm-elf/4.3.3/interwork/libgcc.a(_df_to_sf.o)
 .glue_7t       0x100458c4        0x0 /usr/local/arm-elf-tools/gcc-4.3.3/lib/gcc/arm-elf/4.3.3/interwork/libgcc.a(_df_to_sf.o)
 .text          0x100458c4        0x0 /usr/local/arm-elf-tools/gcc-4.3.3/lib/gcc/arm-elf/4.3.3/interwork/libgcc.a(_thenan_df.o)
 .glue_7        0x100458c4        0x0 /usr/local/arm-elf-tools/gcc-4.3.3/lib/gcc/arm-elf/4.3.3/interwork/libgcc.a(_thenan_df.o)
 .glue_7t       0x100458c4        0x0 /usr/local/arm-elf-tools/gcc-4.3.3/lib/gcc/arm-elf/4.3.3/interwork/libgcc.a(_thenan_df.o)
 .text          0x100458c4      0x130 /usr/local/arm-elf-tools/gcc-4.3.3/lib/gcc/arm-elf/4.3.3/interwork/libgcc.a(_usi_to_df.o)
                0x100458d4                __floatunsidf
 .glue_7        0x100459f4        0x0 /usr/local/arm-elf-tools/gcc-4.3.3/lib/gcc/arm-elf/4.3.3/interwork/libgcc.a(_usi_to_df.o)
 .glue_7t       0x100459f4        0x0 /usr/local/arm-elf-tools/gcc-4.3.3/lib/gcc/arm-elf/4.3.3/interwork/libgcc.a(_usi_to_df.o)
 .text          0x100459f4       0x2c /usr/local/arm-elf-tools/gcc-4.3.3/lib/gcc/arm-elf/4.3.3/interwork/libgcc.a(_ucmpdi2.o)
                0x100459f4                __ucmpdi2
 .glue_7        0x10045a20        0x0 /usr/local/arm-elf-tools/gcc-4.3.3/lib/gcc/arm-elf/4.3.3/interwork/libgcc.a(_ucmpdi2.o)
 .glue_7t       0x10045a20        0x0 /usr/local/arm-elf-tools/gcc-4.3.3/lib/gcc/arm-elf/4.3.3/interwork/libgcc.a(_ucmpdi2.o)
 .text          0x10045a20       0x60 /usr/local/arm-elf-tools/gcc-4.3.3/lib/gcc/arm-elf/4.3.3/interwork/libgcc.a(_clzsi2.o)
                0x10045a20                __clzsi2
 .glue_7        0x10045a80        0x0 /usr/local/arm-elf-tools/gcc-4.3.3/lib/gcc/arm-elf/4.3.3/interwork/libgcc.a(_clzsi2.o)
 .glue_7t       0x10045a80        0x0 /usr/local/arm-elf-tools/gcc-4.3.3/lib/gcc/arm-elf/4.3.3/interwork/libgcc.a(_clzsi2.o)
 .text          0x10045a80      0x1a4 /usr/local/arm-elf-tools/gcc-4.3.3/lib/gcc/arm-elf/4.3.3/interwork/libgcc.a(_pack_sf.o)
                0x10045abc                __pack_f
 .glue_7        0x10045c24        0x0 /usr/local/arm-elf-tools/gcc-4.3.3/lib/gcc/arm-elf/4.3.3/interwork/libgcc.a(_pack_sf.o)
 .glue_7t       0x10045c24        0x0 /usr/local/arm-elf-tools/gcc-4.3.3/lib/gcc/arm-elf/4.3.3/interwork/libgcc.a(_pack_sf.o)
 .text          0x10045c24       0xc0 /usr/local/arm-elf-tools/gcc-4.3.3/lib/gcc/arm-elf/4.3.3/interwork/libgcc.a(_unpack_sf.o)
                0x10045c24                __unpack_f
 .glue_7        0x10045ce4        0x0 /usr/local/arm-elf-tools/gcc-4.3.3/lib/gcc/arm-elf/4.3.3/interwork/libgcc.a(_unpack_sf.o)
 .glue_7t       0x10045ce4        0x0 /usr/local/arm-elf-tools/gcc-4.3.3/lib/gcc/arm-elf/4.3.3/interwork/libgcc.a(_unpack_sf.o)
 .text          0x10045ce4      0x16c /usr/local/arm-elf-tools/gcc-4.3.3/lib/gcc/arm-elf/4.3.3/interwork/libgcc.a(_fpcmp_parts_sf.o)
                0x10045d20                __fpcmp_parts_f
 .glue_7        0x10045e50        0x0 /usr/local/arm-elf-tools/gcc-4.3.3/lib/gcc/arm-elf/4.3.3/interwork/libgcc.a(_fpcmp_parts_sf.o)
 .glue_7t       0x10045e50        0x0 /usr/local/arm-elf-tools/gcc-4.3.3/lib/gcc/arm-elf/4.3.3/interwork/libgcc.a(_fpcmp_parts_sf.o)
 .text          0x10045e50       0x24 /usr/local/arm-elf-tools/gcc-4.3.3/lib/gcc/arm-elf/4.3.3/interwork/libgcc.a(_make_sf.o)
                0x10045e50                __make_fp
 .glue_7        0x10045e74        0x0 /usr/local/arm-elf-tools/gcc-4.3.3/lib/gcc/arm-elf/4.3.3/interwork/libgcc.a(_make_sf.o)
 .glue_7t       0x10045e74        0x0 /usr/local/arm-elf-tools/gcc-4.3.3/lib/gcc/arm-elf/4.3.3/interwork/libgcc.a(_make_sf.o)
 .text          0x10045e74      0x32c /usr/local/arm-elf-tools/gcc-4.3.3/lib/gcc/arm-elf/4.3.3/interwork/libgcc.a(_pack_df.o)
                0x10045eb0                __pack_d
 .glue_7        0x100461a0        0x0 /usr/local/arm-elf-tools/gcc-4.3.3/lib/gcc/arm-elf/4.3.3/interwork/libgcc.a(_pack_df.o)
 .glue_7t       0x100461a0        0x0 /usr/local/arm-elf-tools/gcc-4.3.3/lib/gcc/arm-elf/4.3.3/interwork/libgcc.a(_pack_df.o)
 .text          0x100461a0      0x11c /usr/local/arm-elf-tools/gcc-4.3.3/lib/gcc/arm-elf/4.3.3/interwork/libgcc.a(_unpack_df.o)
                0x100461a0                __unpack_d
 .glue_7        0x100462bc        0x0 /usr/local/arm-elf-tools/gcc-4.3.3/lib/gcc/arm-elf/4.3.3/interwork/libgcc.a(_unpack_df.o)
 .glue_7t       0x100462bc        0x0 /usr/local/arm-elf-tools/gcc-4.3.3/lib/gcc/arm-elf/4.3.3/interwork/libgcc.a(_unpack_df.o)
 .text          0x100462bc      0x190 /usr/local/arm-elf-tools/gcc-4.3.3/lib/gcc/arm-elf/4.3.3/interwork/libgcc.a(_fpcmp_parts_df.o)
                0x100462f8                __fpcmp_parts_d
 .glue_7        0x1004644c        0x0 /usr/local/arm-elf-tools/gcc-4.3.3/lib/gcc/arm-elf/4.3.3/interwork/libgcc.a(_fpcmp_parts_df.o)
 .glue_7t       0x1004644c        0x0 /usr/local/arm-elf-tools/gcc-4.3.3/lib/gcc/arm-elf/4.3.3/interwork/libgcc.a(_fpcmp_parts_df.o)
 .text          0x1004644c        0x0 /usr/local/arm-elf-tools/gcc-4.3.3/lib/gcc/arm-elf/4.3.3/interwork/libgcc.a(_clz.o)
 .glue_7        0x1004644c        0x0 /usr/local/arm-elf-tools/gcc-4.3.3/lib/gcc/arm-elf/4.3.3/interwork/libgcc.a(_clz.o)
 .glue_7t       0x1004644c        0x0 /usr/local/arm-elf-tools/gcc-4.3.3/lib/gcc/arm-elf/4.3.3/interwork/libgcc.a(_clz.o)
 .text          0x1004644c       0x10 /usr/local/arm-elf-tools/gcc-4.3.3/lib/gcc/arm-elf/4.3.3/../../../../arm-elf/lib/interwork/libc.a(lib_a-abort.o)
                0x1004644c                abort
 .glue_7        0x1004645c        0x0 /usr/local/arm-elf-tools/gcc-4.3.3/lib/gcc/arm-elf/4.3.3/../../../../arm-elf/lib/interwork/libc.a(lib_a-abort.o)
 .glue_7t       0x1004645c        0x0 /usr/local/arm-elf-tools/gcc-4.3.3/lib/gcc/arm-elf/4.3.3/../../../../arm-elf/lib/interwork/libc.a(lib_a-abort.o)
 .text          0x1004645c       0x28 /usr/local/arm-elf-tools/gcc-4.3.3/lib/gcc/arm-elf/4.3.3/../../../../arm-elf/lib/interwork/libc.a(lib_a-calloc.o)
                0x1004645c                calloc
 .glue_7        0x10046484        0x0 /usr/local/arm-elf-tools/gcc-4.3.3/lib/gcc/arm-elf/4.3.3/../../../../arm-elf/lib/interwork/libc.a(lib_a-calloc.o)
 .glue_7t       0x10046484        0x0 /usr/local/arm-elf-tools/gcc-4.3.3/lib/gcc/arm-elf/4.3.3/../../../../arm-elf/lib/interwork/libc.a(lib_a-calloc.o)
 .text          0x10046484       0x9c /usr/local/arm-elf-tools/gcc-4.3.3/lib/gcc/arm-elf/4.3.3/../../../../arm-elf/lib/interwork/libc.a(lib_a-callocr.o)
                0x10046484                _calloc_r
 .glue_7        0x10046520        0x0 /usr/local/arm-elf-tools/gcc-4.3.3/lib/gcc/arm-elf/4.3.3/../../../../arm-elf/lib/interwork/libc.a(lib_a-callocr.o)
 .glue_7t       0x10046520        0x0 /usr/local/arm-elf-tools/gcc-4.3.3/lib/gcc/arm-elf/4.3.3/../../../../arm-elf/lib/interwork/libc.a(lib_a-callocr.o)
 .text          0x10046520       0x48 /usr/local/arm-elf-tools/gcc-4.3.3/lib/gcc/arm-elf/4.3.3/../../../../arm-elf/lib/interwork/libc.a(lib_a-clock.o)
                0x10046520                clock
 .glue_7        0x10046568        0x0 /usr/local/arm-elf-tools/gcc-4.3.3/lib/gcc/arm-elf/4.3.3/../../../../arm-elf/lib/interwork/libc.a(lib_a-clock.o)
 .glue_7t       0x10046568        0x0 /usr/local/arm-elf-tools/gcc-4.3.3/lib/gcc/arm-elf/4.3.3/../../../../arm-elf/lib/interwork/libc.a(lib_a-clock.o)
 .text          0x10046568        0x0 /usr/local/arm-elf-tools/gcc-4.3.3/lib/gcc/arm-elf/4.3.3/../../../../arm-elf/lib/interwork/libc.a(lib_a-ctype_.o)
 .glue_7        0x10046568        0x0 /usr/local/arm-elf-tools/gcc-4.3.3/lib/gcc/arm-elf/4.3.3/../../../../arm-elf/lib/interwork/libc.a(lib_a-ctype_.o)
 .glue_7t       0x10046568        0x0 /usr/local/arm-elf-tools/gcc-4.3.3/lib/gcc/arm-elf/4.3.3/../../../../arm-elf/lib/interwork/libc.a(lib_a-ctype_.o)
 .text          0x10046568       0x14 /usr/local/arm-elf-tools/gcc-4.3.3/lib/gcc/arm-elf/4.3.3/../../../../arm-elf/lib/interwork/libc.a(lib_a-difftime.o)
                0x10046568                difftime
 .glue_7        0x1004657c        0x0 /usr/local/arm-elf-tools/gcc-4.3.3/lib/gcc/arm-elf/4.3.3/../../../../arm-elf/lib/interwork/libc.a(lib_a-difftime.o)
 .glue_7t       0x1004657c        0x0 /usr/local/arm-elf-tools/gcc-4.3.3/lib/gcc/arm-elf/4.3.3/../../../../arm-elf/lib/interwork/libc.a(lib_a-difftime.o)
 .text          0x1004657c       0x10 /usr/local/arm-elf-tools/gcc-4.3.3/lib/gcc/arm-elf/4.3.3/../../../../arm-elf/lib/interwork/libc.a(lib_a-errno.o)
                0x1004657c                __errno
 .glue_7        0x1004658c        0x0 /usr/local/arm-elf-tools/gcc-4.3.3/lib/gcc/arm-elf/4.3.3/../../../../arm-elf/lib/interwork/libc.a(lib_a-errno.o)
 .glue_7t       0x1004658c        0x0 /usr/local/arm-elf-tools/gcc-4.3.3/lib/gcc/arm-elf/4.3.3/../../../../arm-elf/lib/interwork/libc.a(lib_a-errno.o)
 .text          0x1004658c       0x30 /usr/local/arm-elf-tools/gcc-4.3.3/lib/gcc/arm-elf/4.3.3/../../../../arm-elf/lib/interwork/libc.a(lib_a-exit.o)
                0x1004658c                exit
 .glue_7        0x100465bc        0x0 /usr/local/arm-elf-tools/gcc-4.3.3/lib/gcc/arm-elf/4.3.3/../../../../arm-elf/lib/interwork/libc.a(lib_a-exit.o)
 .glue_7t       0x100465bc        0x0 /usr/local/arm-elf-tools/gcc-4.3.3/lib/gcc/arm-elf/4.3.3/../../../../arm-elf/lib/interwork/libc.a(lib_a-exit.o)
 .text          0x100465bc      0x118 /usr/local/arm-elf-tools/gcc-4.3.3/lib/gcc/arm-elf/4.3.3/../../../../arm-elf/lib/interwork/libc.a(lib_a-fclose.o)
                0x100465bc                _fclose_r
                0x100466c0                fclose
 .glue_7        0x100466d4        0x0 /usr/local/arm-elf-tools/gcc-4.3.3/lib/gcc/arm-elf/4.3.3/../../../../arm-elf/lib/interwork/libc.a(lib_a-fclose.o)
 .glue_7t       0x100466d4        0x0 /usr/local/arm-elf-tools/gcc-4.3.3/lib/gcc/arm-elf/4.3.3/../../../../arm-elf/lib/interwork/libc.a(lib_a-fclose.o)
 .text          0x100466d4       0xa0 /usr/local/arm-elf-tools/gcc-4.3.3/lib/gcc/arm-elf/4.3.3/../../../../arm-elf/lib/interwork/libc.a(lib_a-fdopen.o)
                0x100466d4                _fdopen_r
                0x10046758                fdopen
 .glue_7        0x10046774        0x0 /usr/local/arm-elf-tools/gcc-4.3.3/lib/gcc/arm-elf/4.3.3/../../../../arm-elf/lib/interwork/libc.a(lib_a-fdopen.o)
 .glue_7t       0x10046774        0x0 /usr/local/arm-elf-tools/gcc-4.3.3/lib/gcc/arm-elf/4.3.3/../../../../arm-elf/lib/interwork/libc.a(lib_a-fdopen.o)
 .text          0x10046774      0x218 /usr/local/arm-elf-tools/gcc-4.3.3/lib/gcc/arm-elf/4.3.3/../../../../arm-elf/lib/interwork/libc.a(lib_a-fflush.o)
                0x10046948                fflush
                0x10046774                _fflush_r
 .glue_7        0x1004698c        0x0 /usr/local/arm-elf-tools/gcc-4.3.3/lib/gcc/arm-elf/4.3.3/../../../../arm-elf/lib/interwork/libc.a(lib_a-fflush.o)
 .glue_7t       0x1004698c        0x0 /usr/local/arm-elf-tools/gcc-4.3.3/lib/gcc/arm-elf/4.3.3/../../../../arm-elf/lib/interwork/libc.a(lib_a-fflush.o)
 .text          0x1004698c      0x13c /usr/local/arm-elf-tools/gcc-4.3.3/lib/gcc/arm-elf/4.3.3/../../../../arm-elf/lib/interwork/libc.a(lib_a-fgets.o)
                0x10046a9c                fgets
                0x1004698c                _fgets_r
 .glue_7        0x10046ac8        0x0 /usr/local/arm-elf-tools/gcc-4.3.3/lib/gcc/arm-elf/4.3.3/../../../../arm-elf/lib/interwork/libc.a(lib_a-fgets.o)
 .glue_7t       0x10046ac8        0x0 /usr/local/arm-elf-tools/gcc-4.3.3/lib/gcc/arm-elf/4.3.3/../../../../arm-elf/lib/interwork/libc.a(lib_a-fgets.o)
 .text          0x10046ac8       0x38 /usr/local/arm-elf-tools/gcc-4.3.3/lib/gcc/arm-elf/4.3.3/../../../../arm-elf/lib/interwork/libc.a(lib_a-fileno.o)
                0x10046ac8                fileno
 .glue_7        0x10046b00        0x0 /usr/local/arm-elf-tools/gcc-4.3.3/lib/gcc/arm-elf/4.3.3/../../../../arm-elf/lib/interwork/libc.a(lib_a-fileno.o)
 .glue_7t       0x10046b00        0x0 /usr/local/arm-elf-tools/gcc-4.3.3/lib/gcc/arm-elf/4.3.3/../../../../arm-elf/lib/interwork/libc.a(lib_a-fileno.o)
 .text          0x10046b00      0x2e8 /usr/local/arm-elf-tools/gcc-4.3.3/lib/gcc/arm-elf/4.3.3/../../../../arm-elf/lib/interwork/libc.a(lib_a-findfp.o)
                0x10046c20                __sinit
                0x10046ca4                __sfmoreglue
                0x10046b80                _cleanup
                0x10046b68                _cleanup_r
                0x10046b44                __fp_lock_all
                0x10046b00                __sfp_lock_acquire
                0x10046cf0                __sfp
                0x10046b0c                __sinit_lock_release
                0x10046b20                __fp_unlock_all
                0x10046b04                __sfp_lock_release
                0x10046b08                __sinit_lock_acquire
 .glue_7        0x10046de8        0x0 /usr/local/arm-elf-tools/gcc-4.3.3/lib/gcc/arm-elf/4.3.3/../../../../arm-elf/lib/interwork/libc.a(lib_a-findfp.o)
 .glue_7t       0x10046de8        0x0 /usr/local/arm-elf-tools/gcc-4.3.3/lib/gcc/arm-elf/4.3.3/../../../../arm-elf/lib/interwork/libc.a(lib_a-findfp.o)
 .text          0x10046de8       0xc4 /usr/local/arm-elf-tools/gcc-4.3.3/lib/gcc/arm-elf/4.3.3/../../../../arm-elf/lib/interwork/libc.a(lib_a-flags.o)
                0x10046de8                __sflags
 .glue_7        0x10046eac        0x0 /usr/local/arm-elf-tools/gcc-4.3.3/lib/gcc/arm-elf/4.3.3/../../../../arm-elf/lib/interwork/libc.a(lib_a-flags.o)
 .glue_7t       0x10046eac        0x0 /usr/local/arm-elf-tools/gcc-4.3.3/lib/gcc/arm-elf/4.3.3/../../../../arm-elf/lib/interwork/libc.a(lib_a-flags.o)
 .text          0x10046eac       0xfc /usr/local/arm-elf-tools/gcc-4.3.3/lib/gcc/arm-elf/4.3.3/../../../../arm-elf/lib/interwork/libc.a(lib_a-fopen.o)
                0x10046f8c                fopen
                0x10046eac                _fopen_r
 .glue_7        0x10046fa8        0x0 /usr/local/arm-elf-tools/gcc-4.3.3/lib/gcc/arm-elf/4.3.3/../../../../arm-elf/lib/interwork/libc.a(lib_a-fopen.o)
 .glue_7t       0x10046fa8        0x0 /usr/local/arm-elf-tools/gcc-4.3.3/lib/gcc/arm-elf/4.3.3/../../../../arm-elf/lib/interwork/libc.a(lib_a-fopen.o)
 .text          0x10046fa8       0x50 /usr/local/arm-elf-tools/gcc-4.3.3/lib/gcc/arm-elf/4.3.3/../../../../arm-elf/lib/interwork/libc.a(lib_a-fprintf.o)
                0x10046fa8                fprintf
                0x10046fd8                _fprintf_r
 .glue_7        0x10046ff8        0x0 /usr/local/arm-elf-tools/gcc-4.3.3/lib/gcc/arm-elf/4.3.3/../../../../arm-elf/lib/interwork/libc.a(lib_a-fprintf.o)
 .glue_7t       0x10046ff8        0x0 /usr/local/arm-elf-tools/gcc-4.3.3/lib/gcc/arm-elf/4.3.3/../../../../arm-elf/lib/interwork/libc.a(lib_a-fprintf.o)
 .text          0x10046ff8       0x80 /usr/local/arm-elf-tools/gcc-4.3.3/lib/gcc/arm-elf/4.3.3/../../../../arm-elf/lib/interwork/libc.a(lib_a-fputc.o)
                0x10047040                _fputc_r
                0x10046ff8                fputc
 .glue_7        0x10047078        0x0 /usr/local/arm-elf-tools/gcc-4.3.3/lib/gcc/arm-elf/4.3.3/../../../../arm-elf/lib/interwork/libc.a(lib_a-fputc.o)
 .glue_7t       0x10047078        0x0 /usr/local/arm-elf-tools/gcc-4.3.3/lib/gcc/arm-elf/4.3.3/../../../../arm-elf/lib/interwork/libc.a(lib_a-fputc.o)
 .text          0x10047078       0xa8 /usr/local/arm-elf-tools/gcc-4.3.3/lib/gcc/arm-elf/4.3.3/../../../../arm-elf/lib/interwork/libc.a(lib_a-fputs.o)
                0x10047078                _fputs_r
                0x10047104                fputs
 .glue_7        0x10047120        0x0 /usr/local/arm-elf-tools/gcc-4.3.3/lib/gcc/arm-elf/4.3.3/../../../../arm-elf/lib/interwork/libc.a(lib_a-fputs.o)
 .glue_7t       0x10047120        0x0 /usr/local/arm-elf-tools/gcc-4.3.3/lib/gcc/arm-elf/4.3.3/../../../../arm-elf/lib/interwork/libc.a(lib_a-fputs.o)
 .text          0x10047120      0x248 /usr/local/arm-elf-tools/gcc-4.3.3/lib/gcc/arm-elf/4.3.3/../../../../arm-elf/lib/interwork/libc.a(lib_a-fread.o)
                0x10047324                fread
                0x10047120                _fread_r
 .glue_7        0x10047368        0x0 /usr/local/arm-elf-tools/gcc-4.3.3/lib/gcc/arm-elf/4.3.3/../../../../arm-elf/lib/interwork/libc.a(lib_a-fread.o)
 .glue_7t       0x10047368        0x0 /usr/local/arm-elf-tools/gcc-4.3.3/lib/gcc/arm-elf/4.3.3/../../../../arm-elf/lib/interwork/libc.a(lib_a-fread.o)
 .text          0x10047368      0x378 /usr/local/arm-elf-tools/gcc-4.3.3/lib/gcc/arm-elf/4.3.3/../../../../arm-elf/lib/interwork/libc.a(lib_a-freer.o)
                0x10047464                _free_r
                0x10047368                _malloc_trim_r
 .glue_7        0x100476e0        0x0 /usr/local/arm-elf-tools/gcc-4.3.3/lib/gcc/arm-elf/4.3.3/../../../../arm-elf/lib/interwork/libc.a(lib_a-freer.o)
 .glue_7t       0x100476e0        0x0 /usr/local/arm-elf-tools/gcc-4.3.3/lib/gcc/arm-elf/4.3.3/../../../../arm-elf/lib/interwork/libc.a(lib_a-freer.o)
 .text          0x100476e0      0x244 /usr/local/arm-elf-tools/gcc-4.3.3/lib/gcc/arm-elf/4.3.3/../../../../arm-elf/lib/interwork/libc.a(lib_a-freopen.o)
                0x100476e0                _freopen_r
                0x100478f8                freopen
 .glue_7        0x10047924        0x0 /usr/local/arm-elf-tools/gcc-4.3.3/lib/gcc/arm-elf/4.3.3/../../../../arm-elf/lib/interwork/libc.a(lib_a-freopen.o)
 .glue_7t       0x10047924        0x0 /usr/local/arm-elf-tools/gcc-4.3.3/lib/gcc/arm-elf/4.3.3/../../../../arm-elf/lib/interwork/libc.a(lib_a-freopen.o)
 .text          0x10047924       0x50 /usr/local/arm-elf-tools/gcc-4.3.3/lib/gcc/arm-elf/4.3.3/../../../../arm-elf/lib/interwork/libc.a(lib_a-fscanf.o)
                0x10047944                fscanf
                0x10047924                _fscanf_r
 .glue_7        0x10047974        0x0 /usr/local/arm-elf-tools/gcc-4.3.3/lib/gcc/arm-elf/4.3.3/../../../../arm-elf/lib/interwork/libc.a(lib_a-fscanf.o)
 .glue_7t       0x10047974        0x0 /usr/local/arm-elf-tools/gcc-4.3.3/lib/gcc/arm-elf/4.3.3/../../../../arm-elf/lib/interwork/libc.a(lib_a-fscanf.o)
 .text          0x10047974      0x49c /usr/local/arm-elf-tools/gcc-4.3.3/lib/gcc/arm-elf/4.3.3/../../../../arm-elf/lib/interwork/libc.a(lib_a-fseek.o)
                0x10047de4                fseek
                0x10047974                _fseek_r
 .glue_7        0x10047e10        0x0 /usr/local/arm-elf-tools/gcc-4.3.3/lib/gcc/arm-elf/4.3.3/../../../../arm-elf/lib/interwork/libc.a(lib_a-fseek.o)
 .glue_7t       0x10047e10        0x0 /usr/local/arm-elf-tools/gcc-4.3.3/lib/gcc/arm-elf/4.3.3/../../../../arm-elf/lib/interwork/libc.a(lib_a-fseek.o)
 .text          0x10047e10       0xec /usr/local/arm-elf-tools/gcc-4.3.3/lib/gcc/arm-elf/4.3.3/../../../../arm-elf/lib/interwork/libc.a(lib_a-ftell.o)
                0x10047ee8                ftell
                0x10047e10                _ftell_r
 .glue_7        0x10047efc        0x0 /usr/local/arm-elf-tools/gcc-4.3.3/lib/gcc/arm-elf/4.3.3/../../../../arm-elf/lib/interwork/libc.a(lib_a-ftell.o)
 .glue_7t       0x10047efc        0x0 /usr/local/arm-elf-tools/gcc-4.3.3/lib/gcc/arm-elf/4.3.3/../../../../arm-elf/lib/interwork/libc.a(lib_a-ftell.o)
 .text          0x10047efc      0x47c /usr/local/arm-elf-tools/gcc-4.3.3/lib/gcc/arm-elf/4.3.3/../../../../arm-elf/lib/interwork/libc.a(lib_a-fvwrite.o)
                0x10047efc                __sfvwrite_r
 .glue_7        0x10048378        0x0 /usr/local/arm-elf-tools/gcc-4.3.3/lib/gcc/arm-elf/4.3.3/../../../../arm-elf/lib/interwork/libc.a(lib_a-fvwrite.o)
 .glue_7t       0x10048378        0x0 /usr/local/arm-elf-tools/gcc-4.3.3/lib/gcc/arm-elf/4.3.3/../../../../arm-elf/lib/interwork/libc.a(lib_a-fvwrite.o)
 .text          0x10048378      0x114 /usr/local/arm-elf-tools/gcc-4.3.3/lib/gcc/arm-elf/4.3.3/../../../../arm-elf/lib/interwork/libc.a(lib_a-fwalk.o)
                0x10048404                _fwalk
                0x10048378                _fwalk_reent
 .glue_7        0x1004848c        0x0 /usr/local/arm-elf-tools/gcc-4.3.3/lib/gcc/arm-elf/4.3.3/../../../../arm-elf/lib/interwork/libc.a(lib_a-fwalk.o)
 .glue_7t       0x1004848c        0x0 /usr/local/arm-elf-tools/gcc-4.3.3/lib/gcc/arm-elf/4.3.3/../../../../arm-elf/lib/interwork/libc.a(lib_a-fwalk.o)
 .text          0x1004848c       0xec /usr/local/arm-elf-tools/gcc-4.3.3/lib/gcc/arm-elf/4.3.3/../../../../arm-elf/lib/interwork/libc.a(lib_a-fwrite.o)
                0x1004848c                _fwrite_r
                0x10048534                fwrite
 .glue_7        0x10048578        0x0 /usr/local/arm-elf-tools/gcc-4.3.3/lib/gcc/arm-elf/4.3.3/../../../../arm-elf/lib/interwork/libc.a(lib_a-fwrite.o)
 .glue_7t       0x10048578        0x0 /usr/local/arm-elf-tools/gcc-4.3.3/lib/gcc/arm-elf/4.3.3/../../../../arm-elf/lib/interwork/libc.a(lib_a-fwrite.o)
 .text          0x10048578       0x54 /usr/local/arm-elf-tools/gcc-4.3.3/lib/gcc/arm-elf/4.3.3/../../../../arm-elf/lib/interwork/libc.a(lib_a-getenv.o)
                0x10048578                getenv
                0x100485a4                _findenv
 .glue_7        0x100485cc        0x0 /usr/local/arm-elf-tools/gcc-4.3.3/lib/gcc/arm-elf/4.3.3/../../../../arm-elf/lib/interwork/libc.a(lib_a-getenv.o)
 .glue_7t       0x100485cc        0x0 /usr/local/arm-elf-tools/gcc-4.3.3/lib/gcc/arm-elf/4.3.3/../../../../arm-elf/lib/interwork/libc.a(lib_a-getenv.o)
 .text          0x100485cc       0xfc /usr/local/arm-elf-tools/gcc-4.3.3/lib/gcc/arm-elf/4.3.3/../../../../arm-elf/lib/interwork/libc.a(lib_a-getenv_r.o)
                0x100485cc                _findenv_r
                0x100486ac                _getenv_r
 .glue_7        0x100486c8        0x0 /usr/local/arm-elf-tools/gcc-4.3.3/lib/gcc/arm-elf/4.3.3/../../../../arm-elf/lib/interwork/libc.a(lib_a-getenv_r.o)
 .glue_7t       0x100486c8        0x0 /usr/local/arm-elf-tools/gcc-4.3.3/lib/gcc/arm-elf/4.3.3/../../../../arm-elf/lib/interwork/libc.a(lib_a-getenv_r.o)
 .text          0x100486c8       0x20 /usr/local/arm-elf-tools/gcc-4.3.3/lib/gcc/arm-elf/4.3.3/../../../../arm-elf/lib/interwork/libc.a(lib_a-gmtime.o)
                0x100486c8                gmtime
 .glue_7        0x100486e8        0x0 /usr/local/arm-elf-tools/gcc-4.3.3/lib/gcc/arm-elf/4.3.3/../../../../arm-elf/lib/interwork/libc.a(lib_a-gmtime.o)
 .glue_7t       0x100486e8        0x0 /usr/local/arm-elf-tools/gcc-4.3.3/lib/gcc/arm-elf/4.3.3/../../../../arm-elf/lib/interwork/libc.a(lib_a-gmtime.o)
 .text          0x100486e8       0x14 /usr/local/arm-elf-tools/gcc-4.3.3/lib/gcc/arm-elf/4.3.3/../../../../arm-elf/lib/interwork/libc.a(lib_a-gmtime_r.o)
                0x100486e8                gmtime_r
 .glue_7        0x100486fc        0x0 /usr/local/arm-elf-tools/gcc-4.3.3/lib/gcc/arm-elf/4.3.3/../../../../arm-elf/lib/interwork/libc.a(lib_a-gmtime_r.o)
 .glue_7t       0x100486fc        0x0 /usr/local/arm-elf-tools/gcc-4.3.3/lib/gcc/arm-elf/4.3.3/../../../../arm-elf/lib/interwork/libc.a(lib_a-gmtime_r.o)
 .text          0x100486fc        0x0 /usr/local/arm-elf-tools/gcc-4.3.3/lib/gcc/arm-elf/4.3.3/../../../../arm-elf/lib/interwork/libc.a(lib_a-impure.o)
 .glue_7        0x100486fc        0x0 /usr/local/arm-elf-tools/gcc-4.3.3/lib/gcc/arm-elf/4.3.3/../../../../arm-elf/lib/interwork/libc.a(lib_a-impure.o)
 .glue_7t       0x100486fc        0x0 /usr/local/arm-elf-tools/gcc-4.3.3/lib/gcc/arm-elf/4.3.3/../../../../arm-elf/lib/interwork/libc.a(lib_a-impure.o)
 .text          0x100486fc       0x20 /usr/local/arm-elf-tools/gcc-4.3.3/lib/gcc/arm-elf/4.3.3/../../../../arm-elf/lib/interwork/libc.a(lib_a-lcltime.o)
                0x100486fc                localtime
 .glue_7        0x1004871c        0x0 /usr/local/arm-elf-tools/gcc-4.3.3/lib/gcc/arm-elf/4.3.3/../../../../arm-elf/lib/interwork/libc.a(lib_a-lcltime.o)
 .glue_7t       0x1004871c        0x0 /usr/local/arm-elf-tools/gcc-4.3.3/lib/gcc/arm-elf/4.3.3/../../../../arm-elf/lib/interwork/libc.a(lib_a-lcltime.o)
 .text          0x1004871c       0x14 /usr/local/arm-elf-tools/gcc-4.3.3/lib/gcc/arm-elf/4.3.3/../../../../arm-elf/lib/interwork/libc.a(lib_a-lcltime_r.o)
                0x1004871c                localtime_r
 .glue_7        0x10048730        0x0 /usr/local/arm-elf-tools/gcc-4.3.3/lib/gcc/arm-elf/4.3.3/../../../../arm-elf/lib/interwork/libc.a(lib_a-lcltime_r.o)
 .glue_7t       0x10048730        0x0 /usr/local/arm-elf-tools/gcc-4.3.3/lib/gcc/arm-elf/4.3.3/../../../../arm-elf/lib/interwork/libc.a(lib_a-lcltime_r.o)
 .text          0x10048730       0xa4 /usr/local/arm-elf-tools/gcc-4.3.3/lib/gcc/arm-elf/4.3.3/../../../../arm-elf/lib/interwork/libc.a(lib_a-locale.o)
                0x10048758                _setlocale_r
                0x10048730                __locale_charset
                0x10048740                _localeconv_r
                0x100487b8                setlocale
                0x1004874c                localeconv
 .glue_7        0x100487d4        0x0 /usr/local/arm-elf-tools/gcc-4.3.3/lib/gcc/arm-elf/4.3.3/../../../../arm-elf/lib/interwork/libc.a(lib_a-locale.o)
 .glue_7t       0x100487d4        0x0 /usr/local/arm-elf-tools/gcc-4.3.3/lib/gcc/arm-elf/4.3.3/../../../../arm-elf/lib/interwork/libc.a(lib_a-locale.o)
 .text          0x100487d4      0x16c /usr/local/arm-elf-tools/gcc-4.3.3/lib/gcc/arm-elf/4.3.3/../../../../arm-elf/lib/interwork/libc.a(lib_a-makebuf.o)
                0x100487d4                __smakebuf_r
 .glue_7        0x10048940        0x0 /usr/local/arm-elf-tools/gcc-4.3.3/lib/gcc/arm-elf/4.3.3/../../../../arm-elf/lib/interwork/libc.a(lib_a-makebuf.o)
 .glue_7t       0x10048940        0x0 /usr/local/arm-elf-tools/gcc-4.3.3/lib/gcc/arm-elf/4.3.3/../../../../arm-elf/lib/interwork/libc.a(lib_a-makebuf.o)
 .text          0x10048940       0x40 /usr/local/arm-elf-tools/gcc-4.3.3/lib/gcc/arm-elf/4.3.3/../../../../arm-elf/lib/interwork/libc.a(lib_a-malloc.o)
                0x10048960                malloc
                0x10048940                free
 .glue_7        0x10048980        0x0 /usr/local/arm-elf-tools/gcc-4.3.3/lib/gcc/arm-elf/4.3.3/../../../../arm-elf/lib/interwork/libc.a(lib_a-malloc.o)
 .glue_7t       0x10048980        0x0 /usr/local/arm-elf-tools/gcc-4.3.3/lib/gcc/arm-elf/4.3.3/../../../../arm-elf/lib/interwork/libc.a(lib_a-malloc.o)
 .text          0x10048980      0x720 /usr/local/arm-elf-tools/gcc-4.3.3/lib/gcc/arm-elf/4.3.3/../../../../arm-elf/lib/interwork/libc.a(lib_a-mallocr.o)
                0x10048980                _malloc_r
 .glue_7        0x100490a0        0x0 /usr/local/arm-elf-tools/gcc-4.3.3/lib/gcc/arm-elf/4.3.3/../../../../arm-elf/lib/interwork/libc.a(lib_a-mallocr.o)
 .glue_7t       0x100490a0        0x0 /usr/local/arm-elf-tools/gcc-4.3.3/lib/gcc/arm-elf/4.3.3/../../../../arm-elf/lib/interwork/libc.a(lib_a-mallocr.o)
 .text          0x100490a0      0x104 /usr/local/arm-elf-tools/gcc-4.3.3/lib/gcc/arm-elf/4.3.3/../../../../arm-elf/lib/interwork/libc.a(lib_a-memchr.o)
                0x100490a0                memchr
 .glue_7        0x100491a4        0x0 /usr/local/arm-elf-tools/gcc-4.3.3/lib/gcc/arm-elf/4.3.3/../../../../arm-elf/lib/interwork/libc.a(lib_a-memchr.o)
 .glue_7t       0x100491a4        0x0 /usr/local/arm-elf-tools/gcc-4.3.3/lib/gcc/arm-elf/4.3.3/../../../../arm-elf/lib/interwork/libc.a(lib_a-memchr.o)
 .text          0x100491a4       0xac /usr/local/arm-elf-tools/gcc-4.3.3/lib/gcc/arm-elf/4.3.3/../../../../arm-elf/lib/interwork/libc.a(lib_a-memcmp.o)
                0x100491a4                memcmp
 .glue_7        0x10049250        0x0 /usr/local/arm-elf-tools/gcc-4.3.3/lib/gcc/arm-elf/4.3.3/../../../../arm-elf/lib/interwork/libc.a(lib_a-memcmp.o)
 .glue_7t       0x10049250        0x0 /usr/local/arm-elf-tools/gcc-4.3.3/lib/gcc/arm-elf/4.3.3/../../../../arm-elf/lib/interwork/libc.a(lib_a-memcmp.o)
 .text          0x10049250       0xfc /usr/local/arm-elf-tools/gcc-4.3.3/lib/gcc/arm-elf/4.3.3/../../../../arm-elf/lib/interwork/libc.a(lib_a-memcpy.o)
                0x10049250                memcpy
 .glue_7        0x1004934c        0x0 /usr/local/arm-elf-tools/gcc-4.3.3/lib/gcc/arm-elf/4.3.3/../../../../arm-elf/lib/interwork/libc.a(lib_a-memcpy.o)
 .glue_7t       0x1004934c        0x0 /usr/local/arm-elf-tools/gcc-4.3.3/lib/gcc/arm-elf/4.3.3/../../../../arm-elf/lib/interwork/libc.a(lib_a-memcpy.o)
 .text          0x1004934c      0x144 /usr/local/arm-elf-tools/gcc-4.3.3/lib/gcc/arm-elf/4.3.3/../../../../arm-elf/lib/interwork/libc.a(lib_a-memmove.o)
                0x1004934c                memmove
 .glue_7        0x10049490        0x0 /usr/local/arm-elf-tools/gcc-4.3.3/lib/gcc/arm-elf/4.3.3/../../../../arm-elf/lib/interwork/libc.a(lib_a-memmove.o)
 .glue_7t       0x10049490        0x0 /usr/local/arm-elf-tools/gcc-4.3.3/lib/gcc/arm-elf/4.3.3/../../../../arm-elf/lib/interwork/libc.a(lib_a-memmove.o)
 .text          0x10049490      0x108 /usr/local/arm-elf-tools/gcc-4.3.3/lib/gcc/arm-elf/4.3.3/../../../../arm-elf/lib/interwork/libc.a(lib_a-memset.o)
                0x10049490                memset
 .glue_7        0x10049598        0x0 /usr/local/arm-elf-tools/gcc-4.3.3/lib/gcc/arm-elf/4.3.3/../../../../arm-elf/lib/interwork/libc.a(lib_a-memset.o)
 .glue_7t       0x10049598        0x0 /usr/local/arm-elf-tools/gcc-4.3.3/lib/gcc/arm-elf/4.3.3/../../../../arm-elf/lib/interwork/libc.a(lib_a-memset.o)
 .text          0x10049598      0x7f8 /usr/local/arm-elf-tools/gcc-4.3.3/lib/gcc/arm-elf/4.3.3/../../../../arm-elf/lib/interwork/libc.a(lib_a-mktime.o)
                0x10049940                mktime
 .glue_7        0x10049d90        0x0 /usr/local/arm-elf-tools/gcc-4.3.3/lib/gcc/arm-elf/4.3.3/../../../../arm-elf/lib/interwork/libc.a(lib_a-mktime.o)
 .glue_7t       0x10049d90        0x0 /usr/local/arm-elf-tools/gcc-4.3.3/lib/gcc/arm-elf/4.3.3/../../../../arm-elf/lib/interwork/libc.a(lib_a-mktime.o)
 .text          0x10049d90      0x8b0 /usr/local/arm-elf-tools/gcc-4.3.3/lib/gcc/arm-elf/4.3.3/../../../../arm-elf/lib/interwork/libc.a(lib_a-mktm_r.o)
                0x10049d90                __tzcalc_limits
                0x1004a028                _mktm_r
 .glue_7        0x1004a640        0x0 /usr/local/arm-elf-tools/gcc-4.3.3/lib/gcc/arm-elf/4.3.3/../../../../arm-elf/lib/interwork/libc.a(lib_a-mktm_r.o)
 .glue_7t       0x1004a640        0x0 /usr/local/arm-elf-tools/gcc-4.3.3/lib/gcc/arm-elf/4.3.3/../../../../arm-elf/lib/interwork/libc.a(lib_a-mktm_r.o)
 .text          0x1004a640        0x8 /usr/local/arm-elf-tools/gcc-4.3.3/lib/gcc/arm-elf/4.3.3/../../../../arm-elf/lib/interwork/libc.a(lib_a-mlock.o)
                0x1004a644                __malloc_unlock
                0x1004a640                __malloc_lock
 .glue_7        0x1004a648        0x0 /usr/local/arm-elf-tools/gcc-4.3.3/lib/gcc/arm-elf/4.3.3/../../../../arm-elf/lib/interwork/libc.a(lib_a-mlock.o)
 .glue_7t       0x1004a648        0x0 /usr/local/arm-elf-tools/gcc-4.3.3/lib/gcc/arm-elf/4.3.3/../../../../arm-elf/lib/interwork/libc.a(lib_a-mlock.o)
 .text          0x1004a648       0x54 /usr/local/arm-elf-tools/gcc-4.3.3/lib/gcc/arm-elf/4.3.3/../../../../arm-elf/lib/interwork/libc.a(lib_a-printf.o)
                0x1004a648                printf
                0x1004a678                _printf_r
 .glue_7        0x1004a69c        0x0 /usr/local/arm-elf-tools/gcc-4.3.3/lib/gcc/arm-elf/4.3.3/../../../../arm-elf/lib/interwork/libc.a(lib_a-printf.o)
 .glue_7t       0x1004a69c        0x0 /usr/local/arm-elf-tools/gcc-4.3.3/lib/gcc/arm-elf/4.3.3/../../../../arm-elf/lib/interwork/libc.a(lib_a-printf.o)
 .text          0x1004a69c      0x168 /usr/local/arm-elf-tools/gcc-4.3.3/lib/gcc/arm-elf/4.3.3/../../../../arm-elf/lib/interwork/libc.a(lib_a-putc.o)
                0x1004a758                _putc_r
                0x1004a69c                putc
 .glue_7        0x1004a804        0x0 /usr/local/arm-elf-tools/gcc-4.3.3/lib/gcc/arm-elf/4.3.3/../../../../arm-elf/lib/interwork/libc.a(lib_a-putc.o)
 .glue_7t       0x1004a804        0x0 /usr/local/arm-elf-tools/gcc-4.3.3/lib/gcc/arm-elf/4.3.3/../../../../arm-elf/lib/interwork/libc.a(lib_a-putc.o)
 .text          0x1004a804       0x78 /usr/local/arm-elf-tools/gcc-4.3.3/lib/gcc/arm-elf/4.3.3/../../../../arm-elf/lib/interwork/libc.a(lib_a-rand.o)
                0x1004a820                rand
                0x1004a804                srand
 .glue_7        0x1004a87c        0x0 /usr/local/arm-elf-tools/gcc-4.3.3/lib/gcc/arm-elf/4.3.3/../../../../arm-elf/lib/interwork/libc.a(lib_a-rand.o)
 .glue_7t       0x1004a87c        0x0 /usr/local/arm-elf-tools/gcc-4.3.3/lib/gcc/arm-elf/4.3.3/../../../../arm-elf/lib/interwork/libc.a(lib_a-rand.o)
 .text          0x1004a87c       0x28 /usr/local/arm-elf-tools/gcc-4.3.3/lib/gcc/arm-elf/4.3.3/../../../../arm-elf/lib/interwork/libc.a(lib_a-realloc.o)
                0x1004a87c                realloc
 .glue_7        0x1004a8a4        0x0 /usr/local/arm-elf-tools/gcc-4.3.3/lib/gcc/arm-elf/4.3.3/../../../../arm-elf/lib/interwork/libc.a(lib_a-realloc.o)
 .glue_7t       0x1004a8a4        0x0 /usr/local/arm-elf-tools/gcc-4.3.3/lib/gcc/arm-elf/4.3.3/../../../../arm-elf/lib/interwork/libc.a(lib_a-realloc.o)
 .text          0x1004a8a4      0x514 /usr/local/arm-elf-tools/gcc-4.3.3/lib/gcc/arm-elf/4.3.3/../../../../arm-elf/lib/interwork/libc.a(lib_a-reallocr.o)
                0x1004a8a4                _realloc_r
 .glue_7        0x1004adb8        0x0 /usr/local/arm-elf-tools/gcc-4.3.3/lib/gcc/arm-elf/4.3.3/../../../../arm-elf/lib/interwork/libc.a(lib_a-reallocr.o)
 .glue_7t       0x1004adb8        0x0 /usr/local/arm-elf-tools/gcc-4.3.3/lib/gcc/arm-elf/4.3.3/../../../../arm-elf/lib/interwork/libc.a(lib_a-reallocr.o)
 .text          0x1004adb8      0x1e0 /usr/local/arm-elf-tools/gcc-4.3.3/lib/gcc/arm-elf/4.3.3/../../../../arm-elf/lib/interwork/libc.a(lib_a-refill.o)
                0x1004adb8                __srefill_r
 .glue_7        0x1004af98        0x0 /usr/local/arm-elf-tools/gcc-4.3.3/lib/gcc/arm-elf/4.3.3/../../../../arm-elf/lib/interwork/libc.a(lib_a-refill.o)
 .glue_7t       0x1004af98        0x0 /usr/local/arm-elf-tools/gcc-4.3.3/lib/gcc/arm-elf/4.3.3/../../../../arm-elf/lib/interwork/libc.a(lib_a-refill.o)
 .text          0x1004af98       0x40 /usr/local/arm-elf-tools/gcc-4.3.3/lib/gcc/arm-elf/4.3.3/../../../../arm-elf/lib/interwork/libc.a(lib_a-remove.o)
                0x1004afb0                remove
                0x1004af98                _remove_r
 .glue_7        0x1004afd8        0x0 /usr/local/arm-elf-tools/gcc-4.3.3/lib/gcc/arm-elf/4.3.3/../../../../arm-elf/lib/interwork/libc.a(lib_a-remove.o)
 .glue_7t       0x1004afd8        0x0 /usr/local/arm-elf-tools/gcc-4.3.3/lib/gcc/arm-elf/4.3.3/../../../../arm-elf/lib/interwork/libc.a(lib_a-remove.o)
 .text          0x1004afd8       0x6c /usr/local/arm-elf-tools/gcc-4.3.3/lib/gcc/arm-elf/4.3.3/../../../../arm-elf/lib/interwork/libc.a(lib_a-rget.o)
                0x1004b030                __srget
                0x1004afd8                __srget_r
 .glue_7        0x1004b044        0x0 /usr/local/arm-elf-tools/gcc-4.3.3/lib/gcc/arm-elf/4.3.3/../../../../arm-elf/lib/interwork/libc.a(lib_a-rget.o)
 .glue_7t       0x1004b044        0x0 /usr/local/arm-elf-tools/gcc-4.3.3/lib/gcc/arm-elf/4.3.3/../../../../arm-elf/lib/interwork/libc.a(lib_a-rget.o)
 .text          0x1004b044       0x2c /usr/local/arm-elf-tools/gcc-4.3.3/lib/gcc/arm-elf/4.3.3/../../../../arm-elf/lib/interwork/libc.a(lib_a-setjmp.o)
                0x1004b058                longjmp
                0x1004b044                setjmp
 .glue_7        0x1004b070        0x0 /usr/local/arm-elf-tools/gcc-4.3.3/lib/gcc/arm-elf/4.3.3/../../../../arm-elf/lib/interwork/libc.a(lib_a-setjmp.o)
 .glue_7t       0x1004b070        0x0 /usr/local/arm-elf-tools/gcc-4.3.3/lib/gcc/arm-elf/4.3.3/../../../../arm-elf/lib/interwork/libc.a(lib_a-setjmp.o)
 .text          0x1004b070      0x198 /usr/local/arm-elf-tools/gcc-4.3.3/lib/gcc/arm-elf/4.3.3/../../../../arm-elf/lib/interwork/libc.a(lib_a-setvbuf.o)
                0x1004b070                setvbuf
 .glue_7        0x1004b208        0x0 /usr/local/arm-elf-tools/gcc-4.3.3/lib/gcc/arm-elf/4.3.3/../../../../arm-elf/lib/interwork/libc.a(lib_a-setvbuf.o)
 .glue_7t       0x1004b208        0x0 /usr/local/arm-elf-tools/gcc-4.3.3/lib/gcc/arm-elf/4.3.3/../../../../arm-elf/lib/interwork/libc.a(lib_a-setvbuf.o)
 .text          0x1004b208      0x220 /usr/local/arm-elf-tools/gcc-4.3.3/lib/gcc/arm-elf/4.3.3/../../../../arm-elf/lib/interwork/libc.a(lib_a-signal.o)
                0x1004b3b4                _signal_r
                0x1004b208                _raise_r
                0x1004b314                __sigtramp_r
                0x1004b40c                signal
                0x1004b304                _init_signal
                0x1004b2b0                _init_signal_r
                0x1004b3a0                __sigtramp
                0x1004b29c                raise
 .glue_7        0x1004b428        0x0 /usr/local/arm-elf-tools/gcc-4.3.3/lib/gcc/arm-elf/4.3.3/../../../../arm-elf/lib/interwork/libc.a(lib_a-signal.o)
 .glue_7t       0x1004b428        0x0 /usr/local/arm-elf-tools/gcc-4.3.3/lib/gcc/arm-elf/4.3.3/../../../../arm-elf/lib/interwork/libc.a(lib_a-signal.o)
 .text          0x1004b428      0x128 /usr/local/arm-elf-tools/gcc-4.3.3/lib/gcc/arm-elf/4.3.3/../../../../arm-elf/lib/interwork/libc.a(lib_a-snprintf.o)
                0x1004b428                snprintf
                0x1004b4c0                _snprintf_r
 .glue_7        0x1004b550        0x0 /usr/local/arm-elf-tools/gcc-4.3.3/lib/gcc/arm-elf/4.3.3/../../../../arm-elf/lib/interwork/libc.a(lib_a-snprintf.o)
 .glue_7t       0x1004b550        0x0 /usr/local/arm-elf-tools/gcc-4.3.3/lib/gcc/arm-elf/4.3.3/../../../../arm-elf/lib/interwork/libc.a(lib_a-snprintf.o)
 .text          0x1004b550       0xcc /usr/local/arm-elf-tools/gcc-4.3.3/lib/gcc/arm-elf/4.3.3/../../../../arm-elf/lib/interwork/libc.a(lib_a-sprintf.o)
                0x1004b5bc                _sprintf_r
                0x1004b550                sprintf
 .glue_7        0x1004b61c        0x0 /usr/local/arm-elf-tools/gcc-4.3.3/lib/gcc/arm-elf/4.3.3/../../../../arm-elf/lib/interwork/libc.a(lib_a-sprintf.o)
 .glue_7t       0x1004b61c        0x0 /usr/local/arm-elf-tools/gcc-4.3.3/lib/gcc/arm-elf/4.3.3/../../../../arm-elf/lib/interwork/libc.a(lib_a-sprintf.o)
 .text          0x1004b61c       0xd8 /usr/local/arm-elf-tools/gcc-4.3.3/lib/gcc/arm-elf/4.3.3/../../../../arm-elf/lib/interwork/libc.a(lib_a-stdio.o)
                0x1004b630                __sseek
                0x1004b6c0                __sread
                0x1004b61c                __sclose
                0x1004b668                __swrite
 .glue_7        0x1004b6f4        0x0 /usr/local/arm-elf-tools/gcc-4.3.3/lib/gcc/arm-elf/4.3.3/../../../../arm-elf/lib/interwork/libc.a(lib_a-stdio.o)
 .glue_7t       0x1004b6f4        0x0 /usr/local/arm-elf-tools/gcc-4.3.3/lib/gcc/arm-elf/4.3.3/../../../../arm-elf/lib/interwork/libc.a(lib_a-stdio.o)
 .text          0x1004b6f4       0xa8 /usr/local/arm-elf-tools/gcc-4.3.3/lib/gcc/arm-elf/4.3.3/../../../../arm-elf/lib/interwork/libc.a(lib_a-strcat.o)
                0x1004b6f4                strcat
 .glue_7        0x1004b79c        0x0 /usr/local/arm-elf-tools/gcc-4.3.3/lib/gcc/arm-elf/4.3.3/../../../../arm-elf/lib/interwork/libc.a(lib_a-strcat.o)
 .glue_7t       0x1004b79c        0x0 /usr/local/arm-elf-tools/gcc-4.3.3/lib/gcc/arm-elf/4.3.3/../../../../arm-elf/lib/interwork/libc.a(lib_a-strcat.o)
 .text          0x1004b79c      0x1dc /usr/local/arm-elf-tools/gcc-4.3.3/lib/gcc/arm-elf/4.3.3/../../../../arm-elf/lib/interwork/libc.a(lib_a-strchr.o)
                0x1004b79c                strchr
 .glue_7        0x1004b978        0x0 /usr/local/arm-elf-tools/gcc-4.3.3/lib/gcc/arm-elf/4.3.3/../../../../arm-elf/lib/interwork/libc.a(lib_a-strchr.o)
 .glue_7t       0x1004b978        0x0 /usr/local/arm-elf-tools/gcc-4.3.3/lib/gcc/arm-elf/4.3.3/../../../../arm-elf/lib/interwork/libc.a(lib_a-strchr.o)
 .text          0x1004b978       0xe8 /usr/local/arm-elf-tools/gcc-4.3.3/lib/gcc/arm-elf/4.3.3/../../../../arm-elf/lib/interwork/libc.a(lib_a-strcmp.o)
                0x1004b978                strcmp
 .glue_7        0x1004ba60        0x0 /usr/local/arm-elf-tools/gcc-4.3.3/lib/gcc/arm-elf/4.3.3/../../../../arm-elf/lib/interwork/libc.a(lib_a-strcmp.o)
 .glue_7t       0x1004ba60        0x0 /usr/local/arm-elf-tools/gcc-4.3.3/lib/gcc/arm-elf/4.3.3/../../../../arm-elf/lib/interwork/libc.a(lib_a-strcmp.o)
 .text          0x1004ba60       0x10 /usr/local/arm-elf-tools/gcc-4.3.3/lib/gcc/arm-elf/4.3.3/../../../../arm-elf/lib/interwork/libc.a(lib_a-strcoll.o)
                0x1004ba60                strcoll
 .glue_7        0x1004ba70        0x0 /usr/local/arm-elf-tools/gcc-4.3.3/lib/gcc/arm-elf/4.3.3/../../../../arm-elf/lib/interwork/libc.a(lib_a-strcoll.o)
 .glue_7t       0x1004ba70        0x0 /usr/local/arm-elf-tools/gcc-4.3.3/lib/gcc/arm-elf/4.3.3/../../../../arm-elf/lib/interwork/libc.a(lib_a-strcoll.o)
 .text          0x1004ba70       0xb8 /usr/local/arm-elf-tools/gcc-4.3.3/lib/gcc/arm-elf/4.3.3/../../../../arm-elf/lib/interwork/libc.a(lib_a-strcpy.o)
                0x1004ba70                strcpy
 .glue_7        0x1004bb28        0x0 /usr/local/arm-elf-tools/gcc-4.3.3/lib/gcc/arm-elf/4.3.3/../../../../arm-elf/lib/interwork/libc.a(lib_a-strcpy.o)
 .glue_7t       0x1004bb28        0x0 /usr/local/arm-elf-tools/gcc-4.3.3/lib/gcc/arm-elf/4.3.3/../../../../arm-elf/lib/interwork/libc.a(lib_a-strcpy.o)
 .text          0x1004bb28       0x68 /usr/local/arm-elf-tools/gcc-4.3.3/lib/gcc/arm-elf/4.3.3/../../../../arm-elf/lib/interwork/libc.a(lib_a-strcspn.o)
                0x1004bb28                strcspn
 .glue_7        0x1004bb90        0x0 /usr/local/arm-elf-tools/gcc-4.3.3/lib/gcc/arm-elf/4.3.3/../../../../arm-elf/lib/interwork/libc.a(lib_a-strcspn.o)
 .glue_7t       0x1004bb90        0x0 /usr/local/arm-elf-tools/gcc-4.3.3/lib/gcc/arm-elf/4.3.3/../../../../arm-elf/lib/interwork/libc.a(lib_a-strcspn.o)
 .text          0x1004bb90      0x688 /usr/local/arm-elf-tools/gcc-4.3.3/lib/gcc/arm-elf/4.3.3/../../../../arm-elf/lib/interwork/libc.a(lib_a-strerror.o)
                0x1004bb90                strerror
 .glue_7        0x1004c218        0x0 /usr/local/arm-elf-tools/gcc-4.3.3/lib/gcc/arm-elf/4.3.3/../../../../arm-elf/lib/interwork/libc.a(lib_a-strerror.o)
 .glue_7t       0x1004c218        0x0 /usr/local/arm-elf-tools/gcc-4.3.3/lib/gcc/arm-elf/4.3.3/../../../../arm-elf/lib/interwork/libc.a(lib_a-strerror.o)
 .text          0x1004c218     0x111c /usr/local/arm-elf-tools/gcc-4.3.3/lib/gcc/arm-elf/4.3.3/../../../../arm-elf/lib/interwork/libc.a(lib_a-strftime.o)
                0x1004c3d8                strftime
 .glue_7        0x1004d334        0x0 /usr/local/arm-elf-tools/gcc-4.3.3/lib/gcc/arm-elf/4.3.3/../../../../arm-elf/lib/interwork/libc.a(lib_a-strftime.o)
 .glue_7t       0x1004d334        0x0 /usr/local/arm-elf-tools/gcc-4.3.3/lib/gcc/arm-elf/4.3.3/../../../../arm-elf/lib/interwork/libc.a(lib_a-strftime.o)
 .text          0x1004d334       0xa0 /usr/local/arm-elf-tools/gcc-4.3.3/lib/gcc/arm-elf/4.3.3/../../../../arm-elf/lib/interwork/libc.a(lib_a-strlen.o)
                0x1004d334                strlen
 .glue_7        0x1004d3d4        0x0 /usr/local/arm-elf-tools/gcc-4.3.3/lib/gcc/arm-elf/4.3.3/../../../../arm-elf/lib/interwork/libc.a(lib_a-strlen.o)
 .glue_7t       0x1004d3d4        0x0 /usr/local/arm-elf-tools/gcc-4.3.3/lib/gcc/arm-elf/4.3.3/../../../../arm-elf/lib/interwork/libc.a(lib_a-strlen.o)
 .text          0x1004d3d4       0xe4 /usr/local/arm-elf-tools/gcc-4.3.3/lib/gcc/arm-elf/4.3.3/../../../../arm-elf/lib/interwork/libc.a(lib_a-strncat.o)
                0x1004d3d4                strncat
 .glue_7        0x1004d4b8        0x0 /usr/local/arm-elf-tools/gcc-4.3.3/lib/gcc/arm-elf/4.3.3/../../../../arm-elf/lib/interwork/libc.a(lib_a-strncat.o)
 .glue_7t       0x1004d4b8        0x0 /usr/local/arm-elf-tools/gcc-4.3.3/lib/gcc/arm-elf/4.3.3/../../../../arm-elf/lib/interwork/libc.a(lib_a-strncat.o)
 .text          0x1004d4b8      0x144 /usr/local/arm-elf-tools/gcc-4.3.3/lib/gcc/arm-elf/4.3.3/../../../../arm-elf/lib/interwork/libc.a(lib_a-strncmp.o)
                0x1004d4b8                strncmp
 .glue_7        0x1004d5fc        0x0 /usr/local/arm-elf-tools/gcc-4.3.3/lib/gcc/arm-elf/4.3.3/../../../../arm-elf/lib/interwork/libc.a(lib_a-strncmp.o)
 .glue_7t       0x1004d5fc        0x0 /usr/local/arm-elf-tools/gcc-4.3.3/lib/gcc/arm-elf/4.3.3/../../../../arm-elf/lib/interwork/libc.a(lib_a-strncmp.o)
 .text          0x1004d5fc      0x10c /usr/local/arm-elf-tools/gcc-4.3.3/lib/gcc/arm-elf/4.3.3/../../../../arm-elf/lib/interwork/libc.a(lib_a-strncpy.o)
                0x1004d5fc                strncpy
 .glue_7        0x1004d708        0x0 /usr/local/arm-elf-tools/gcc-4.3.3/lib/gcc/arm-elf/4.3.3/../../../../arm-elf/lib/interwork/libc.a(lib_a-strncpy.o)
 .glue_7t       0x1004d708        0x0 /usr/local/arm-elf-tools/gcc-4.3.3/lib/gcc/arm-elf/4.3.3/../../../../arm-elf/lib/interwork/libc.a(lib_a-strncpy.o)
 .text          0x1004d708       0x4c /usr/local/arm-elf-tools/gcc-4.3.3/lib/gcc/arm-elf/4.3.3/../../../../arm-elf/lib/interwork/libc.a(lib_a-strnlen.o)
                0x1004d708                strnlen
 .glue_7        0x1004d754        0x0 /usr/local/arm-elf-tools/gcc-4.3.3/lib/gcc/arm-elf/4.3.3/../../../../arm-elf/lib/interwork/libc.a(lib_a-strnlen.o)
 .glue_7t       0x1004d754        0x0 /usr/local/arm-elf-tools/gcc-4.3.3/lib/gcc/arm-elf/4.3.3/../../../../arm-elf/lib/interwork/libc.a(lib_a-strnlen.o)
 .text          0x1004d754       0x74 /usr/local/arm-elf-tools/gcc-4.3.3/lib/gcc/arm-elf/4.3.3/../../../../arm-elf/lib/interwork/libc.a(lib_a-strpbrk.o)
                0x1004d754                strpbrk
 .glue_7        0x1004d7c8        0x0 /usr/local/arm-elf-tools/gcc-4.3.3/lib/gcc/arm-elf/4.3.3/../../../../arm-elf/lib/interwork/libc.a(lib_a-strpbrk.o)
 .glue_7t       0x1004d7c8        0x0 /usr/local/arm-elf-tools/gcc-4.3.3/lib/gcc/arm-elf/4.3.3/../../../../arm-elf/lib/interwork/libc.a(lib_a-strpbrk.o)
 .text          0x1004d7c8       0x4c /usr/local/arm-elf-tools/gcc-4.3.3/lib/gcc/arm-elf/4.3.3/../../../../arm-elf/lib/interwork/libc.a(lib_a-strrchr.o)
                0x1004d7c8                strrchr
 .glue_7        0x1004d814        0x0 /usr/local/arm-elf-tools/gcc-4.3.3/lib/gcc/arm-elf/4.3.3/../../../../arm-elf/lib/interwork/libc.a(lib_a-strrchr.o)
 .glue_7t       0x1004d814        0x0 /usr/local/arm-elf-tools/gcc-4.3.3/lib/gcc/arm-elf/4.3.3/../../../../arm-elf/lib/interwork/libc.a(lib_a-strrchr.o)
 .text          0x1004d814      0x86c /usr/local/arm-elf-tools/gcc-4.3.3/lib/gcc/arm-elf/4.3.3/../../../../arm-elf/lib/interwork/libc.a(lib_a-strstr.o)
                0x1004dce8                strstr
 .glue_7        0x1004e080        0x0 /usr/local/arm-elf-tools/gcc-4.3.3/lib/gcc/arm-elf/4.3.3/../../../../arm-elf/lib/interwork/libc.a(lib_a-strstr.o)
 .glue_7t       0x1004e080        0x0 /usr/local/arm-elf-tools/gcc-4.3.3/lib/gcc/arm-elf/4.3.3/../../../../arm-elf/lib/interwork/libc.a(lib_a-strstr.o)
 .text          0x1004e080     0x1834 /usr/local/arm-elf-tools/gcc-4.3.3/lib/gcc/arm-elf/4.3.3/../../../../arm-elf/lib/interwork/libc.a(lib_a-strtod.o)
                0x1004e080                _strtod_r
                0x1004f898                strtod
                0x1004f844                strtof
 .glue_7        0x1004f8b4        0x0 /usr/local/arm-elf-tools/gcc-4.3.3/lib/gcc/arm-elf/4.3.3/../../../../arm-elf/lib/interwork/libc.a(lib_a-strtod.o)
 .glue_7t       0x1004f8b4        0x0 /usr/local/arm-elf-tools/gcc-4.3.3/lib/gcc/arm-elf/4.3.3/../../../../arm-elf/lib/interwork/libc.a(lib_a-strtod.o)
 .text          0x1004f8b4      0x1f0 /usr/local/arm-elf-tools/gcc-4.3.3/lib/gcc/arm-elf/4.3.3/../../../../arm-elf/lib/interwork/libc.a(lib_a-strtoul.o)
                0x1004fa78                strtoul
                0x1004f8b4                _strtoul_r
 .glue_7        0x1004faa4        0x0 /usr/local/arm-elf-tools/gcc-4.3.3/lib/gcc/arm-elf/4.3.3/../../../../arm-elf/lib/interwork/libc.a(lib_a-strtoul.o)
 .glue_7t       0x1004faa4        0x0 /usr/local/arm-elf-tools/gcc-4.3.3/lib/gcc/arm-elf/4.3.3/../../../../arm-elf/lib/interwork/libc.a(lib_a-strtoul.o)
 .text          0x1004faa4     0x1dd4 /usr/local/arm-elf-tools/gcc-4.3.3/lib/gcc/arm-elf/4.3.3/../../../../arm-elf/lib/interwork/libc.a(lib_a-svfprintf.o)
                0x1004fc3c                _svfprintf_r
 .glue_7        0x10051878        0x0 /usr/local/arm-elf-tools/gcc-4.3.3/lib/gcc/arm-elf/4.3.3/../../../../arm-elf/lib/interwork/libc.a(lib_a-svfprintf.o)
 .glue_7t       0x10051878        0x0 /usr/local/arm-elf-tools/gcc-4.3.3/lib/gcc/arm-elf/4.3.3/../../../../arm-elf/lib/interwork/libc.a(lib_a-svfprintf.o)
 .text          0x10051878       0x20 /usr/local/arm-elf-tools/gcc-4.3.3/lib/gcc/arm-elf/4.3.3/../../../../arm-elf/lib/interwork/libc.a(lib_a-sysclose.o)
                0x10051878                close
 .glue_7        0x10051898        0x0 /usr/local/arm-elf-tools/gcc-4.3.3/lib/gcc/arm-elf/4.3.3/../../../../arm-elf/lib/interwork/libc.a(lib_a-sysclose.o)
 .glue_7t       0x10051898        0x0 /usr/local/arm-elf-tools/gcc-4.3.3/lib/gcc/arm-elf/4.3.3/../../../../arm-elf/lib/interwork/libc.a(lib_a-sysclose.o)
 .text          0x10051898       0x28 /usr/local/arm-elf-tools/gcc-4.3.3/lib/gcc/arm-elf/4.3.3/../../../../arm-elf/lib/interwork/libc.a(lib_a-sysgettod.o)
                0x10051898                gettimeofday
 .glue_7        0x100518c0        0x0 /usr/local/arm-elf-tools/gcc-4.3.3/lib/gcc/arm-elf/4.3.3/../../../../arm-elf/lib/interwork/libc.a(lib_a-sysgettod.o)
 .glue_7t       0x100518c0        0x0 /usr/local/arm-elf-tools/gcc-4.3.3/lib/gcc/arm-elf/4.3.3/../../../../arm-elf/lib/interwork/libc.a(lib_a-sysgettod.o)
 .text          0x100518c0       0x30 /usr/local/arm-elf-tools/gcc-4.3.3/lib/gcc/arm-elf/4.3.3/../../../../arm-elf/lib/interwork/libc.a(lib_a-sysopen.o)
                0x100518c0                open
 .glue_7        0x100518f0        0x0 /usr/local/arm-elf-tools/gcc-4.3.3/lib/gcc/arm-elf/4.3.3/../../../../arm-elf/lib/interwork/libc.a(lib_a-sysopen.o)
 .glue_7t       0x100518f0        0x0 /usr/local/arm-elf-tools/gcc-4.3.3/lib/gcc/arm-elf/4.3.3/../../../../arm-elf/lib/interwork/libc.a(lib_a-sysopen.o)
 .text          0x100518f0       0x30 /usr/local/arm-elf-tools/gcc-4.3.3/lib/gcc/arm-elf/4.3.3/../../../../arm-elf/lib/interwork/libc.a(lib_a-sysread.o)
                0x100518f0                read
 .glue_7        0x10051920        0x0 /usr/local/arm-elf-tools/gcc-4.3.3/lib/gcc/arm-elf/4.3.3/../../../../arm-elf/lib/interwork/libc.a(lib_a-sysread.o)
 .glue_7t       0x10051920        0x0 /usr/local/arm-elf-tools/gcc-4.3.3/lib/gcc/arm-elf/4.3.3/../../../../arm-elf/lib/interwork/libc.a(lib_a-sysread.o)
 .text          0x10051920       0x3c /usr/local/arm-elf-tools/gcc-4.3.3/lib/gcc/arm-elf/4.3.3/../../../../arm-elf/lib/interwork/libc.a(lib_a-system.o)
                0x10051948                system
                0x10051920                _system_r
 .glue_7        0x1005195c        0x0 /usr/local/arm-elf-tools/gcc-4.3.3/lib/gcc/arm-elf/4.3.3/../../../../arm-elf/lib/interwork/libc.a(lib_a-system.o)
 .glue_7t       0x1005195c        0x0 /usr/local/arm-elf-tools/gcc-4.3.3/lib/gcc/arm-elf/4.3.3/../../../../arm-elf/lib/interwork/libc.a(lib_a-system.o)
 .text          0x1005195c       0x20 /usr/local/arm-elf-tools/gcc-4.3.3/lib/gcc/arm-elf/4.3.3/../../../../arm-elf/lib/interwork/libc.a(lib_a-sysunlink.o)
                0x1005195c                unlink
 .glue_7        0x1005197c        0x0 /usr/local/arm-elf-tools/gcc-4.3.3/lib/gcc/arm-elf/4.3.3/../../../../arm-elf/lib/interwork/libc.a(lib_a-sysunlink.o)
 .glue_7t       0x1005197c        0x0 /usr/local/arm-elf-tools/gcc-4.3.3/lib/gcc/arm-elf/4.3.3/../../../../arm-elf/lib/interwork/libc.a(lib_a-sysunlink.o)
 .text          0x1005197c       0x30 /usr/local/arm-elf-tools/gcc-4.3.3/lib/gcc/arm-elf/4.3.3/../../../../arm-elf/lib/interwork/libc.a(lib_a-syswrite.o)
                0x1005197c                write
 .glue_7        0x100519ac        0x0 /usr/local/arm-elf-tools/gcc-4.3.3/lib/gcc/arm-elf/4.3.3/../../../../arm-elf/lib/interwork/libc.a(lib_a-syswrite.o)
 .glue_7t       0x100519ac        0x0 /usr/local/arm-elf-tools/gcc-4.3.3/lib/gcc/arm-elf/4.3.3/../../../../arm-elf/lib/interwork/libc.a(lib_a-syswrite.o)
 .text          0x100519ac       0x4c /usr/local/arm-elf-tools/gcc-4.3.3/lib/gcc/arm-elf/4.3.3/../../../../arm-elf/lib/interwork/libc.a(lib_a-time.o)
                0x100519ac                time
 .glue_7        0x100519f8        0x0 /usr/local/arm-elf-tools/gcc-4.3.3/lib/gcc/arm-elf/4.3.3/../../../../arm-elf/lib/interwork/libc.a(lib_a-time.o)
 .glue_7t       0x100519f8        0x0 /usr/local/arm-elf-tools/gcc-4.3.3/lib/gcc/arm-elf/4.3.3/../../../../arm-elf/lib/interwork/libc.a(lib_a-time.o)
 .text          0x100519f8       0x14 /usr/local/arm-elf-tools/gcc-4.3.3/lib/gcc/arm-elf/4.3.3/../../../../arm-elf/lib/interwork/libc.a(lib_a-timesr.o)
                0x100519f8                _times_r
 .glue_7        0x10051a0c        0x0 /usr/local/arm-elf-tools/gcc-4.3.3/lib/gcc/arm-elf/4.3.3/../../../../arm-elf/lib/interwork/libc.a(lib_a-timesr.o)
 .glue_7t       0x10051a0c        0x0 /usr/local/arm-elf-tools/gcc-4.3.3/lib/gcc/arm-elf/4.3.3/../../../../arm-elf/lib/interwork/libc.a(lib_a-timesr.o)
 .text          0x10051a0c       0xb8 /usr/local/arm-elf-tools/gcc-4.3.3/lib/gcc/arm-elf/4.3.3/../../../../arm-elf/lib/interwork/libc.a(lib_a-tmpfile.o)
                0x10051ab4                tmpfile
                0x10051a0c                _tmpfile_r
 .glue_7        0x10051ac4        0x0 /usr/local/arm-elf-tools/gcc-4.3.3/lib/gcc/arm-elf/4.3.3/../../../../arm-elf/lib/interwork/libc.a(lib_a-tmpfile.o)
 .glue_7t       0x10051ac4        0x0 /usr/local/arm-elf-tools/gcc-4.3.3/lib/gcc/arm-elf/4.3.3/../../../../arm-elf/lib/interwork/libc.a(lib_a-tmpfile.o)
 .text          0x10051ac4      0x1f4 /usr/local/arm-elf-tools/gcc-4.3.3/lib/gcc/arm-elf/4.3.3/../../../../arm-elf/lib/interwork/libc.a(lib_a-tmpnam.o)
                0x10051c3c                _tmpnam_r
                0x10051ca4                tmpnam
                0x10051b64                _tempnam_r
                0x10051c20                tempnam
 .glue_7        0x10051cb8        0x0 /usr/local/arm-elf-tools/gcc-4.3.3/lib/gcc/arm-elf/4.3.3/../../../../arm-elf/lib/interwork/libc.a(lib_a-tmpnam.o)
 .glue_7t       0x10051cb8        0x0 /usr/local/arm-elf-tools/gcc-4.3.3/lib/gcc/arm-elf/4.3.3/../../../../arm-elf/lib/interwork/libc.a(lib_a-tmpnam.o)
 .text          0x10051cb8        0x8 /usr/local/arm-elf-tools/gcc-4.3.3/lib/gcc/arm-elf/4.3.3/../../../../arm-elf/lib/interwork/libc.a(lib_a-tzlock.o)
                0x10051cbc                __tz_unlock
                0x10051cb8                __tz_lock
 .glue_7        0x10051cc0        0x0 /usr/local/arm-elf-tools/gcc-4.3.3/lib/gcc/arm-elf/4.3.3/../../../../arm-elf/lib/interwork/libc.a(lib_a-tzlock.o)
 .glue_7t       0x10051cc0        0x0 /usr/local/arm-elf-tools/gcc-4.3.3/lib/gcc/arm-elf/4.3.3/../../../../arm-elf/lib/interwork/libc.a(lib_a-tzlock.o)
 .text          0x10051cc0        0x0 /usr/local/arm-elf-tools/gcc-4.3.3/lib/gcc/arm-elf/4.3.3/../../../../arm-elf/lib/interwork/libc.a(lib_a-tzvars.o)
 .glue_7        0x10051cc0        0x0 /usr/local/arm-elf-tools/gcc-4.3.3/lib/gcc/arm-elf/4.3.3/../../../../arm-elf/lib/interwork/libc.a(lib_a-tzvars.o)
 .glue_7t       0x10051cc0        0x0 /usr/local/arm-elf-tools/gcc-4.3.3/lib/gcc/arm-elf/4.3.3/../../../../arm-elf/lib/interwork/libc.a(lib_a-tzvars.o)
 .text          0x10051cc0      0x288 /usr/local/arm-elf-tools/gcc-4.3.3/lib/gcc/arm-elf/4.3.3/../../../../arm-elf/lib/interwork/libc.a(lib_a-ungetc.o)
                0x10051f2c                ungetc
                0x10051cc0                __submore
                0x10051d6c                _ungetc_r
 .glue_7        0x10051f48        0x0 /usr/local/arm-elf-tools/gcc-4.3.3/lib/gcc/arm-elf/4.3.3/../../../../arm-elf/lib/interwork/libc.a(lib_a-ungetc.o)
 .glue_7t       0x10051f48        0x0 /usr/local/arm-elf-tools/gcc-4.3.3/lib/gcc/arm-elf/4.3.3/../../../../arm-elf/lib/interwork/libc.a(lib_a-ungetc.o)
 .text          0x10051f48        0x8 /usr/local/arm-elf-tools/gcc-4.3.3/lib/gcc/arm-elf/4.3.3/../../../../arm-elf/lib/interwork/libc.a(lib_a-u_strerr.o)
                0x10051f48                _user_strerror
 .glue_7        0x10051f50        0x0 /usr/local/arm-elf-tools/gcc-4.3.3/lib/gcc/arm-elf/4.3.3/../../../../arm-elf/lib/interwork/libc.a(lib_a-u_strerr.o)
 .glue_7t       0x10051f50        0x0 /usr/local/arm-elf-tools/gcc-4.3.3/lib/gcc/arm-elf/4.3.3/../../../../arm-elf/lib/interwork/libc.a(lib_a-u_strerr.o)
 .text          0x10051f50     0x1ea8 /usr/local/arm-elf-tools/gcc-4.3.3/lib/gcc/arm-elf/4.3.3/../../../../arm-elf/lib/interwork/libc.a(lib_a-vfprintf.o)
                0x10051f84                _vfprintf_r
                0x10053dcc                vfprintf
 .glue_7        0x10053df8        0x0 /usr/local/arm-elf-tools/gcc-4.3.3/lib/gcc/arm-elf/4.3.3/../../../../arm-elf/lib/interwork/libc.a(lib_a-vfprintf.o)
 .glue_7t       0x10053df8        0x0 /usr/local/arm-elf-tools/gcc-4.3.3/lib/gcc/arm-elf/4.3.3/../../../../arm-elf/lib/interwork/libc.a(lib_a-vfprintf.o)
 .text          0x10053df8     0x165c /usr/local/arm-elf-tools/gcc-4.3.3/lib/gcc/arm-elf/4.3.3/../../../../arm-elf/lib/interwork/libc.a(lib_a-vfscanf.o)
                0x100553a0                __svfscanf
                0x100553cc                _vfscanf_r
                0x10055408                vfscanf
                0x10053df8                __svfscanf_r
 .glue_7        0x10055454        0x0 /usr/local/arm-elf-tools/gcc-4.3.3/lib/gcc/arm-elf/4.3.3/../../../../arm-elf/lib/interwork/libc.a(lib_a-vfscanf.o)
 .glue_7t       0x10055454        0x0 /usr/local/arm-elf-tools/gcc-4.3.3/lib/gcc/arm-elf/4.3.3/../../../../arm-elf/lib/interwork/libc.a(lib_a-vfscanf.o)
 .text          0x10055454       0xcc /usr/local/arm-elf-tools/gcc-4.3.3/lib/gcc/arm-elf/4.3.3/../../../../arm-elf/lib/interwork/libc.a(lib_a-vsnprintf.o)
                0x100554dc                vsnprintf
                0x10055454                _vsnprintf_r
 .glue_7        0x10055520        0x0 /usr/local/arm-elf-tools/gcc-4.3.3/lib/gcc/arm-elf/4.3.3/../../../../arm-elf/lib/interwork/libc.a(lib_a-vsnprintf.o)
 .glue_7t       0x10055520        0x0 /usr/local/arm-elf-tools/gcc-4.3.3/lib/gcc/arm-elf/4.3.3/../../../../arm-elf/lib/interwork/libc.a(lib_a-vsnprintf.o)
 .text          0x10055520      0x164 /usr/local/arm-elf-tools/gcc-4.3.3/lib/gcc/arm-elf/4.3.3/../../../../arm-elf/lib/interwork/libc.a(lib_a-wbuf.o)
                0x10055520                __swbuf_r
                0x10055668                __swbuf
 .glue_7        0x10055684        0x0 /usr/local/arm-elf-tools/gcc-4.3.3/lib/gcc/arm-elf/4.3.3/../../../../arm-elf/lib/interwork/libc.a(lib_a-wbuf.o)
 .glue_7t       0x10055684        0x0 /usr/local/arm-elf-tools/gcc-4.3.3/lib/gcc/arm-elf/4.3.3/../../../../arm-elf/lib/interwork/libc.a(lib_a-wbuf.o)
 .text          0x10055684      0x144 /usr/local/arm-elf-tools/gcc-4.3.3/lib/gcc/arm-elf/4.3.3/../../../../arm-elf/lib/interwork/libc.a(lib_a-wsetup.o)
                0x10055684                __swsetup_r
 .glue_7        0x100557c8        0x0 /usr/local/arm-elf-tools/gcc-4.3.3/lib/gcc/arm-elf/4.3.3/../../../../arm-elf/lib/interwork/libc.a(lib_a-wsetup.o)
 .glue_7t       0x100557c8        0x0 /usr/local/arm-elf-tools/gcc-4.3.3/lib/gcc/arm-elf/4.3.3/../../../../arm-elf/lib/interwork/libc.a(lib_a-wsetup.o)
 .text          0x100557c8        0xc /usr/local/arm-elf-tools/gcc-4.3.3/lib/gcc/arm-elf/4.3.3/../../../../arm-elf/lib/interwork/libc.a(lib_a-abs.o)
                0x100557c8                abs
 .glue_7        0x100557d4        0x0 /usr/local/arm-elf-tools/gcc-4.3.3/lib/gcc/arm-elf/4.3.3/../../../../arm-elf/lib/interwork/libc.a(lib_a-abs.o)
 .glue_7t       0x100557d4        0x0 /usr/local/arm-elf-tools/gcc-4.3.3/lib/gcc/arm-elf/4.3.3/../../../../arm-elf/lib/interwork/libc.a(lib_a-abs.o)
 .text          0x100557d4      0x150 /usr/local/arm-elf-tools/gcc-4.3.3/lib/gcc/arm-elf/4.3.3/../../../../arm-elf/lib/interwork/libc.a(lib_a-__call_atexit.o)
                0x100557d4                __call_exitprocs
 .glue_7        0x10055924        0x0 /usr/local/arm-elf-tools/gcc-4.3.3/lib/gcc/arm-elf/4.3.3/../../../../arm-elf/lib/interwork/libc.a(lib_a-__call_atexit.o)
 .glue_7t       0x10055924        0x0 /usr/local/arm-elf-tools/gcc-4.3.3/lib/gcc/arm-elf/4.3.3/../../../../arm-elf/lib/interwork/libc.a(lib_a-__call_atexit.o)
 .text          0x10055924       0x64 /usr/local/arm-elf-tools/gcc-4.3.3/lib/gcc/arm-elf/4.3.3/../../../../arm-elf/lib/interwork/libc.a(lib_a-div.o)
                0x10055924                div
 .glue_7        0x10055988        0x0 /usr/local/arm-elf-tools/gcc-4.3.3/lib/gcc/arm-elf/4.3.3/../../../../arm-elf/lib/interwork/libc.a(lib_a-div.o)
 .glue_7t       0x10055988        0x0 /usr/local/arm-elf-tools/gcc-4.3.3/lib/gcc/arm-elf/4.3.3/../../../../arm-elf/lib/interwork/libc.a(lib_a-div.o)
 .text          0x10055988     0x16f8 /usr/local/arm-elf-tools/gcc-4.3.3/lib/gcc/arm-elf/4.3.3/../../../../arm-elf/lib/interwork/libc.a(lib_a-dtoa.o)
                0x10055b84                _dtoa_r
 .glue_7        0x10057080        0x0 /usr/local/arm-elf-tools/gcc-4.3.3/lib/gcc/arm-elf/4.3.3/../../../../arm-elf/lib/interwork/libc.a(lib_a-dtoa.o)
 .glue_7t       0x10057080        0x0 /usr/local/arm-elf-tools/gcc-4.3.3/lib/gcc/arm-elf/4.3.3/../../../../arm-elf/lib/interwork/libc.a(lib_a-dtoa.o)
 .text          0x10057080        0x0 /usr/local/arm-elf-tools/gcc-4.3.3/lib/gcc/arm-elf/4.3.3/../../../../arm-elf/lib/interwork/libc.a(lib_a-environ.o)
 .glue_7        0x10057080        0x0 /usr/local/arm-elf-tools/gcc-4.3.3/lib/gcc/arm-elf/4.3.3/../../../../arm-elf/lib/interwork/libc.a(lib_a-environ.o)
 .glue_7t       0x10057080        0x0 /usr/local/arm-elf-tools/gcc-4.3.3/lib/gcc/arm-elf/4.3.3/../../../../arm-elf/lib/interwork/libc.a(lib_a-environ.o)
 .text          0x10057080        0x8 /usr/local/arm-elf-tools/gcc-4.3.3/lib/gcc/arm-elf/4.3.3/../../../../arm-elf/lib/interwork/libc.a(lib_a-envlock.o)
                0x10057084                __env_unlock
                0x10057080                __env_lock
 .glue_7        0x10057088        0x0 /usr/local/arm-elf-tools/gcc-4.3.3/lib/gcc/arm-elf/4.3.3/../../../../arm-elf/lib/interwork/libc.a(lib_a-envlock.o)
 .glue_7t       0x10057088        0x0 /usr/local/arm-elf-tools/gcc-4.3.3/lib/gcc/arm-elf/4.3.3/../../../../arm-elf/lib/interwork/libc.a(lib_a-envlock.o)
 .text          0x10057088      0x8b0 /usr/local/arm-elf-tools/gcc-4.3.3/lib/gcc/arm-elf/4.3.3/../../../../arm-elf/lib/interwork/libc.a(lib_a-gdtoa-gethex.o)
                0x10057088                __hexdig_init
                0x10057210                __gethex
 .glue_7        0x10057938        0x0 /usr/local/arm-elf-tools/gcc-4.3.3/lib/gcc/arm-elf/4.3.3/../../../../arm-elf/lib/interwork/libc.a(lib_a-gdtoa-gethex.o)
 .glue_7t       0x10057938        0x0 /usr/local/arm-elf-tools/gcc-4.3.3/lib/gcc/arm-elf/4.3.3/../../../../arm-elf/lib/interwork/libc.a(lib_a-gdtoa-gethex.o)
 .text          0x10057938      0x270 /usr/local/arm-elf-tools/gcc-4.3.3/lib/gcc/arm-elf/4.3.3/../../../../arm-elf/lib/interwork/libc.a(lib_a-gdtoa-hexnan.o)
                0x10057938                __hexnan
 .glue_7        0x10057ba8        0x0 /usr/local/arm-elf-tools/gcc-4.3.3/lib/gcc/arm-elf/4.3.3/../../../../arm-elf/lib/interwork/libc.a(lib_a-gdtoa-hexnan.o)
 .glue_7t       0x10057ba8        0x0 /usr/local/arm-elf-tools/gcc-4.3.3/lib/gcc/arm-elf/4.3.3/../../../../arm-elf/lib/interwork/libc.a(lib_a-gdtoa-hexnan.o)
 .text          0x10057ba8       0x40 /usr/local/arm-elf-tools/gcc-4.3.3/lib/gcc/arm-elf/4.3.3/../../../../arm-elf/lib/interwork/libc.a(lib_a-gettimeofdayr.o)
                0x10057ba8                _gettimeofday_r
 .glue_7        0x10057be8        0x0 /usr/local/arm-elf-tools/gcc-4.3.3/lib/gcc/arm-elf/4.3.3/../../../../arm-elf/lib/interwork/libc.a(lib_a-gettimeofdayr.o)
 .glue_7t       0x10057be8        0x0 /usr/local/arm-elf-tools/gcc-4.3.3/lib/gcc/arm-elf/4.3.3/../../../../arm-elf/lib/interwork/libc.a(lib_a-gettimeofdayr.o)
 .text          0x10057be8        0xc /usr/local/arm-elf-tools/gcc-4.3.3/lib/gcc/arm-elf/4.3.3/../../../../arm-elf/lib/interwork/libc.a(lib_a-gettzinfo.o)
                0x10057be8                __gettzinfo
 .glue_7        0x10057bf4        0x0 /usr/local/arm-elf-tools/gcc-4.3.3/lib/gcc/arm-elf/4.3.3/../../../../arm-elf/lib/interwork/libc.a(lib_a-gettzinfo.o)
 .glue_7t       0x10057bf4        0x0 /usr/local/arm-elf-tools/gcc-4.3.3/lib/gcc/arm-elf/4.3.3/../../../../arm-elf/lib/interwork/libc.a(lib_a-gettzinfo.o)
 .text          0x10057bf4       0x3c /usr/local/arm-elf-tools/gcc-4.3.3/lib/gcc/arm-elf/4.3.3/../../../../arm-elf/lib/interwork/libc.a(lib_a-isattyr.o)
                0x10057bf4                _isatty_r
 .glue_7        0x10057c30        0x0 /usr/local/arm-elf-tools/gcc-4.3.3/lib/gcc/arm-elf/4.3.3/../../../../arm-elf/lib/interwork/libc.a(lib_a-isattyr.o)
 .glue_7t       0x10057c30        0x0 /usr/local/arm-elf-tools/gcc-4.3.3/lib/gcc/arm-elf/4.3.3/../../../../arm-elf/lib/interwork/libc.a(lib_a-isattyr.o)
 .text          0x10057c30       0x24 /usr/local/arm-elf-tools/gcc-4.3.3/lib/gcc/arm-elf/4.3.3/../../../../arm-elf/lib/interwork/libc.a(lib_a-iswspace.o)
                0x10057c30                iswspace
 .glue_7        0x10057c54        0x0 /usr/local/arm-elf-tools/gcc-4.3.3/lib/gcc/arm-elf/4.3.3/../../../../arm-elf/lib/interwork/libc.a(lib_a-iswspace.o)
 .glue_7t       0x10057c54        0x0 /usr/local/arm-elf-tools/gcc-4.3.3/lib/gcc/arm-elf/4.3.3/../../../../arm-elf/lib/interwork/libc.a(lib_a-iswspace.o)
 .text          0x10057c54        0xc /usr/local/arm-elf-tools/gcc-4.3.3/lib/gcc/arm-elf/4.3.3/../../../../arm-elf/lib/interwork/libc.a(lib_a-labs.o)
                0x10057c54                labs
 .glue_7        0x10057c60        0x0 /usr/local/arm-elf-tools/gcc-4.3.3/lib/gcc/arm-elf/4.3.3/../../../../arm-elf/lib/interwork/libc.a(lib_a-labs.o)
 .glue_7t       0x10057c60        0x0 /usr/local/arm-elf-tools/gcc-4.3.3/lib/gcc/arm-elf/4.3.3/../../../../arm-elf/lib/interwork/libc.a(lib_a-labs.o)
 .text          0x10057c60       0xa0 /usr/local/arm-elf-tools/gcc-4.3.3/lib/gcc/arm-elf/4.3.3/../../../../arm-elf/lib/interwork/libc.a(lib_a-mbrtowc.o)
                0x10057cbc                mbrtowc
                0x10057c60                _mbrtowc_r
 .glue_7        0x10057d00        0x0 /usr/local/arm-elf-tools/gcc-4.3.3/lib/gcc/arm-elf/4.3.3/../../../../arm-elf/lib/interwork/libc.a(lib_a-mbrtowc.o)
 .glue_7t       0x10057d00        0x0 /usr/local/arm-elf-tools/gcc-4.3.3/lib/gcc/arm-elf/4.3.3/../../../../arm-elf/lib/interwork/libc.a(lib_a-mbrtowc.o)
 .text          0x10057d00       0x54 /usr/local/arm-elf-tools/gcc-4.3.3/lib/gcc/arm-elf/4.3.3/../../../../arm-elf/lib/interwork/libc.a(lib_a-mbtowc_r.o)
                0x10057d00                _mbtowc_r
 .glue_7        0x10057d54        0x0 /usr/local/arm-elf-tools/gcc-4.3.3/lib/gcc/arm-elf/4.3.3/../../../../arm-elf/lib/interwork/libc.a(lib_a-mbtowc_r.o)
 .glue_7t       0x10057d54        0x0 /usr/local/arm-elf-tools/gcc-4.3.3/lib/gcc/arm-elf/4.3.3/../../../../arm-elf/lib/interwork/libc.a(lib_a-mbtowc_r.o)
 .text          0x10057d54      0xdcc /usr/local/arm-elf-tools/gcc-4.3.3/lib/gcc/arm-elf/4.3.3/../../../../arm-elf/lib/interwork/libc.a(lib_a-mprec.o)
                0x1005805c                _mprec_log10
                0x1005813c                __any_on
                0x100581d8                _Balloc
                0x10057fdc                __ratio
                0x10058838                __i2b
                0x10057f1c                __b2d
                0x10058a38                __s2b
                0x10057e5c                __mcmp
                0x10057d70                __hi0bits
                0x1005893c                __pow5mult
                0x10058514                __lshift
                0x1005863c                __multiply
                0x10058260                __d2b
                0x100580b4                __copybits
                0x10057ebc                __ulp
                0x10058380                __mdiff
                0x10057dc8                __lo0bits
                0x1005885c                __multadd
                0x10057d54                _Bfree
 .glue_7        0x10058b20        0x0 /usr/local/arm-elf-tools/gcc-4.3.3/lib/gcc/arm-elf/4.3.3/../../../../arm-elf/lib/interwork/libc.a(lib_a-mprec.o)
 .glue_7t       0x10058b20        0x0 /usr/local/arm-elf-tools/gcc-4.3.3/lib/gcc/arm-elf/4.3.3/../../../../arm-elf/lib/interwork/libc.a(lib_a-mprec.o)
 .text          0x10058b20      0x198 /usr/local/arm-elf-tools/gcc-4.3.3/lib/gcc/arm-elf/4.3.3/../../../../arm-elf/lib/interwork/libc.a(lib_a-reent.o)
                0x10058b94                cleanup_glue
                0x10058bc0                _reclaim_reent
                0x10058b20                _wrapup_reent
 .glue_7        0x10058cb8        0x0 /usr/local/arm-elf-tools/gcc-4.3.3/lib/gcc/arm-elf/4.3.3/../../../../arm-elf/lib/interwork/libc.a(lib_a-reent.o)
 .glue_7t       0x10058cb8        0x0 /usr/local/arm-elf-tools/gcc-4.3.3/lib/gcc/arm-elf/4.3.3/../../../../arm-elf/lib/interwork/libc.a(lib_a-reent.o)
 .text          0x10058cb8       0xc8 /usr/local/arm-elf-tools/gcc-4.3.3/lib/gcc/arm-elf/4.3.3/../../../../arm-elf/lib/interwork/libc.a(lib_a-sccl.o)
                0x10058cb8                __sccl
 .glue_7        0x10058d80        0x0 /usr/local/arm-elf-tools/gcc-4.3.3/lib/gcc/arm-elf/4.3.3/../../../../arm-elf/lib/interwork/libc.a(lib_a-sccl.o)
 .glue_7t       0x10058d80        0x0 /usr/local/arm-elf-tools/gcc-4.3.3/lib/gcc/arm-elf/4.3.3/../../../../arm-elf/lib/interwork/libc.a(lib_a-sccl.o)
 .text          0x10058d80        0xc /usr/local/arm-elf-tools/gcc-4.3.3/lib/gcc/arm-elf/4.3.3/../../../../arm-elf/lib/interwork/libc.a(lib_a-sf_nan.o)
                0x10058d80                nanf
 .glue_7        0x10058d8c        0x0 /usr/local/arm-elf-tools/gcc-4.3.3/lib/gcc/arm-elf/4.3.3/../../../../arm-elf/lib/interwork/libc.a(lib_a-sf_nan.o)
 .glue_7t       0x10058d8c        0x0 /usr/local/arm-elf-tools/gcc-4.3.3/lib/gcc/arm-elf/4.3.3/../../../../arm-elf/lib/interwork/libc.a(lib_a-sf_nan.o)
 .text          0x10058d8c       0x3c /usr/local/arm-elf-tools/gcc-4.3.3/lib/gcc/arm-elf/4.3.3/../../../../arm-elf/lib/interwork/libc.a(lib_a-s_isinfd.o)
                0x10058d8c                __isinfd
 .glue_7        0x10058dc8        0x0 /usr/local/arm-elf-tools/gcc-4.3.3/lib/gcc/arm-elf/4.3.3/../../../../arm-elf/lib/interwork/libc.a(lib_a-s_isinfd.o)
 .glue_7t       0x10058dc8        0x0 /usr/local/arm-elf-tools/gcc-4.3.3/lib/gcc/arm-elf/4.3.3/../../../../arm-elf/lib/interwork/libc.a(lib_a-s_isinfd.o)
 .text          0x10058dc8      0x1ec /usr/local/arm-elf-tools/gcc-4.3.3/lib/gcc/arm-elf/4.3.3/../../../../arm-elf/lib/interwork/libc.a(lib_a-strtol.o)
                0x10058f88                strtol
                0x10058dc8                _strtol_r
 .glue_7        0x10058fb4      0x1ec /usr/local/arm-elf-tools/gcc-4.3.3/lib/gcc/arm-elf/4.3.3/../../../../arm-elf/lib/interwork/libc.a(lib_a-strtol.o)
                0x100590bc                __Timer_stop_from_arm
                0x10059170                ___read_r_from_arm
                0x1005905c                __Queue_sendFromISR_from_arm
                0x10059194                ___isatty_from_arm
                0x100590a4                __Io_value_from_arm
                0x10059044                __USBDCallbacks_RequestReceived_from_arm
                0x10059014                __USBDCallbacks_Resumed_from_arm
                0x100590e0                __kill_from_arm
                0x10059188                ___gettimeofday_from_arm
                0x10059164                ___write_r_from_arm
                0x10059068                __Io_init_from_arm
                0x100590c8                __Timer_setProcessingFlag_from_arm
                0x10059050                __Queue_receiveFromISR_from_arm
                0x10058fd8                __USBEndpointDescriptor_GetNumber_from_arm
                0x10059020                __USBDCallbacks_Reset_from_arm
                0x10058ff0                __USBEndpointDescriptor_GetDirection_from_arm
                0x100590b0                __Timer_start_from_arm
                0x1005914c                ___close_r_from_arm
                0x10059038                __USBGenericRequest_GetDirection_from_arm
                0x100590d4                __Timer_closeStopped_from_arm
                0x1005911c                ___fstat_r_from_arm
                0x10059104                ___open_r_from_arm
                0x10059110                ___sbrk_r_from_arm
                0x10059134                ___getpid_r_from_arm
                0x1005917c                ___times_from_arm
                0x10059008                __USBDCallbacks_Suspended_from_arm
                0x10058fb4                __vTaskIncrementTick_from_arm
                0x10058ffc                __USBEndpointDescriptor_GetMaxPacketSize_from_arm
                0x10059074                __Timer_init_from_arm
                0x10059080                __Timer_setHandler_from_arm
                0x10059128                ___unlink_r_from_arm
                0x1005908c                __Io_addInterruptHandler_from_arm
                0x10059140                ___kill_r_from_arm
                0x1005902c                __rprintf_from_arm
                0x10058fe4                __USBEndpointDescriptor_GetType_from_arm
                0x10059098                __event_post_isr_from_arm
                0x10058fcc                __USBDCallbacks_Initialized_from_arm
                0x10059158                ___lseek_r_from_arm
                0x100590ec                __syscallsInit_from_arm
                0x100590f8                ___exit_from_arm
                0x10058fc0                __vTaskSwitchContext_from_arm
 .glue_7t       0x100591a0        0x0 /usr/local/arm-elf-tools/gcc-4.3.3/lib/gcc/arm-elf/4.3.3/../../../../arm-elf/lib/interwork/libc.a(lib_a-strtol.o)
                0x100591a0                . = ALIGN (0x4)
                0x100591a0                __text_end__ = .

.vfp11_veneer   0x100591a0        0x0
 .vfp11_veneer  0x100591a0        0x0 ../../core/freertos/portable/GCC/ARM7_AT91SAM7S/portISR.o
 .vfp11_veneer  0x100591a0        0x0 ../../core/usb/device/core/USBD_UDP.o
 .vfp11_veneer  0x100591a0        0x0 ../../core/usb/device/core/USBD_OTGHS.o
 .vfp11_veneer  0x100591a0        0x0 ../../core/usb/device/core/USBD_UDPHS.o
 .vfp11_veneer  0x100591a0        0x0 ../../core/dynawa/serial_isr.o
 .vfp11_veneer  0x100591a0        0x0 ../../core/dynawa/button.o
 .vfp11_veneer  0x100591a0        0x0 ../../core/dynawa/timer_isr.o
 .vfp11_veneer  0x100591a0        0x0 ../../core/dynawa/io_isr.o
 .vfp11_veneer  0x100591a0        0x0 ../../core/startup/extras.o
 .vfp11_veneer  0x100591a0        0x0 ../../core/freertos/tasks.o
 .vfp11_veneer  0x100591a0        0x0 ../../core/freertos/queue.o
 .vfp11_veneer  0x100591a0        0x0 ../../core/freertos/list.o
 .vfp11_veneer  0x100591a0        0x0 ../../core/freertos/portable/GCC/ARM7_AT91SAM7S/port.o
 .vfp11_veneer  0x100591a0        0x0 ../../core/freertos/portable/MemMang/heap_3.o
 .vfp11_veneer  0x100591a0        0x0 ../../core/usb/common/cdc/CDCSetControlLineStateRequest.o
 .vfp11_veneer  0x100591a0        0x0 ../../core/usb/common/cdc/CDCLineCoding.o
 .vfp11_veneer  0x100591a0        0x0 ../../core/usb/device/cdc-serial/CDCDSerialDriver.o
 .vfp11_veneer  0x100591a0        0x0 ../../core/usb/device/cdc-serial/CDCDSerialDriverDescriptors.o
 .vfp11_veneer  0x100591a0        0x0 ../../core/usb/device/core/USBDCallbacks_Resumed.o
 .vfp11_veneer  0x100591a0        0x0 ../../core/usb/device/core/USBDCallbacks_Suspended.o
 .vfp11_veneer  0x100591a0        0x0 ../../core/usb/device/core/USBDDriverCb_CfgChanged.o
 .vfp11_veneer  0x100591a0        0x0 ../../core/usb/device/core/USBDDriverCb_IfSettingChanged.o
 .vfp11_veneer  0x100591a0        0x0 ../../core/usb/device/core/USBDCallbacks_Initialized.o
 .vfp11_veneer  0x100591a0        0x0 ../../core/usb/device/core/USBDCallbacks_Reset.o
 .vfp11_veneer  0x100591a0        0x0 ../../core/usb/device/core/USBDDriver.o
 .vfp11_veneer  0x100591a0        0x0 ../../core/usb/common/core/USBSetAddressRequest.o
 .vfp11_veneer  0x100591a0        0x0 ../../core/usb/common/core/USBGenericDescriptor.o
 .vfp11_veneer  0x100591a0        0x0 ../../core/usb/common/core/USBGenericRequest.o
 .vfp11_veneer  0x100591a0        0x0 ../../core/usb/common/core/USBGetDescriptorRequest.o
 .vfp11_veneer  0x100591a0        0x0 ../../core/usb/common/core/USBSetConfigurationRequest.o
 .vfp11_veneer  0x100591a0        0x0 ../../core/usb/common/core/USBFeatureRequest.o
 .vfp11_veneer  0x100591a0        0x0 ../../core/usb/common/core/USBEndpointDescriptor.o
 .vfp11_veneer  0x100591a0        0x0 ../../core/usb/common/core/USBConfigurationDescriptor.o
 .vfp11_veneer  0x100591a0        0x0 ../../core/usb/common/core/USBInterfaceRequest.o
 .vfp11_veneer  0x100591a0        0x0 ../../core/utils/rprintf.o
 .vfp11_veneer  0x100591a0        0x0 ../../core/utils/time.o
 .vfp11_veneer  0x100591a0        0x0 ../../core/utils/delay.o
 .vfp11_veneer  0x100591a0        0x0 ../../core/screen/screen.o
 .vfp11_veneer  0x100591a0        0x0 ../../core/screen/font.o
 .vfp11_veneer  0x100591a0        0x0 ../../core/lua-5.1.4/src/lapi.o
 .vfp11_veneer  0x100591a0        0x0 ../../core/lua-5.1.4/src/lauxlib.o
 .vfp11_veneer  0x100591a0        0x0 ../../core/lua-5.1.4/src/lbaselib.o
 .vfp11_veneer  0x100591a0        0x0 ../../core/lua-5.1.4/src/lcode.o
 .vfp11_veneer  0x100591a0        0x0 ../../core/lua-5.1.4/src/ldblib.o
 .vfp11_veneer  0x100591a0        0x0 ../../core/lua-5.1.4/src/ldebug.o
 .vfp11_veneer  0x100591a0        0x0 ../../core/lua-5.1.4/src/ldo.o
 .vfp11_veneer  0x100591a0        0x0 ../../core/lua-5.1.4/src/ldump.o
 .vfp11_veneer  0x100591a0        0x0 ../../core/lua-5.1.4/src/lfunc.o
 .vfp11_veneer  0x100591a0        0x0 ../../core/lua-5.1.4/src/lgc.o
 .vfp11_veneer  0x100591a0        0x0 ../../core/lua-5.1.4/src/linit.o
 .vfp11_veneer  0x100591a0        0x0 ../../core/lua-5.1.4/src/liolib.o
 .vfp11_veneer  0x100591a0        0x0 ../../core/lua-5.1.4/src/llex.o
 .vfp11_veneer  0x100591a0        0x0 ../../core/lua-5.1.4/src/lmathlib.o
 .vfp11_veneer  0x100591a0        0x0 ../../core/lua-5.1.4/src/lmem.o
 .vfp11_veneer  0x100591a0        0x0 ../../core/lua-5.1.4/src/loadlib.o
 .vfp11_veneer  0x100591a0        0x0 ../../core/lua-5.1.4/src/lobject.o
 .vfp11_veneer  0x100591a0        0x0 ../../core/lua-5.1.4/src/lopcodes.o
 .vfp11_veneer  0x100591a0        0x0 ../../core/lua-5.1.4/src/loslib.o
 .vfp11_veneer  0x100591a0        0x0 ../../core/lua-5.1.4/src/lparser.o
 .vfp11_veneer  0x100591a0        0x0 ../../core/lua-5.1.4/src/lstate.o
 .vfp11_veneer  0x100591a0        0x0 ../../core/lua-5.1.4/src/lstring.o
 .vfp11_veneer  0x100591a0        0x0 ../../core/lua-5.1.4/src/lstrlib.o
 .vfp11_veneer  0x100591a0        0x0 ../../core/lua-5.1.4/src/ltable.o
 .vfp11_veneer  0x100591a0        0x0 ../../core/lua-5.1.4/src/ltablib.o
 .vfp11_veneer  0x100591a0        0x0 ../../core/lua-5.1.4/src/ltm.o
 .vfp11_veneer  0x100591a0        0x0 ../../core/lua-5.1.4/src/lundump.o
 .vfp11_veneer  0x100591a0        0x0 ../../core/lua-5.1.4/src/lvm.o
 .vfp11_veneer  0x100591a0        0x0 ../../core/lua-5.1.4/src/lzio.o
 .vfp11_veneer  0x100591a0        0x0 ../../core/lua-5.1.4/src/print.o
 .vfp11_veneer  0x100591a0        0x0 ../../core/dynawa/rtos.o
 .vfp11_veneer  0x100591a0        0x0 ../../core/dynawa/usbserial.o
 .vfp11_veneer  0x100591a0        0x0 ../../core/dynawa/serial.o
 .vfp11_veneer  0x100591a0        0x0 ../../core/dynawa/main.o
 .vfp11_veneer  0x100591a0        0x0 ../../core/dynawa/io.o
 .vfp11_veneer  0x100591a0        0x0 ../../core/dynawa/led.o
 .vfp11_veneer  0x100591a0        0x0 ../../core/dynawa/lua/lua.o
 .vfp11_veneer  0x100591a0        0x0 ../../core/dynawa/lua/lua_isr.o
 .vfp11_veneer  0x100591a0        0x0 ../../core/dynawa/lua/lib_dynawa.o
 .vfp11_veneer  0x100591a0        0x0 ../../core/dynawa/lua/lib_dynawa_timer.o
 .vfp11_veneer  0x100591a0        0x0 ../../core/dynawa/lua/lib_dynawa_bitmap.o
 .vfp11_veneer  0x100591a0        0x0 ../../core/dynawa/event.o
 .vfp11_veneer  0x100591a0        0x0 ../../core/dynawa/timer.o
 .vfp11_veneer  0x100591a0        0x0 ../../core/dynawa/bitmap.o
 .vfp11_veneer  0x100591a0        0x0 ../../core/sdcard/sdcard.o
 .vfp11_veneer  0x100591a0        0x0 ../../core/dynawa/fat.o
 .vfp11_veneer  0x100591a0        0x0 ../../core/fatfs-0.07/src/option/ccsbcs.o
 .vfp11_veneer  0x100591a0        0x0 ../../core/fatfs-0.07/src/diskio.o
 .vfp11_veneer  0x100591a0        0x0 ../../core/fatfs-0.07/src/ff.o
 .vfp11_veneer  0x100591a0        0x0 ../../core/monitor/args.o
 .vfp11_veneer  0x100591a0        0x0 ../../core/monitor/argsdispatch.o
 .vfp11_veneer  0x100591a0        0x0 ../../core/monitor/monitor.o
 .vfp11_veneer  0x100591a0        0x0 ../../core/yabcsp/src/crc.o
 .vfp11_veneer  0x100591a0        0x0 ../../core/yabcsp/src/init.o
 .vfp11_veneer  0x100591a0        0x0 ../../core/yabcsp/src/le.o
 .vfp11_veneer  0x100591a0        0x0 ../../core/yabcsp/src/rx.o
 .vfp11_veneer  0x100591a0        0x0 ../../core/yabcsp/src/txmsg.o
 .vfp11_veneer  0x100591a0        0x0 ../../core/yabcsp/src/txslip.o
 .vfp11_veneer  0x100591a0        0x0 ../../core/dynawa/bcsp/main.o
 .vfp11_veneer  0x100591a0        0x0 ../../core/dynawa/bcsp/abcsp_support_functions.o
 .vfp11_veneer  0x100591a0        0x0 ../../core/dynawa/bcsp/uSched.o
 .vfp11_veneer  0x100591a0        0x0 ../../core/dynawa/bcsp/SerialCom.o
 .vfp11_veneer  0x100591a0        0x0 ../../core/peripherals/serial.o
 .vfp11_veneer  0x100591a0        0x0 ../../core/peripherals/oled/oled.o
 .vfp11_veneer  0x100591a0        0x0 ../../core/peripherals/spi.o
 .vfp11_veneer  0x100591a0        0x0 ../../core/peripherals/pmc/pmc.o
 .vfp11_veneer  0x100591a0        0x0 ../../core/peripherals/usart/usart.o
 .vfp11_veneer  0x100591a0        0x0 ../../core/peripherals/aic/aic.o
 .vfp11_veneer  0x100591a0        0x0 ../../core/peripherals/pio/pio.o
 .vfp11_veneer  0x100591a0        0x0 ../../core/peripherals/rtc.o
 .vfp11_veneer  0x100591a0        0x0 ../../core/peripherals/i2c.o
 .vfp11_veneer  0x100591a0        0x0 ../../core/peripherals/accel.o
 .vfp11_veneer  0x100591a0        0x0 ../../core/peripherals/gasgauge.o
 .vfp11_veneer  0x100591a0        0x0 ../../core/peripherals/amblightsensor.o
 .vfp11_veneer  0x100591a0        0x0 ../../core/peripherals/ledrgb.o
 .vfp11_veneer  0x100591a0        0x0 ../../core/lua-5.1.4/src/lnum.o
 .vfp11_veneer  0x100591a0        0x0 ../../core/lwalkera-lwBT-f64e170/lwbt/fcs.o
 .vfp11_veneer  0x100591a0        0x0 ../../core/lwalkera-lwBT-f64e170/lwbt/hci.o
 .vfp11_veneer  0x100591a0        0x0 ../../core/lwalkera-lwBT-f64e170/lwbt/l2cap.o
 .vfp11_veneer  0x100591a0        0x0 ../../core/lwalkera-lwBT-f64e170/lwbt/lwbt_memp.o
 .vfp11_veneer  0x100591a0        0x0 ../../core/lwalkera-lwBT-f64e170/lwbt/rfcomm.o
 .vfp11_veneer  0x100591a0        0x0 ../../core/lwalkera-lwBT-f64e170/lwbt/sdp.o
 .vfp11_veneer  0x100591a0        0x0 ../../core/lwalkera-lwBT-f64e170/lwip/inet.o
 .vfp11_veneer  0x100591a0        0x0 ../../core/lwalkera-lwBT-f64e170/lwip/memp.o
 .vfp11_veneer  0x100591a0        0x0 ../../core/lwalkera-lwBT-f64e170/lwip/pbuf.o
 .vfp11_veneer  0x100591a0        0x0 ../../core/lwalkera-lwBT-f64e170/lwip/stats.o
 .vfp11_veneer  0x100591a0        0x0 ../../core/lwalkera-lwBT-f64e170/bt_spp.o
 .vfp11_veneer  0x100591a0        0x0 ../../libraries/zlib-1.2.3/adler32.o
 .vfp11_veneer  0x100591a0        0x0 ../../libraries/zlib-1.2.3/compress.o
 .vfp11_veneer  0x100591a0        0x0 ../../libraries/zlib-1.2.3/crc32.o
 .vfp11_veneer  0x100591a0        0x0 ../../libraries/zlib-1.2.3/gzio.o
 .vfp11_veneer  0x100591a0        0x0 ../../libraries/zlib-1.2.3/uncompr.o
 .vfp11_veneer  0x100591a0        0x0 ../../libraries/zlib-1.2.3/deflate.o
 .vfp11_veneer  0x100591a0        0x0 ../../libraries/zlib-1.2.3/trees.o
 .vfp11_veneer  0x100591a0        0x0 ../../libraries/zlib-1.2.3/zutil.o
 .vfp11_veneer  0x100591a0        0x0 ../../libraries/zlib-1.2.3/inflate.o
 .vfp11_veneer  0x100591a0        0x0 ../../libraries/zlib-1.2.3/infback.o
 .vfp11_veneer  0x100591a0        0x0 ../../libraries/zlib-1.2.3/inftrees.o
 .vfp11_veneer  0x100591a0        0x0 ../../libraries/zlib-1.2.3/inffast.o
 .vfp11_veneer  0x100591a0        0x0 ../../libraries/libpng-1.4.0/png.o
 .vfp11_veneer  0x100591a0        0x0 ../../libraries/libpng-1.4.0/pngerror.o
 .vfp11_veneer  0x100591a0        0x0 ../../libraries/libpng-1.4.0/pngget.o
 .vfp11_veneer  0x100591a0        0x0 ../../libraries/libpng-1.4.0/pngmem.o
 .vfp11_veneer  0x100591a0        0x0 ../../libraries/libpng-1.4.0/pngpread.o
 .vfp11_veneer  0x100591a0        0x0 ../../libraries/libpng-1.4.0/pngread.o
 .vfp11_veneer  0x100591a0        0x0 ../../libraries/libpng-1.4.0/pngrio.o
 .vfp11_veneer  0x100591a0        0x0 ../../libraries/libpng-1.4.0/pngrtran.o
 .vfp11_veneer  0x100591a0        0x0 ../../libraries/libpng-1.4.0/pngrutil.o
 .vfp11_veneer  0x100591a0        0x0 ../../libraries/libpng-1.4.0/pngset.o
 .vfp11_veneer  0x100591a0        0x0 ../../libraries/libpng-1.4.0/pngtrans.o
 .vfp11_veneer  0x100591a0        0x0 ../../libraries/libpng-1.4.0/pngwio.o
 .vfp11_veneer  0x100591a0        0x0 ../../libraries/libpng-1.4.0/pngwrite.o
 .vfp11_veneer  0x100591a0        0x0 ../../libraries/libpng-1.4.0/pngwtran.o
 .vfp11_veneer  0x100591a0        0x0 ../../libraries/libpng-1.4.0/pngwutil.o
 .vfp11_veneer  0x100591a0        0x0 ../../core/dynawa/png.o
 .vfp11_veneer  0x100591a0        0x0 image.o
 .vfp11_veneer  0x100591a0        0x0 /tmp/ccIBIrH5.o
 .vfp11_veneer  0x100591a0        0x0 /tmp/ccAJfFnu.o
 .vfp11_veneer  0x100591a0        0x0 /usr/local/arm-elf-tools/gcc-4.3.3/lib/gcc/arm-elf/4.3.3/../../../../arm-elf/lib/interwork/libm.a(lib_a-s_atan.o)
 .vfp11_veneer  0x100591a0        0x0 /usr/local/arm-elf-tools/gcc-4.3.3/lib/gcc/arm-elf/4.3.3/../../../../arm-elf/lib/interwork/libm.a(lib_a-s_ceil.o)
 .vfp11_veneer  0x100591a0        0x0 /usr/local/arm-elf-tools/gcc-4.3.3/lib/gcc/arm-elf/4.3.3/../../../../arm-elf/lib/interwork/libm.a(lib_a-s_cos.o)
 .vfp11_veneer  0x100591a0        0x0 /usr/local/arm-elf-tools/gcc-4.3.3/lib/gcc/arm-elf/4.3.3/../../../../arm-elf/lib/interwork/libm.a(lib_a-s_fabs.o)
 .vfp11_veneer  0x100591a0        0x0 /usr/local/arm-elf-tools/gcc-4.3.3/lib/gcc/arm-elf/4.3.3/../../../../arm-elf/lib/interwork/libm.a(lib_a-s_floor.o)
 .vfp11_veneer  0x100591a0        0x0 /usr/local/arm-elf-tools/gcc-4.3.3/lib/gcc/arm-elf/4.3.3/../../../../arm-elf/lib/interwork/libm.a(lib_a-s_frexp.o)
 .vfp11_veneer  0x100591a0        0x0 /usr/local/arm-elf-tools/gcc-4.3.3/lib/gcc/arm-elf/4.3.3/../../../../arm-elf/lib/interwork/libm.a(lib_a-s_ldexp.o)
 .vfp11_veneer  0x100591a0        0x0 /usr/local/arm-elf-tools/gcc-4.3.3/lib/gcc/arm-elf/4.3.3/../../../../arm-elf/lib/interwork/libm.a(lib_a-s_modf.o)
 .vfp11_veneer  0x100591a0        0x0 /usr/local/arm-elf-tools/gcc-4.3.3/lib/gcc/arm-elf/4.3.3/../../../../arm-elf/lib/interwork/libm.a(lib_a-s_scalbn.o)
 .vfp11_veneer  0x100591a0        0x0 /usr/local/arm-elf-tools/gcc-4.3.3/lib/gcc/arm-elf/4.3.3/../../../../arm-elf/lib/interwork/libm.a(lib_a-s_sin.o)
 .vfp11_veneer  0x100591a0        0x0 /usr/local/arm-elf-tools/gcc-4.3.3/lib/gcc/arm-elf/4.3.3/../../../../arm-elf/lib/interwork/libm.a(lib_a-s_tanh.o)
 .vfp11_veneer  0x100591a0        0x0 /usr/local/arm-elf-tools/gcc-4.3.3/lib/gcc/arm-elf/4.3.3/../../../../arm-elf/lib/interwork/libm.a(lib_a-s_tan.o)
 .vfp11_veneer  0x100591a0        0x0 /usr/local/arm-elf-tools/gcc-4.3.3/lib/gcc/arm-elf/4.3.3/../../../../arm-elf/lib/interwork/libm.a(lib_a-w_acos.o)
 .vfp11_veneer  0x100591a0        0x0 /usr/local/arm-elf-tools/gcc-4.3.3/lib/gcc/arm-elf/4.3.3/../../../../arm-elf/lib/interwork/libm.a(lib_a-w_asin.o)
 .vfp11_veneer  0x100591a0        0x0 /usr/local/arm-elf-tools/gcc-4.3.3/lib/gcc/arm-elf/4.3.3/../../../../arm-elf/lib/interwork/libm.a(lib_a-w_atan2.o)
 .vfp11_veneer  0x100591a0        0x0 /usr/local/arm-elf-tools/gcc-4.3.3/lib/gcc/arm-elf/4.3.3/../../../../arm-elf/lib/interwork/libm.a(lib_a-w_cosh.o)
 .vfp11_veneer  0x100591a0        0x0 /usr/local/arm-elf-tools/gcc-4.3.3/lib/gcc/arm-elf/4.3.3/../../../../arm-elf/lib/interwork/libm.a(lib_a-w_exp.o)
 .vfp11_veneer  0x100591a0        0x0 /usr/local/arm-elf-tools/gcc-4.3.3/lib/gcc/arm-elf/4.3.3/../../../../arm-elf/lib/interwork/libm.a(lib_a-w_fmod.o)
 .vfp11_veneer  0x100591a0        0x0 /usr/local/arm-elf-tools/gcc-4.3.3/lib/gcc/arm-elf/4.3.3/../../../../arm-elf/lib/interwork/libm.a(lib_a-w_log10.o)
 .vfp11_veneer  0x100591a0        0x0 /usr/local/arm-elf-tools/gcc-4.3.3/lib/gcc/arm-elf/4.3.3/../../../../arm-elf/lib/interwork/libm.a(lib_a-w_log.o)
 .vfp11_veneer  0x100591a0        0x0 /usr/local/arm-elf-tools/gcc-4.3.3/lib/gcc/arm-elf/4.3.3/../../../../arm-elf/lib/interwork/libm.a(lib_a-w_pow.o)
 .vfp11_veneer  0x100591a0        0x0 /usr/local/arm-elf-tools/gcc-4.3.3/lib/gcc/arm-elf/4.3.3/../../../../arm-elf/lib/interwork/libm.a(lib_a-w_sinh.o)
 .vfp11_veneer  0x100591a0        0x0 /usr/local/arm-elf-tools/gcc-4.3.3/lib/gcc/arm-elf/4.3.3/../../../../arm-elf/lib/interwork/libm.a(lib_a-w_sqrt.o)
 .vfp11_veneer  0x100591a0        0x0 /usr/local/arm-elf-tools/gcc-4.3.3/lib/gcc/arm-elf/4.3.3/../../../../arm-elf/lib/interwork/libm.a(lib_a-e_acos.o)
 .vfp11_veneer  0x100591a0        0x0 /usr/local/arm-elf-tools/gcc-4.3.3/lib/gcc/arm-elf/4.3.3/../../../../arm-elf/lib/interwork/libm.a(lib_a-e_asin.o)
 .vfp11_veneer  0x100591a0        0x0 /usr/local/arm-elf-tools/gcc-4.3.3/lib/gcc/arm-elf/4.3.3/../../../../arm-elf/lib/interwork/libm.a(lib_a-e_atan2.o)
 .vfp11_veneer  0x100591a0        0x0 /usr/local/arm-elf-tools/gcc-4.3.3/lib/gcc/arm-elf/4.3.3/../../../../arm-elf/lib/interwork/libm.a(lib_a-e_cosh.o)
 .vfp11_veneer  0x100591a0        0x0 /usr/local/arm-elf-tools/gcc-4.3.3/lib/gcc/arm-elf/4.3.3/../../../../arm-elf/lib/interwork/libm.a(lib_a-e_exp.o)
 .vfp11_veneer  0x100591a0        0x0 /usr/local/arm-elf-tools/gcc-4.3.3/lib/gcc/arm-elf/4.3.3/../../../../arm-elf/lib/interwork/libm.a(lib_a-e_fmod.o)
 .vfp11_veneer  0x100591a0        0x0 /usr/local/arm-elf-tools/gcc-4.3.3/lib/gcc/arm-elf/4.3.3/../../../../arm-elf/lib/interwork/libm.a(lib_a-e_log10.o)
 .vfp11_veneer  0x100591a0        0x0 /usr/local/arm-elf-tools/gcc-4.3.3/lib/gcc/arm-elf/4.3.3/../../../../arm-elf/lib/interwork/libm.a(lib_a-e_log.o)
 .vfp11_veneer  0x100591a0        0x0 /usr/local/arm-elf-tools/gcc-4.3.3/lib/gcc/arm-elf/4.3.3/../../../../arm-elf/lib/interwork/libm.a(lib_a-e_pow.o)
 .vfp11_veneer  0x100591a0        0x0 /usr/local/arm-elf-tools/gcc-4.3.3/lib/gcc/arm-elf/4.3.3/../../../../arm-elf/lib/interwork/libm.a(lib_a-e_rem_pio2.o)
 .vfp11_veneer  0x100591a0        0x0 /usr/local/arm-elf-tools/gcc-4.3.3/lib/gcc/arm-elf/4.3.3/../../../../arm-elf/lib/interwork/libm.a(lib_a-e_sinh.o)
 .vfp11_veneer  0x100591a0        0x0 /usr/local/arm-elf-tools/gcc-4.3.3/lib/gcc/arm-elf/4.3.3/../../../../arm-elf/lib/interwork/libm.a(lib_a-e_sqrt.o)
 .vfp11_veneer  0x100591a0        0x0 /usr/local/arm-elf-tools/gcc-4.3.3/lib/gcc/arm-elf/4.3.3/../../../../arm-elf/lib/interwork/libm.a(lib_a-k_cos.o)
 .vfp11_veneer  0x100591a0        0x0 /usr/local/arm-elf-tools/gcc-4.3.3/lib/gcc/arm-elf/4.3.3/../../../../arm-elf/lib/interwork/libm.a(lib_a-k_rem_pio2.o)
 .vfp11_veneer  0x100591a0        0x0 /usr/local/arm-elf-tools/gcc-4.3.3/lib/gcc/arm-elf/4.3.3/../../../../arm-elf/lib/interwork/libm.a(lib_a-k_sin.o)
 .vfp11_veneer  0x100591a0        0x0 /usr/local/arm-elf-tools/gcc-4.3.3/lib/gcc/arm-elf/4.3.3/../../../../arm-elf/lib/interwork/libm.a(lib_a-k_tan.o)
 .vfp11_veneer  0x100591a0        0x0 /usr/local/arm-elf-tools/gcc-4.3.3/lib/gcc/arm-elf/4.3.3/../../../../arm-elf/lib/interwork/libm.a(lib_a-s_copysign.o)
 .vfp11_veneer  0x100591a0        0x0 /usr/local/arm-elf-tools/gcc-4.3.3/lib/gcc/arm-elf/4.3.3/../../../../arm-elf/lib/interwork/libm.a(lib_a-s_expm1.o)
 .vfp11_veneer  0x100591a0        0x0 /usr/local/arm-elf-tools/gcc-4.3.3/lib/gcc/arm-elf/4.3.3/../../../../arm-elf/lib/interwork/libm.a(lib_a-s_finite.o)
 .vfp11_veneer  0x100591a0        0x0 /usr/local/arm-elf-tools/gcc-4.3.3/lib/gcc/arm-elf/4.3.3/../../../../arm-elf/lib/interwork/libm.a(lib_a-s_isnand.o)
 .vfp11_veneer  0x100591a0        0x0 /usr/local/arm-elf-tools/gcc-4.3.3/lib/gcc/arm-elf/4.3.3/../../../../arm-elf/lib/interwork/libm.a(lib_a-s_lib_ver.o)
 .vfp11_veneer  0x100591a0        0x0 /usr/local/arm-elf-tools/gcc-4.3.3/lib/gcc/arm-elf/4.3.3/../../../../arm-elf/lib/interwork/libm.a(lib_a-s_matherr.o)
 .vfp11_veneer  0x100591a0        0x0 /usr/local/arm-elf-tools/gcc-4.3.3/lib/gcc/arm-elf/4.3.3/../../../../arm-elf/lib/interwork/libm.a(lib_a-s_nan.o)
 .vfp11_veneer  0x100591a0        0x0 /usr/local/arm-elf-tools/gcc-4.3.3/lib/gcc/arm-elf/4.3.3/../../../../arm-elf/lib/interwork/libm.a(lib_a-s_rint.o)
 .vfp11_veneer  0x100591a0        0x0 /usr/local/arm-elf-tools/gcc-4.3.3/lib/gcc/arm-elf/4.3.3/interwork/libgcc.a(_udivsi3.o)
 .vfp11_veneer  0x100591a0        0x0 /usr/local/arm-elf-tools/gcc-4.3.3/lib/gcc/arm-elf/4.3.3/interwork/libgcc.a(_divsi3.o)
 .vfp11_veneer  0x100591a0        0x0 /usr/local/arm-elf-tools/gcc-4.3.3/lib/gcc/arm-elf/4.3.3/interwork/libgcc.a(_umodsi3.o)
 .vfp11_veneer  0x100591a0        0x0 /usr/local/arm-elf-tools/gcc-4.3.3/lib/gcc/arm-elf/4.3.3/interwork/libgcc.a(_modsi3.o)
 .vfp11_veneer  0x100591a0        0x0 /usr/local/arm-elf-tools/gcc-4.3.3/lib/gcc/arm-elf/4.3.3/interwork/libgcc.a(_dvmd_tls.o)
 .vfp11_veneer  0x100591a0        0x0 /usr/local/arm-elf-tools/gcc-4.3.3/lib/gcc/arm-elf/4.3.3/interwork/libgcc.a(_fixunsdfsi.o)
 .vfp11_veneer  0x100591a0        0x0 /usr/local/arm-elf-tools/gcc-4.3.3/lib/gcc/arm-elf/4.3.3/interwork/libgcc.a(_mul_sf.o)
 .vfp11_veneer  0x100591a0        0x0 /usr/local/arm-elf-tools/gcc-4.3.3/lib/gcc/arm-elf/4.3.3/interwork/libgcc.a(_div_sf.o)
 .vfp11_veneer  0x100591a0        0x0 /usr/local/arm-elf-tools/gcc-4.3.3/lib/gcc/arm-elf/4.3.3/interwork/libgcc.a(_eq_sf.o)
 .vfp11_veneer  0x100591a0        0x0 /usr/local/arm-elf-tools/gcc-4.3.3/lib/gcc/arm-elf/4.3.3/interwork/libgcc.a(_si_to_sf.o)
 .vfp11_veneer  0x100591a0        0x0 /usr/local/arm-elf-tools/gcc-4.3.3/lib/gcc/arm-elf/4.3.3/interwork/libgcc.a(_sf_to_df.o)
 .vfp11_veneer  0x100591a0        0x0 /usr/local/arm-elf-tools/gcc-4.3.3/lib/gcc/arm-elf/4.3.3/interwork/libgcc.a(_thenan_sf.o)
 .vfp11_veneer  0x100591a0        0x0 /usr/local/arm-elf-tools/gcc-4.3.3/lib/gcc/arm-elf/4.3.3/interwork/libgcc.a(_usi_to_sf.o)
 .vfp11_veneer  0x100591a0        0x0 /usr/local/arm-elf-tools/gcc-4.3.3/lib/gcc/arm-elf/4.3.3/interwork/libgcc.a(_addsub_df.o)
 .vfp11_veneer  0x100591a0        0x0 /usr/local/arm-elf-tools/gcc-4.3.3/lib/gcc/arm-elf/4.3.3/interwork/libgcc.a(_mul_df.o)
 .vfp11_veneer  0x100591a0        0x0 /usr/local/arm-elf-tools/gcc-4.3.3/lib/gcc/arm-elf/4.3.3/interwork/libgcc.a(_div_df.o)
 .vfp11_veneer  0x100591a0        0x0 /usr/local/arm-elf-tools/gcc-4.3.3/lib/gcc/arm-elf/4.3.3/interwork/libgcc.a(_eq_df.o)
 .vfp11_veneer  0x100591a0        0x0 /usr/local/arm-elf-tools/gcc-4.3.3/lib/gcc/arm-elf/4.3.3/interwork/libgcc.a(_ne_df.o)
 .vfp11_veneer  0x100591a0        0x0 /usr/local/arm-elf-tools/gcc-4.3.3/lib/gcc/arm-elf/4.3.3/interwork/libgcc.a(_gt_df.o)
 .vfp11_veneer  0x100591a0        0x0 /usr/local/arm-elf-tools/gcc-4.3.3/lib/gcc/arm-elf/4.3.3/interwork/libgcc.a(_ge_df.o)
 .vfp11_veneer  0x100591a0        0x0 /usr/local/arm-elf-tools/gcc-4.3.3/lib/gcc/arm-elf/4.3.3/interwork/libgcc.a(_lt_df.o)
 .vfp11_veneer  0x100591a0        0x0 /usr/local/arm-elf-tools/gcc-4.3.3/lib/gcc/arm-elf/4.3.3/interwork/libgcc.a(_le_df.o)
 .vfp11_veneer  0x100591a0        0x0 /usr/local/arm-elf-tools/gcc-4.3.3/lib/gcc/arm-elf/4.3.3/interwork/libgcc.a(_si_to_df.o)
 .vfp11_veneer  0x100591a0        0x0 /usr/local/arm-elf-tools/gcc-4.3.3/lib/gcc/arm-elf/4.3.3/interwork/libgcc.a(_df_to_si.o)
 .vfp11_veneer  0x100591a0        0x0 /usr/local/arm-elf-tools/gcc-4.3.3/lib/gcc/arm-elf/4.3.3/interwork/libgcc.a(_make_df.o)
 .vfp11_veneer  0x100591a0        0x0 /usr/local/arm-elf-tools/gcc-4.3.3/lib/gcc/arm-elf/4.3.3/interwork/libgcc.a(_df_to_sf.o)
 .vfp11_veneer  0x100591a0        0x0 /usr/local/arm-elf-tools/gcc-4.3.3/lib/gcc/arm-elf/4.3.3/interwork/libgcc.a(_thenan_df.o)
 .vfp11_veneer  0x100591a0        0x0 /usr/local/arm-elf-tools/gcc-4.3.3/lib/gcc/arm-elf/4.3.3/interwork/libgcc.a(_usi_to_df.o)
 .vfp11_veneer  0x100591a0        0x0 /usr/local/arm-elf-tools/gcc-4.3.3/lib/gcc/arm-elf/4.3.3/interwork/libgcc.a(_ucmpdi2.o)
 .vfp11_veneer  0x100591a0        0x0 /usr/local/arm-elf-tools/gcc-4.3.3/lib/gcc/arm-elf/4.3.3/interwork/libgcc.a(_clzsi2.o)
 .vfp11_veneer  0x100591a0        0x0 /usr/local/arm-elf-tools/gcc-4.3.3/lib/gcc/arm-elf/4.3.3/interwork/libgcc.a(_pack_sf.o)
 .vfp11_veneer  0x100591a0        0x0 /usr/local/arm-elf-tools/gcc-4.3.3/lib/gcc/arm-elf/4.3.3/interwork/libgcc.a(_unpack_sf.o)
 .vfp11_veneer  0x100591a0        0x0 /usr/local/arm-elf-tools/gcc-4.3.3/lib/gcc/arm-elf/4.3.3/interwork/libgcc.a(_fpcmp_parts_sf.o)
 .vfp11_veneer  0x100591a0        0x0 /usr/local/arm-elf-tools/gcc-4.3.3/lib/gcc/arm-elf/4.3.3/interwork/libgcc.a(_make_sf.o)
 .vfp11_veneer  0x100591a0        0x0 /usr/local/arm-elf-tools/gcc-4.3.3/lib/gcc/arm-elf/4.3.3/interwork/libgcc.a(_pack_df.o)
 .vfp11_veneer  0x100591a0        0x0 /usr/local/arm-elf-tools/gcc-4.3.3/lib/gcc/arm-elf/4.3.3/interwork/libgcc.a(_unpack_df.o)
 .vfp11_veneer  0x100591a0        0x0 /usr/local/arm-elf-tools/gcc-4.3.3/lib/gcc/arm-elf/4.3.3/interwork/libgcc.a(_fpcmp_parts_df.o)
 .vfp11_veneer  0x100591a0        0x0 /usr/local/arm-elf-tools/gcc-4.3.3/lib/gcc/arm-elf/4.3.3/interwork/libgcc.a(_clz.o)
 .vfp11_veneer  0x100591a0        0x0 /usr/local/arm-elf-tools/gcc-4.3.3/lib/gcc/arm-elf/4.3.3/../../../../arm-elf/lib/interwork/libc.a(lib_a-abort.o)
 .vfp11_veneer  0x100591a0        0x0 /usr/local/arm-elf-tools/gcc-4.3.3/lib/gcc/arm-elf/4.3.3/../../../../arm-elf/lib/interwork/libc.a(lib_a-calloc.o)
 .vfp11_veneer  0x100591a0        0x0 /usr/local/arm-elf-tools/gcc-4.3.3/lib/gcc/arm-elf/4.3.3/../../../../arm-elf/lib/interwork/libc.a(lib_a-callocr.o)
 .vfp11_veneer  0x100591a0        0x0 /usr/local/arm-elf-tools/gcc-4.3.3/lib/gcc/arm-elf/4.3.3/../../../../arm-elf/lib/interwork/libc.a(lib_a-clock.o)
 .vfp11_veneer  0x100591a0        0x0 /usr/local/arm-elf-tools/gcc-4.3.3/lib/gcc/arm-elf/4.3.3/../../../../arm-elf/lib/interwork/libc.a(lib_a-ctype_.o)
 .vfp11_veneer  0x100591a0        0x0 /usr/local/arm-elf-tools/gcc-4.3.3/lib/gcc/arm-elf/4.3.3/../../../../arm-elf/lib/interwork/libc.a(lib_a-difftime.o)
 .vfp11_veneer  0x100591a0        0x0 /usr/local/arm-elf-tools/gcc-4.3.3/lib/gcc/arm-elf/4.3.3/../../../../arm-elf/lib/interwork/libc.a(lib_a-errno.o)
 .vfp11_veneer  0x100591a0        0x0 /usr/local/arm-elf-tools/gcc-4.3.3/lib/gcc/arm-elf/4.3.3/../../../../arm-elf/lib/interwork/libc.a(lib_a-exit.o)
 .vfp11_veneer  0x100591a0        0x0 /usr/local/arm-elf-tools/gcc-4.3.3/lib/gcc/arm-elf/4.3.3/../../../../arm-elf/lib/interwork/libc.a(lib_a-fclose.o)
 .vfp11_veneer  0x100591a0        0x0 /usr/local/arm-elf-tools/gcc-4.3.3/lib/gcc/arm-elf/4.3.3/../../../../arm-elf/lib/interwork/libc.a(lib_a-fdopen.o)
 .vfp11_veneer  0x100591a0        0x0 /usr/local/arm-elf-tools/gcc-4.3.3/lib/gcc/arm-elf/4.3.3/../../../../arm-elf/lib/interwork/libc.a(lib_a-fflush.o)
 .vfp11_veneer  0x100591a0        0x0 /usr/local/arm-elf-tools/gcc-4.3.3/lib/gcc/arm-elf/4.3.3/../../../../arm-elf/lib/interwork/libc.a(lib_a-fgets.o)
 .vfp11_veneer  0x100591a0        0x0 /usr/local/arm-elf-tools/gcc-4.3.3/lib/gcc/arm-elf/4.3.3/../../../../arm-elf/lib/interwork/libc.a(lib_a-fileno.o)
 .vfp11_veneer  0x100591a0        0x0 /usr/local/arm-elf-tools/gcc-4.3.3/lib/gcc/arm-elf/4.3.3/../../../../arm-elf/lib/interwork/libc.a(lib_a-findfp.o)
 .vfp11_veneer  0x100591a0        0x0 /usr/local/arm-elf-tools/gcc-4.3.3/lib/gcc/arm-elf/4.3.3/../../../../arm-elf/lib/interwork/libc.a(lib_a-flags.o)
 .vfp11_veneer  0x100591a0        0x0 /usr/local/arm-elf-tools/gcc-4.3.3/lib/gcc/arm-elf/4.3.3/../../../../arm-elf/lib/interwork/libc.a(lib_a-fopen.o)
 .vfp11_veneer  0x100591a0        0x0 /usr/local/arm-elf-tools/gcc-4.3.3/lib/gcc/arm-elf/4.3.3/../../../../arm-elf/lib/interwork/libc.a(lib_a-fprintf.o)
 .vfp11_veneer  0x100591a0        0x0 /usr/local/arm-elf-tools/gcc-4.3.3/lib/gcc/arm-elf/4.3.3/../../../../arm-elf/lib/interwork/libc.a(lib_a-fputc.o)
 .vfp11_veneer  0x100591a0        0x0 /usr/local/arm-elf-tools/gcc-4.3.3/lib/gcc/arm-elf/4.3.3/../../../../arm-elf/lib/interwork/libc.a(lib_a-fputs.o)
 .vfp11_veneer  0x100591a0        0x0 /usr/local/arm-elf-tools/gcc-4.3.3/lib/gcc/arm-elf/4.3.3/../../../../arm-elf/lib/interwork/libc.a(lib_a-fread.o)
 .vfp11_veneer  0x100591a0        0x0 /usr/local/arm-elf-tools/gcc-4.3.3/lib/gcc/arm-elf/4.3.3/../../../../arm-elf/lib/interwork/libc.a(lib_a-freer.o)
 .vfp11_veneer  0x100591a0        0x0 /usr/local/arm-elf-tools/gcc-4.3.3/lib/gcc/arm-elf/4.3.3/../../../../arm-elf/lib/interwork/libc.a(lib_a-freopen.o)
 .vfp11_veneer  0x100591a0        0x0 /usr/local/arm-elf-tools/gcc-4.3.3/lib/gcc/arm-elf/4.3.3/../../../../arm-elf/lib/interwork/libc.a(lib_a-fscanf.o)
 .vfp11_veneer  0x100591a0        0x0 /usr/local/arm-elf-tools/gcc-4.3.3/lib/gcc/arm-elf/4.3.3/../../../../arm-elf/lib/interwork/libc.a(lib_a-fseek.o)
 .vfp11_veneer  0x100591a0        0x0 /usr/local/arm-elf-tools/gcc-4.3.3/lib/gcc/arm-elf/4.3.3/../../../../arm-elf/lib/interwork/libc.a(lib_a-ftell.o)
 .vfp11_veneer  0x100591a0        0x0 /usr/local/arm-elf-tools/gcc-4.3.3/lib/gcc/arm-elf/4.3.3/../../../../arm-elf/lib/interwork/libc.a(lib_a-fvwrite.o)
 .vfp11_veneer  0x100591a0        0x0 /usr/local/arm-elf-tools/gcc-4.3.3/lib/gcc/arm-elf/4.3.3/../../../../arm-elf/lib/interwork/libc.a(lib_a-fwalk.o)
 .vfp11_veneer  0x100591a0        0x0 /usr/local/arm-elf-tools/gcc-4.3.3/lib/gcc/arm-elf/4.3.3/../../../../arm-elf/lib/interwork/libc.a(lib_a-fwrite.o)
 .vfp11_veneer  0x100591a0        0x0 /usr/local/arm-elf-tools/gcc-4.3.3/lib/gcc/arm-elf/4.3.3/../../../../arm-elf/lib/interwork/libc.a(lib_a-getenv.o)
 .vfp11_veneer  0x100591a0        0x0 /usr/local/arm-elf-tools/gcc-4.3.3/lib/gcc/arm-elf/4.3.3/../../../../arm-elf/lib/interwork/libc.a(lib_a-getenv_r.o)
 .vfp11_veneer  0x100591a0        0x0 /usr/local/arm-elf-tools/gcc-4.3.3/lib/gcc/arm-elf/4.3.3/../../../../arm-elf/lib/interwork/libc.a(lib_a-gmtime.o)
 .vfp11_veneer  0x100591a0        0x0 /usr/local/arm-elf-tools/gcc-4.3.3/lib/gcc/arm-elf/4.3.3/../../../../arm-elf/lib/interwork/libc.a(lib_a-gmtime_r.o)
 .vfp11_veneer  0x100591a0        0x0 /usr/local/arm-elf-tools/gcc-4.3.3/lib/gcc/arm-elf/4.3.3/../../../../arm-elf/lib/interwork/libc.a(lib_a-impure.o)
 .vfp11_veneer  0x100591a0        0x0 /usr/local/arm-elf-tools/gcc-4.3.3/lib/gcc/arm-elf/4.3.3/../../../../arm-elf/lib/interwork/libc.a(lib_a-lcltime.o)
 .vfp11_veneer  0x100591a0        0x0 /usr/local/arm-elf-tools/gcc-4.3.3/lib/gcc/arm-elf/4.3.3/../../../../arm-elf/lib/interwork/libc.a(lib_a-lcltime_r.o)
 .vfp11_veneer  0x100591a0        0x0 /usr/local/arm-elf-tools/gcc-4.3.3/lib/gcc/arm-elf/4.3.3/../../../../arm-elf/lib/interwork/libc.a(lib_a-locale.o)
 .vfp11_veneer  0x100591a0        0x0 /usr/local/arm-elf-tools/gcc-4.3.3/lib/gcc/arm-elf/4.3.3/../../../../arm-elf/lib/interwork/libc.a(lib_a-makebuf.o)
 .vfp11_veneer  0x100591a0        0x0 /usr/local/arm-elf-tools/gcc-4.3.3/lib/gcc/arm-elf/4.3.3/../../../../arm-elf/lib/interwork/libc.a(lib_a-malloc.o)
 .vfp11_veneer  0x100591a0        0x0 /usr/local/arm-elf-tools/gcc-4.3.3/lib/gcc/arm-elf/4.3.3/../../../../arm-elf/lib/interwork/libc.a(lib_a-mallocr.o)
 .vfp11_veneer  0x100591a0        0x0 /usr/local/arm-elf-tools/gcc-4.3.3/lib/gcc/arm-elf/4.3.3/../../../../arm-elf/lib/interwork/libc.a(lib_a-memchr.o)
 .vfp11_veneer  0x100591a0        0x0 /usr/local/arm-elf-tools/gcc-4.3.3/lib/gcc/arm-elf/4.3.3/../../../../arm-elf/lib/interwork/libc.a(lib_a-memcmp.o)
 .vfp11_veneer  0x100591a0        0x0 /usr/local/arm-elf-tools/gcc-4.3.3/lib/gcc/arm-elf/4.3.3/../../../../arm-elf/lib/interwork/libc.a(lib_a-memcpy.o)
 .vfp11_veneer  0x100591a0        0x0 /usr/local/arm-elf-tools/gcc-4.3.3/lib/gcc/arm-elf/4.3.3/../../../../arm-elf/lib/interwork/libc.a(lib_a-memmove.o)
 .vfp11_veneer  0x100591a0        0x0 /usr/local/arm-elf-tools/gcc-4.3.3/lib/gcc/arm-elf/4.3.3/../../../../arm-elf/lib/interwork/libc.a(lib_a-memset.o)
 .vfp11_veneer  0x100591a0        0x0 /usr/local/arm-elf-tools/gcc-4.3.3/lib/gcc/arm-elf/4.3.3/../../../../arm-elf/lib/interwork/libc.a(lib_a-mktime.o)
 .vfp11_veneer  0x100591a0        0x0 /usr/local/arm-elf-tools/gcc-4.3.3/lib/gcc/arm-elf/4.3.3/../../../../arm-elf/lib/interwork/libc.a(lib_a-mktm_r.o)
 .vfp11_veneer  0x100591a0        0x0 /usr/local/arm-elf-tools/gcc-4.3.3/lib/gcc/arm-elf/4.3.3/../../../../arm-elf/lib/interwork/libc.a(lib_a-mlock.o)
 .vfp11_veneer  0x100591a0        0x0 /usr/local/arm-elf-tools/gcc-4.3.3/lib/gcc/arm-elf/4.3.3/../../../../arm-elf/lib/interwork/libc.a(lib_a-printf.o)
 .vfp11_veneer  0x100591a0        0x0 /usr/local/arm-elf-tools/gcc-4.3.3/lib/gcc/arm-elf/4.3.3/../../../../arm-elf/lib/interwork/libc.a(lib_a-putc.o)
 .vfp11_veneer  0x100591a0        0x0 /usr/local/arm-elf-tools/gcc-4.3.3/lib/gcc/arm-elf/4.3.3/../../../../arm-elf/lib/interwork/libc.a(lib_a-rand.o)
 .vfp11_veneer  0x100591a0        0x0 /usr/local/arm-elf-tools/gcc-4.3.3/lib/gcc/arm-elf/4.3.3/../../../../arm-elf/lib/interwork/libc.a(lib_a-realloc.o)
 .vfp11_veneer  0x100591a0        0x0 /usr/local/arm-elf-tools/gcc-4.3.3/lib/gcc/arm-elf/4.3.3/../../../../arm-elf/lib/interwork/libc.a(lib_a-reallocr.o)
 .vfp11_veneer  0x100591a0        0x0 /usr/local/arm-elf-tools/gcc-4.3.3/lib/gcc/arm-elf/4.3.3/../../../../arm-elf/lib/interwork/libc.a(lib_a-refill.o)
 .vfp11_veneer  0x100591a0        0x0 /usr/local/arm-elf-tools/gcc-4.3.3/lib/gcc/arm-elf/4.3.3/../../../../arm-elf/lib/interwork/libc.a(lib_a-remove.o)
 .vfp11_veneer  0x100591a0        0x0 /usr/local/arm-elf-tools/gcc-4.3.3/lib/gcc/arm-elf/4.3.3/../../../../arm-elf/lib/interwork/libc.a(lib_a-rget.o)
 .vfp11_veneer  0x100591a0        0x0 /usr/local/arm-elf-tools/gcc-4.3.3/lib/gcc/arm-elf/4.3.3/../../../../arm-elf/lib/interwork/libc.a(lib_a-setjmp.o)
 .vfp11_veneer  0x100591a0        0x0 /usr/local/arm-elf-tools/gcc-4.3.3/lib/gcc/arm-elf/4.3.3/../../../../arm-elf/lib/interwork/libc.a(lib_a-setvbuf.o)
 .vfp11_veneer  0x100591a0        0x0 /usr/local/arm-elf-tools/gcc-4.3.3/lib/gcc/arm-elf/4.3.3/../../../../arm-elf/lib/interwork/libc.a(lib_a-signal.o)
 .vfp11_veneer  0x100591a0        0x0 /usr/local/arm-elf-tools/gcc-4.3.3/lib/gcc/arm-elf/4.3.3/../../../../arm-elf/lib/interwork/libc.a(lib_a-snprintf.o)
 .vfp11_veneer  0x100591a0        0x0 /usr/local/arm-elf-tools/gcc-4.3.3/lib/gcc/arm-elf/4.3.3/../../../../arm-elf/lib/interwork/libc.a(lib_a-sprintf.o)
 .vfp11_veneer  0x100591a0        0x0 /usr/local/arm-elf-tools/gcc-4.3.3/lib/gcc/arm-elf/4.3.3/../../../../arm-elf/lib/interwork/libc.a(lib_a-stdio.o)
 .vfp11_veneer  0x100591a0        0x0 /usr/local/arm-elf-tools/gcc-4.3.3/lib/gcc/arm-elf/4.3.3/../../../../arm-elf/lib/interwork/libc.a(lib_a-strcat.o)
 .vfp11_veneer  0x100591a0        0x0 /usr/local/arm-elf-tools/gcc-4.3.3/lib/gcc/arm-elf/4.3.3/../../../../arm-elf/lib/interwork/libc.a(lib_a-strchr.o)
 .vfp11_veneer  0x100591a0        0x0 /usr/local/arm-elf-tools/gcc-4.3.3/lib/gcc/arm-elf/4.3.3/../../../../arm-elf/lib/interwork/libc.a(lib_a-strcmp.o)
 .vfp11_veneer  0x100591a0        0x0 /usr/local/arm-elf-tools/gcc-4.3.3/lib/gcc/arm-elf/4.3.3/../../../../arm-elf/lib/interwork/libc.a(lib_a-strcoll.o)
 .vfp11_veneer  0x100591a0        0x0 /usr/local/arm-elf-tools/gcc-4.3.3/lib/gcc/arm-elf/4.3.3/../../../../arm-elf/lib/interwork/libc.a(lib_a-strcpy.o)
 .vfp11_veneer  0x100591a0        0x0 /usr/local/arm-elf-tools/gcc-4.3.3/lib/gcc/arm-elf/4.3.3/../../../../arm-elf/lib/interwork/libc.a(lib_a-strcspn.o)
 .vfp11_veneer  0x100591a0        0x0 /usr/local/arm-elf-tools/gcc-4.3.3/lib/gcc/arm-elf/4.3.3/../../../../arm-elf/lib/interwork/libc.a(lib_a-strerror.o)
 .vfp11_veneer  0x100591a0        0x0 /usr/local/arm-elf-tools/gcc-4.3.3/lib/gcc/arm-elf/4.3.3/../../../../arm-elf/lib/interwork/libc.a(lib_a-strftime.o)
 .vfp11_veneer  0x100591a0        0x0 /usr/local/arm-elf-tools/gcc-4.3.3/lib/gcc/arm-elf/4.3.3/../../../../arm-elf/lib/interwork/libc.a(lib_a-strlen.o)
 .vfp11_veneer  0x100591a0        0x0 /usr/local/arm-elf-tools/gcc-4.3.3/lib/gcc/arm-elf/4.3.3/../../../../arm-elf/lib/interwork/libc.a(lib_a-strncat.o)
 .vfp11_veneer  0x100591a0        0x0 /usr/local/arm-elf-tools/gcc-4.3.3/lib/gcc/arm-elf/4.3.3/../../../../arm-elf/lib/interwork/libc.a(lib_a-strncmp.o)
 .vfp11_veneer  0x100591a0        0x0 /usr/local/arm-elf-tools/gcc-4.3.3/lib/gcc/arm-elf/4.3.3/../../../../arm-elf/lib/interwork/libc.a(lib_a-strncpy.o)
 .vfp11_veneer  0x100591a0        0x0 /usr/local/arm-elf-tools/gcc-4.3.3/lib/gcc/arm-elf/4.3.3/../../../../arm-elf/lib/interwork/libc.a(lib_a-strnlen.o)
 .vfp11_veneer  0x100591a0        0x0 /usr/local/arm-elf-tools/gcc-4.3.3/lib/gcc/arm-elf/4.3.3/../../../../arm-elf/lib/interwork/libc.a(lib_a-strpbrk.o)
 .vfp11_veneer  0x100591a0        0x0 /usr/local/arm-elf-tools/gcc-4.3.3/lib/gcc/arm-elf/4.3.3/../../../../arm-elf/lib/interwork/libc.a(lib_a-strrchr.o)
 .vfp11_veneer  0x100591a0        0x0 /usr/local/arm-elf-tools/gcc-4.3.3/lib/gcc/arm-elf/4.3.3/../../../../arm-elf/lib/interwork/libc.a(lib_a-strstr.o)
 .vfp11_veneer  0x100591a0        0x0 /usr/local/arm-elf-tools/gcc-4.3.3/lib/gcc/arm-elf/4.3.3/../../../../arm-elf/lib/interwork/libc.a(lib_a-strtod.o)
 .vfp11_veneer  0x100591a0        0x0 /usr/local/arm-elf-tools/gcc-4.3.3/lib/gcc/arm-elf/4.3.3/../../../../arm-elf/lib/interwork/libc.a(lib_a-strtoul.o)
 .vfp11_veneer  0x100591a0        0x0 /usr/local/arm-elf-tools/gcc-4.3.3/lib/gcc/arm-elf/4.3.3/../../../../arm-elf/lib/interwork/libc.a(lib_a-svfprintf.o)
 .vfp11_veneer  0x100591a0        0x0 /usr/local/arm-elf-tools/gcc-4.3.3/lib/gcc/arm-elf/4.3.3/../../../../arm-elf/lib/interwork/libc.a(lib_a-sysclose.o)
 .vfp11_veneer  0x100591a0        0x0 /usr/local/arm-elf-tools/gcc-4.3.3/lib/gcc/arm-elf/4.3.3/../../../../arm-elf/lib/interwork/libc.a(lib_a-sysgettod.o)
 .vfp11_veneer  0x100591a0        0x0 /usr/local/arm-elf-tools/gcc-4.3.3/lib/gcc/arm-elf/4.3.3/../../../../arm-elf/lib/interwork/libc.a(lib_a-sysopen.o)
 .vfp11_veneer  0x100591a0        0x0 /usr/local/arm-elf-tools/gcc-4.3.3/lib/gcc/arm-elf/4.3.3/../../../../arm-elf/lib/interwork/libc.a(lib_a-sysread.o)
 .vfp11_veneer  0x100591a0        0x0 /usr/local/arm-elf-tools/gcc-4.3.3/lib/gcc/arm-elf/4.3.3/../../../../arm-elf/lib/interwork/libc.a(lib_a-system.o)
 .vfp11_veneer  0x100591a0        0x0 /usr/local/arm-elf-tools/gcc-4.3.3/lib/gcc/arm-elf/4.3.3/../../../../arm-elf/lib/interwork/libc.a(lib_a-sysunlink.o)
 .vfp11_veneer  0x100591a0        0x0 /usr/local/arm-elf-tools/gcc-4.3.3/lib/gcc/arm-elf/4.3.3/../../../../arm-elf/lib/interwork/libc.a(lib_a-syswrite.o)
 .vfp11_veneer  0x100591a0        0x0 /usr/local/arm-elf-tools/gcc-4.3.3/lib/gcc/arm-elf/4.3.3/../../../../arm-elf/lib/interwork/libc.a(lib_a-time.o)
 .vfp11_veneer  0x100591a0        0x0 /usr/local/arm-elf-tools/gcc-4.3.3/lib/gcc/arm-elf/4.3.3/../../../../arm-elf/lib/interwork/libc.a(lib_a-timesr.o)
 .vfp11_veneer  0x100591a0        0x0 /usr/local/arm-elf-tools/gcc-4.3.3/lib/gcc/arm-elf/4.3.3/../../../../arm-elf/lib/interwork/libc.a(lib_a-tmpfile.o)
 .vfp11_veneer  0x100591a0        0x0 /usr/local/arm-elf-tools/gcc-4.3.3/lib/gcc/arm-elf/4.3.3/../../../../arm-elf/lib/interwork/libc.a(lib_a-tmpnam.o)
 .vfp11_veneer  0x100591a0        0x0 /usr/local/arm-elf-tools/gcc-4.3.3/lib/gcc/arm-elf/4.3.3/../../../../arm-elf/lib/interwork/libc.a(lib_a-tzlock.o)
 .vfp11_veneer  0x100591a0        0x0 /usr/local/arm-elf-tools/gcc-4.3.3/lib/gcc/arm-elf/4.3.3/../../../../arm-elf/lib/interwork/libc.a(lib_a-tzvars.o)
 .vfp11_veneer  0x100591a0        0x0 /usr/local/arm-elf-tools/gcc-4.3.3/lib/gcc/arm-elf/4.3.3/../../../../arm-elf/lib/interwork/libc.a(lib_a-ungetc.o)
 .vfp11_veneer  0x100591a0        0x0 /usr/local/arm-elf-tools/gcc-4.3.3/lib/gcc/arm-elf/4.3.3/../../../../arm-elf/lib/interwork/libc.a(lib_a-u_strerr.o)
 .vfp11_veneer  0x100591a0        0x0 /usr/local/arm-elf-tools/gcc-4.3.3/lib/gcc/arm-elf/4.3.3/../../../../arm-elf/lib/interwork/libc.a(lib_a-vfprintf.o)
 .vfp11_veneer  0x100591a0        0x0 /usr/local/arm-elf-tools/gcc-4.3.3/lib/gcc/arm-elf/4.3.3/../../../../arm-elf/lib/interwork/libc.a(lib_a-vfscanf.o)
 .vfp11_veneer  0x100591a0        0x0 /usr/local/arm-elf-tools/gcc-4.3.3/lib/gcc/arm-elf/4.3.3/../../../../arm-elf/lib/interwork/libc.a(lib_a-vsnprintf.o)
 .vfp11_veneer  0x100591a0        0x0 /usr/local/arm-elf-tools/gcc-4.3.3/lib/gcc/arm-elf/4.3.3/../../../../arm-elf/lib/interwork/libc.a(lib_a-wbuf.o)
 .vfp11_veneer  0x100591a0        0x0 /usr/local/arm-elf-tools/gcc-4.3.3/lib/gcc/arm-elf/4.3.3/../../../../arm-elf/lib/interwork/libc.a(lib_a-wsetup.o)
 .vfp11_veneer  0x100591a0        0x0 /usr/local/arm-elf-tools/gcc-4.3.3/lib/gcc/arm-elf/4.3.3/../../../../arm-elf/lib/interwork/libc.a(lib_a-abs.o)
 .vfp11_veneer  0x100591a0        0x0 /usr/local/arm-elf-tools/gcc-4.3.3/lib/gcc/arm-elf/4.3.3/../../../../arm-elf/lib/interwork/libc.a(lib_a-__call_atexit.o)
 .vfp11_veneer  0x100591a0        0x0 /usr/local/arm-elf-tools/gcc-4.3.3/lib/gcc/arm-elf/4.3.3/../../../../arm-elf/lib/interwork/libc.a(lib_a-div.o)
 .vfp11_veneer  0x100591a0        0x0 /usr/local/arm-elf-tools/gcc-4.3.3/lib/gcc/arm-elf/4.3.3/../../../../arm-elf/lib/interwork/libc.a(lib_a-dtoa.o)
 .vfp11_veneer  0x100591a0        0x0 /usr/local/arm-elf-tools/gcc-4.3.3/lib/gcc/arm-elf/4.3.3/../../../../arm-elf/lib/interwork/libc.a(lib_a-environ.o)
 .vfp11_veneer  0x100591a0        0x0 /usr/local/arm-elf-tools/gcc-4.3.3/lib/gcc/arm-elf/4.3.3/../../../../arm-elf/lib/interwork/libc.a(lib_a-envlock.o)
 .vfp11_veneer  0x100591a0        0x0 /usr/local/arm-elf-tools/gcc-4.3.3/lib/gcc/arm-elf/4.3.3/../../../../arm-elf/lib/interwork/libc.a(lib_a-gdtoa-gethex.o)
 .vfp11_veneer  0x100591a0        0x0 /usr/local/arm-elf-tools/gcc-4.3.3/lib/gcc/arm-elf/4.3.3/../../../../arm-elf/lib/interwork/libc.a(lib_a-gdtoa-hexnan.o)
 .vfp11_veneer  0x100591a0        0x0 /usr/local/arm-elf-tools/gcc-4.3.3/lib/gcc/arm-elf/4.3.3/../../../../arm-elf/lib/interwork/libc.a(lib_a-gettimeofdayr.o)
 .vfp11_veneer  0x100591a0        0x0 /usr/local/arm-elf-tools/gcc-4.3.3/lib/gcc/arm-elf/4.3.3/../../../../arm-elf/lib/interwork/libc.a(lib_a-gettzinfo.o)
 .vfp11_veneer  0x100591a0        0x0 /usr/local/arm-elf-tools/gcc-4.3.3/lib/gcc/arm-elf/4.3.3/../../../../arm-elf/lib/interwork/libc.a(lib_a-isattyr.o)
 .vfp11_veneer  0x100591a0        0x0 /usr/local/arm-elf-tools/gcc-4.3.3/lib/gcc/arm-elf/4.3.3/../../../../arm-elf/lib/interwork/libc.a(lib_a-iswspace.o)
 .vfp11_veneer  0x100591a0        0x0 /usr/local/arm-elf-tools/gcc-4.3.3/lib/gcc/arm-elf/4.3.3/../../../../arm-elf/lib/interwork/libc.a(lib_a-labs.o)
 .vfp11_veneer  0x100591a0        0x0 /usr/local/arm-elf-tools/gcc-4.3.3/lib/gcc/arm-elf/4.3.3/../../../../arm-elf/lib/interwork/libc.a(lib_a-mbrtowc.o)
 .vfp11_veneer  0x100591a0        0x0 /usr/local/arm-elf-tools/gcc-4.3.3/lib/gcc/arm-elf/4.3.3/../../../../arm-elf/lib/interwork/libc.a(lib_a-mbtowc_r.o)
 .vfp11_veneer  0x100591a0        0x0 /usr/local/arm-elf-tools/gcc-4.3.3/lib/gcc/arm-elf/4.3.3/../../../../arm-elf/lib/interwork/libc.a(lib_a-mprec.o)
 .vfp11_veneer  0x100591a0        0x0 /usr/local/arm-elf-tools/gcc-4.3.3/lib/gcc/arm-elf/4.3.3/../../../../arm-elf/lib/interwork/libc.a(lib_a-reent.o)
 .vfp11_veneer  0x100591a0        0x0 /usr/local/arm-elf-tools/gcc-4.3.3/lib/gcc/arm-elf/4.3.3/../../../../arm-elf/lib/interwork/libc.a(lib_a-sccl.o)
 .vfp11_veneer  0x100591a0        0x0 /usr/local/arm-elf-tools/gcc-4.3.3/lib/gcc/arm-elf/4.3.3/../../../../arm-elf/lib/interwork/libc.a(lib_a-sf_nan.o)
 .vfp11_veneer  0x100591a0        0x0 /usr/local/arm-elf-tools/gcc-4.3.3/lib/gcc/arm-elf/4.3.3/../../../../arm-elf/lib/interwork/libc.a(lib_a-s_isinfd.o)
 .vfp11_veneer  0x100591a0        0x0 /usr/local/arm-elf-tools/gcc-4.3.3/lib/gcc/arm-elf/4.3.3/../../../../arm-elf/lib/interwork/libc.a(lib_a-strtol.o)

.v4_bx          0x100591a0        0x0
 .v4_bx         0x100591a0        0x0 ../../core/freertos/portable/GCC/ARM7_AT91SAM7S/portISR.o
 .v4_bx         0x100591a0        0x0 ../../core/usb/device/core/USBD_UDP.o
 .v4_bx         0x100591a0        0x0 ../../core/usb/device/core/USBD_OTGHS.o
 .v4_bx         0x100591a0        0x0 ../../core/usb/device/core/USBD_UDPHS.o
 .v4_bx         0x100591a0        0x0 ../../core/dynawa/serial_isr.o
 .v4_bx         0x100591a0        0x0 ../../core/dynawa/button.o
 .v4_bx         0x100591a0        0x0 ../../core/dynawa/timer_isr.o
 .v4_bx         0x100591a0        0x0 ../../core/dynawa/io_isr.o
 .v4_bx         0x100591a0        0x0 ../../core/startup/extras.o
 .v4_bx         0x100591a0        0x0 ../../core/freertos/tasks.o
 .v4_bx         0x100591a0        0x0 ../../core/freertos/queue.o
 .v4_bx         0x100591a0        0x0 ../../core/freertos/list.o
 .v4_bx         0x100591a0        0x0 ../../core/freertos/portable/GCC/ARM7_AT91SAM7S/port.o
 .v4_bx         0x100591a0        0x0 ../../core/freertos/portable/MemMang/heap_3.o
 .v4_bx         0x100591a0        0x0 ../../core/usb/common/cdc/CDCSetControlLineStateRequest.o
 .v4_bx         0x100591a0        0x0 ../../core/usb/common/cdc/CDCLineCoding.o
 .v4_bx         0x100591a0        0x0 ../../core/usb/device/cdc-serial/CDCDSerialDriver.o
 .v4_bx         0x100591a0        0x0 ../../core/usb/device/cdc-serial/CDCDSerialDriverDescriptors.o
 .v4_bx         0x100591a0        0x0 ../../core/usb/device/core/USBDCallbacks_Resumed.o
 .v4_bx         0x100591a0        0x0 ../../core/usb/device/core/USBDCallbacks_Suspended.o
 .v4_bx         0x100591a0        0x0 ../../core/usb/device/core/USBDDriverCb_CfgChanged.o
 .v4_bx         0x100591a0        0x0 ../../core/usb/device/core/USBDDriverCb_IfSettingChanged.o
 .v4_bx         0x100591a0        0x0 ../../core/usb/device/core/USBDCallbacks_Initialized.o
 .v4_bx         0x100591a0        0x0 ../../core/usb/device/core/USBDCallbacks_Reset.o
 .v4_bx         0x100591a0        0x0 ../../core/usb/device/core/USBDDriver.o
 .v4_bx         0x100591a0        0x0 ../../core/usb/common/core/USBSetAddressRequest.o
 .v4_bx         0x100591a0        0x0 ../../core/usb/common/core/USBGenericDescriptor.o
 .v4_bx         0x100591a0        0x0 ../../core/usb/common/core/USBGenericRequest.o
 .v4_bx         0x100591a0        0x0 ../../core/usb/common/core/USBGetDescriptorRequest.o
 .v4_bx         0x100591a0        0x0 ../../core/usb/common/core/USBSetConfigurationRequest.o
 .v4_bx         0x100591a0        0x0 ../../core/usb/common/core/USBFeatureRequest.o
 .v4_bx         0x100591a0        0x0 ../../core/usb/common/core/USBEndpointDescriptor.o
 .v4_bx         0x100591a0        0x0 ../../core/usb/common/core/USBConfigurationDescriptor.o
 .v4_bx         0x100591a0        0x0 ../../core/usb/common/core/USBInterfaceRequest.o
 .v4_bx         0x100591a0        0x0 ../../core/utils/rprintf.o
 .v4_bx         0x100591a0        0x0 ../../core/utils/time.o
 .v4_bx         0x100591a0        0x0 ../../core/utils/delay.o
 .v4_bx         0x100591a0        0x0 ../../core/screen/screen.o
 .v4_bx         0x100591a0        0x0 ../../core/screen/font.o
 .v4_bx         0x100591a0        0x0 ../../core/lua-5.1.4/src/lapi.o
 .v4_bx         0x100591a0        0x0 ../../core/lua-5.1.4/src/lauxlib.o
 .v4_bx         0x100591a0        0x0 ../../core/lua-5.1.4/src/lbaselib.o
 .v4_bx         0x100591a0        0x0 ../../core/lua-5.1.4/src/lcode.o
 .v4_bx         0x100591a0        0x0 ../../core/lua-5.1.4/src/ldblib.o
 .v4_bx         0x100591a0        0x0 ../../core/lua-5.1.4/src/ldebug.o
 .v4_bx         0x100591a0        0x0 ../../core/lua-5.1.4/src/ldo.o
 .v4_bx         0x100591a0        0x0 ../../core/lua-5.1.4/src/ldump.o
 .v4_bx         0x100591a0        0x0 ../../core/lua-5.1.4/src/lfunc.o
 .v4_bx         0x100591a0        0x0 ../../core/lua-5.1.4/src/lgc.o
 .v4_bx         0x100591a0        0x0 ../../core/lua-5.1.4/src/linit.o
 .v4_bx         0x100591a0        0x0 ../../core/lua-5.1.4/src/liolib.o
 .v4_bx         0x100591a0        0x0 ../../core/lua-5.1.4/src/llex.o
 .v4_bx         0x100591a0        0x0 ../../core/lua-5.1.4/src/lmathlib.o
 .v4_bx         0x100591a0        0x0 ../../core/lua-5.1.4/src/lmem.o
 .v4_bx         0x100591a0        0x0 ../../core/lua-5.1.4/src/loadlib.o
 .v4_bx         0x100591a0        0x0 ../../core/lua-5.1.4/src/lobject.o
 .v4_bx         0x100591a0        0x0 ../../core/lua-5.1.4/src/lopcodes.o
 .v4_bx         0x100591a0        0x0 ../../core/lua-5.1.4/src/loslib.o
 .v4_bx         0x100591a0        0x0 ../../core/lua-5.1.4/src/lparser.o
 .v4_bx         0x100591a0        0x0 ../../core/lua-5.1.4/src/lstate.o
 .v4_bx         0x100591a0        0x0 ../../core/lua-5.1.4/src/lstring.o
 .v4_bx         0x100591a0        0x0 ../../core/lua-5.1.4/src/lstrlib.o
 .v4_bx         0x100591a0        0x0 ../../core/lua-5.1.4/src/ltable.o
 .v4_bx         0x100591a0        0x0 ../../core/lua-5.1.4/src/ltablib.o
 .v4_bx         0x100591a0        0x0 ../../core/lua-5.1.4/src/ltm.o
 .v4_bx         0x100591a0        0x0 ../../core/lua-5.1.4/src/lundump.o
 .v4_bx         0x100591a0        0x0 ../../core/lua-5.1.4/src/lvm.o
 .v4_bx         0x100591a0        0x0 ../../core/lua-5.1.4/src/lzio.o
 .v4_bx         0x100591a0        0x0 ../../core/lua-5.1.4/src/print.o
 .v4_bx         0x100591a0        0x0 ../../core/dynawa/rtos.o
 .v4_bx         0x100591a0        0x0 ../../core/dynawa/usbserial.o
 .v4_bx         0x100591a0        0x0 ../../core/dynawa/serial.o
 .v4_bx         0x100591a0        0x0 ../../core/dynawa/main.o
 .v4_bx         0x100591a0        0x0 ../../core/dynawa/io.o
 .v4_bx         0x100591a0        0x0 ../../core/dynawa/led.o
 .v4_bx         0x100591a0        0x0 ../../core/dynawa/lua/lua.o
 .v4_bx         0x100591a0        0x0 ../../core/dynawa/lua/lua_isr.o
 .v4_bx         0x100591a0        0x0 ../../core/dynawa/lua/lib_dynawa.o
 .v4_bx         0x100591a0        0x0 ../../core/dynawa/lua/lib_dynawa_timer.o
 .v4_bx         0x100591a0        0x0 ../../core/dynawa/lua/lib_dynawa_bitmap.o
 .v4_bx         0x100591a0        0x0 ../../core/dynawa/event.o
 .v4_bx         0x100591a0        0x0 ../../core/dynawa/timer.o
 .v4_bx         0x100591a0        0x0 ../../core/dynawa/bitmap.o
 .v4_bx         0x100591a0        0x0 ../../core/sdcard/sdcard.o
 .v4_bx         0x100591a0        0x0 ../../core/dynawa/fat.o
 .v4_bx         0x100591a0        0x0 ../../core/fatfs-0.07/src/option/ccsbcs.o
 .v4_bx         0x100591a0        0x0 ../../core/fatfs-0.07/src/diskio.o
 .v4_bx         0x100591a0        0x0 ../../core/fatfs-0.07/src/ff.o
 .v4_bx         0x100591a0        0x0 ../../core/monitor/args.o
 .v4_bx         0x100591a0        0x0 ../../core/monitor/argsdispatch.o
 .v4_bx         0x100591a0        0x0 ../../core/monitor/monitor.o
 .v4_bx         0x100591a0        0x0 ../../core/yabcsp/src/crc.o
 .v4_bx         0x100591a0        0x0 ../../core/yabcsp/src/init.o
 .v4_bx         0x100591a0        0x0 ../../core/yabcsp/src/le.o
 .v4_bx         0x100591a0        0x0 ../../core/yabcsp/src/rx.o
 .v4_bx         0x100591a0        0x0 ../../core/yabcsp/src/txmsg.o
 .v4_bx         0x100591a0        0x0 ../../core/yabcsp/src/txslip.o
 .v4_bx         0x100591a0        0x0 ../../core/dynawa/bcsp/main.o
 .v4_bx         0x100591a0        0x0 ../../core/dynawa/bcsp/abcsp_support_functions.o
 .v4_bx         0x100591a0        0x0 ../../core/dynawa/bcsp/uSched.o
 .v4_bx         0x100591a0        0x0 ../../core/dynawa/bcsp/SerialCom.o
 .v4_bx         0x100591a0        0x0 ../../core/peripherals/serial.o
 .v4_bx         0x100591a0        0x0 ../../core/peripherals/oled/oled.o
 .v4_bx         0x100591a0        0x0 ../../core/peripherals/spi.o
 .v4_bx         0x100591a0        0x0 ../../core/peripherals/pmc/pmc.o
 .v4_bx         0x100591a0        0x0 ../../core/peripherals/usart/usart.o
 .v4_bx         0x100591a0        0x0 ../../core/peripherals/aic/aic.o
 .v4_bx         0x100591a0        0x0 ../../core/peripherals/pio/pio.o
 .v4_bx         0x100591a0        0x0 ../../core/peripherals/rtc.o
 .v4_bx         0x100591a0        0x0 ../../core/peripherals/i2c.o
 .v4_bx         0x100591a0        0x0 ../../core/peripherals/accel.o
 .v4_bx         0x100591a0        0x0 ../../core/peripherals/gasgauge.o
 .v4_bx         0x100591a0        0x0 ../../core/peripherals/amblightsensor.o
 .v4_bx         0x100591a0        0x0 ../../core/peripherals/ledrgb.o
 .v4_bx         0x100591a0        0x0 ../../core/lua-5.1.4/src/lnum.o
 .v4_bx         0x100591a0        0x0 ../../core/lwalkera-lwBT-f64e170/lwbt/fcs.o
 .v4_bx         0x100591a0        0x0 ../../core/lwalkera-lwBT-f64e170/lwbt/hci.o
 .v4_bx         0x100591a0        0x0 ../../core/lwalkera-lwBT-f64e170/lwbt/l2cap.o
 .v4_bx         0x100591a0        0x0 ../../core/lwalkera-lwBT-f64e170/lwbt/lwbt_memp.o
 .v4_bx         0x100591a0        0x0 ../../core/lwalkera-lwBT-f64e170/lwbt/rfcomm.o
 .v4_bx         0x100591a0        0x0 ../../core/lwalkera-lwBT-f64e170/lwbt/sdp.o
 .v4_bx         0x100591a0        0x0 ../../core/lwalkera-lwBT-f64e170/lwip/inet.o
 .v4_bx         0x100591a0        0x0 ../../core/lwalkera-lwBT-f64e170/lwip/memp.o
 .v4_bx         0x100591a0        0x0 ../../core/lwalkera-lwBT-f64e170/lwip/pbuf.o
 .v4_bx         0x100591a0        0x0 ../../core/lwalkera-lwBT-f64e170/lwip/stats.o
 .v4_bx         0x100591a0        0x0 ../../core/lwalkera-lwBT-f64e170/bt_spp.o
 .v4_bx         0x100591a0        0x0 ../../libraries/zlib-1.2.3/adler32.o
 .v4_bx         0x100591a0        0x0 ../../libraries/zlib-1.2.3/compress.o
 .v4_bx         0x100591a0        0x0 ../../libraries/zlib-1.2.3/crc32.o
 .v4_bx         0x100591a0        0x0 ../../libraries/zlib-1.2.3/gzio.o
 .v4_bx         0x100591a0        0x0 ../../libraries/zlib-1.2.3/uncompr.o
 .v4_bx         0x100591a0        0x0 ../../libraries/zlib-1.2.3/deflate.o
 .v4_bx         0x100591a0        0x0 ../../libraries/zlib-1.2.3/trees.o
 .v4_bx         0x100591a0        0x0 ../../libraries/zlib-1.2.3/zutil.o
 .v4_bx         0x100591a0        0x0 ../../libraries/zlib-1.2.3/inflate.o
 .v4_bx         0x100591a0        0x0 ../../libraries/zlib-1.2.3/infback.o
 .v4_bx         0x100591a0        0x0 ../../libraries/zlib-1.2.3/inftrees.o
 .v4_bx         0x100591a0        0x0 ../../libraries/zlib-1.2.3/inffast.o
 .v4_bx         0x100591a0        0x0 ../../libraries/libpng-1.4.0/png.o
 .v4_bx         0x100591a0        0x0 ../../libraries/libpng-1.4.0/pngerror.o
 .v4_bx         0x100591a0        0x0 ../../libraries/libpng-1.4.0/pngget.o
 .v4_bx         0x100591a0        0x0 ../../libraries/libpng-1.4.0/pngmem.o
 .v4_bx         0x100591a0        0x0 ../../libraries/libpng-1.4.0/pngpread.o
 .v4_bx         0x100591a0        0x0 ../../libraries/libpng-1.4.0/pngread.o
 .v4_bx         0x100591a0        0x0 ../../libraries/libpng-1.4.0/pngrio.o
 .v4_bx         0x100591a0        0x0 ../../libraries/libpng-1.4.0/pngrtran.o
 .v4_bx         0x100591a0        0x0 ../../libraries/libpng-1.4.0/pngrutil.o
 .v4_bx         0x100591a0        0x0 ../../libraries/libpng-1.4.0/pngset.o
 .v4_bx         0x100591a0        0x0 ../../libraries/libpng-1.4.0/pngtrans.o
 .v4_bx         0x100591a0        0x0 ../../libraries/libpng-1.4.0/pngwio.o
 .v4_bx         0x100591a0        0x0 ../../libraries/libpng-1.4.0/pngwrite.o
 .v4_bx         0x100591a0        0x0 ../../libraries/libpng-1.4.0/pngwtran.o
 .v4_bx         0x100591a0        0x0 ../../libraries/libpng-1.4.0/pngwutil.o
 .v4_bx         0x100591a0        0x0 ../../core/dynawa/png.o
 .v4_bx         0x100591a0        0x0 image.o
 .v4_bx         0x100591a0        0x0 /tmp/ccIBIrH5.o
 .v4_bx         0x100591a0        0x0 /tmp/ccAJfFnu.o
 .v4_bx         0x100591a0        0x0 /usr/local/arm-elf-tools/gcc-4.3.3/lib/gcc/arm-elf/4.3.3/../../../../arm-elf/lib/interwork/libm.a(lib_a-s_atan.o)
 .v4_bx         0x100591a0        0x0 /usr/local/arm-elf-tools/gcc-4.3.3/lib/gcc/arm-elf/4.3.3/../../../../arm-elf/lib/interwork/libm.a(lib_a-s_ceil.o)
 .v4_bx         0x100591a0        0x0 /usr/local/arm-elf-tools/gcc-4.3.3/lib/gcc/arm-elf/4.3.3/../../../../arm-elf/lib/interwork/libm.a(lib_a-s_cos.o)
 .v4_bx         0x100591a0        0x0 /usr/local/arm-elf-tools/gcc-4.3.3/lib/gcc/arm-elf/4.3.3/../../../../arm-elf/lib/interwork/libm.a(lib_a-s_fabs.o)
 .v4_bx         0x100591a0        0x0 /usr/local/arm-elf-tools/gcc-4.3.3/lib/gcc/arm-elf/4.3.3/../../../../arm-elf/lib/interwork/libm.a(lib_a-s_floor.o)
 .v4_bx         0x100591a0        0x0 /usr/local/arm-elf-tools/gcc-4.3.3/lib/gcc/arm-elf/4.3.3/../../../../arm-elf/lib/interwork/libm.a(lib_a-s_frexp.o)
 .v4_bx         0x100591a0        0x0 /usr/local/arm-elf-tools/gcc-4.3.3/lib/gcc/arm-elf/4.3.3/../../../../arm-elf/lib/interwork/libm.a(lib_a-s_ldexp.o)
 .v4_bx         0x100591a0        0x0 /usr/local/arm-elf-tools/gcc-4.3.3/lib/gcc/arm-elf/4.3.3/../../../../arm-elf/lib/interwork/libm.a(lib_a-s_modf.o)
 .v4_bx         0x100591a0        0x0 /usr/local/arm-elf-tools/gcc-4.3.3/lib/gcc/arm-elf/4.3.3/../../../../arm-elf/lib/interwork/libm.a(lib_a-s_scalbn.o)
 .v4_bx         0x100591a0        0x0 /usr/local/arm-elf-tools/gcc-4.3.3/lib/gcc/arm-elf/4.3.3/../../../../arm-elf/lib/interwork/libm.a(lib_a-s_sin.o)
 .v4_bx         0x100591a0        0x0 /usr/local/arm-elf-tools/gcc-4.3.3/lib/gcc/arm-elf/4.3.3/../../../../arm-elf/lib/interwork/libm.a(lib_a-s_tanh.o)
 .v4_bx         0x100591a0        0x0 /usr/local/arm-elf-tools/gcc-4.3.3/lib/gcc/arm-elf/4.3.3/../../../../arm-elf/lib/interwork/libm.a(lib_a-s_tan.o)
 .v4_bx         0x100591a0        0x0 /usr/local/arm-elf-tools/gcc-4.3.3/lib/gcc/arm-elf/4.3.3/../../../../arm-elf/lib/interwork/libm.a(lib_a-w_acos.o)
 .v4_bx         0x100591a0        0x0 /usr/local/arm-elf-tools/gcc-4.3.3/lib/gcc/arm-elf/4.3.3/../../../../arm-elf/lib/interwork/libm.a(lib_a-w_asin.o)
 .v4_bx         0x100591a0        0x0 /usr/local/arm-elf-tools/gcc-4.3.3/lib/gcc/arm-elf/4.3.3/../../../../arm-elf/lib/interwork/libm.a(lib_a-w_atan2.o)
 .v4_bx         0x100591a0        0x0 /usr/local/arm-elf-tools/gcc-4.3.3/lib/gcc/arm-elf/4.3.3/../../../../arm-elf/lib/interwork/libm.a(lib_a-w_cosh.o)
 .v4_bx         0x100591a0        0x0 /usr/local/arm-elf-tools/gcc-4.3.3/lib/gcc/arm-elf/4.3.3/../../../../arm-elf/lib/interwork/libm.a(lib_a-w_exp.o)
 .v4_bx         0x100591a0        0x0 /usr/local/arm-elf-tools/gcc-4.3.3/lib/gcc/arm-elf/4.3.3/../../../../arm-elf/lib/interwork/libm.a(lib_a-w_fmod.o)
 .v4_bx         0x100591a0        0x0 /usr/local/arm-elf-tools/gcc-4.3.3/lib/gcc/arm-elf/4.3.3/../../../../arm-elf/lib/interwork/libm.a(lib_a-w_log10.o)
 .v4_bx         0x100591a0        0x0 /usr/local/arm-elf-tools/gcc-4.3.3/lib/gcc/arm-elf/4.3.3/../../../../arm-elf/lib/interwork/libm.a(lib_a-w_log.o)
 .v4_bx         0x100591a0        0x0 /usr/local/arm-elf-tools/gcc-4.3.3/lib/gcc/arm-elf/4.3.3/../../../../arm-elf/lib/interwork/libm.a(lib_a-w_pow.o)
 .v4_bx         0x100591a0        0x0 /usr/local/arm-elf-tools/gcc-4.3.3/lib/gcc/arm-elf/4.3.3/../../../../arm-elf/lib/interwork/libm.a(lib_a-w_sinh.o)
 .v4_bx         0x100591a0        0x0 /usr/local/arm-elf-tools/gcc-4.3.3/lib/gcc/arm-elf/4.3.3/../../../../arm-elf/lib/interwork/libm.a(lib_a-w_sqrt.o)
 .v4_bx         0x100591a0        0x0 /usr/local/arm-elf-tools/gcc-4.3.3/lib/gcc/arm-elf/4.3.3/../../../../arm-elf/lib/interwork/libm.a(lib_a-e_acos.o)
 .v4_bx         0x100591a0        0x0 /usr/local/arm-elf-tools/gcc-4.3.3/lib/gcc/arm-elf/4.3.3/../../../../arm-elf/lib/interwork/libm.a(lib_a-e_asin.o)
 .v4_bx         0x100591a0        0x0 /usr/local/arm-elf-tools/gcc-4.3.3/lib/gcc/arm-elf/4.3.3/../../../../arm-elf/lib/interwork/libm.a(lib_a-e_atan2.o)
 .v4_bx         0x100591a0        0x0 /usr/local/arm-elf-tools/gcc-4.3.3/lib/gcc/arm-elf/4.3.3/../../../../arm-elf/lib/interwork/libm.a(lib_a-e_cosh.o)
 .v4_bx         0x100591a0        0x0 /usr/local/arm-elf-tools/gcc-4.3.3/lib/gcc/arm-elf/4.3.3/../../../../arm-elf/lib/interwork/libm.a(lib_a-e_exp.o)
 .v4_bx         0x100591a0        0x0 /usr/local/arm-elf-tools/gcc-4.3.3/lib/gcc/arm-elf/4.3.3/../../../../arm-elf/lib/interwork/libm.a(lib_a-e_fmod.o)
 .v4_bx         0x100591a0        0x0 /usr/local/arm-elf-tools/gcc-4.3.3/lib/gcc/arm-elf/4.3.3/../../../../arm-elf/lib/interwork/libm.a(lib_a-e_log10.o)
 .v4_bx         0x100591a0        0x0 /usr/local/arm-elf-tools/gcc-4.3.3/lib/gcc/arm-elf/4.3.3/../../../../arm-elf/lib/interwork/libm.a(lib_a-e_log.o)
 .v4_bx         0x100591a0        0x0 /usr/local/arm-elf-tools/gcc-4.3.3/lib/gcc/arm-elf/4.3.3/../../../../arm-elf/lib/interwork/libm.a(lib_a-e_pow.o)
 .v4_bx         0x100591a0        0x0 /usr/local/arm-elf-tools/gcc-4.3.3/lib/gcc/arm-elf/4.3.3/../../../../arm-elf/lib/interwork/libm.a(lib_a-e_rem_pio2.o)
 .v4_bx         0x100591a0        0x0 /usr/local/arm-elf-tools/gcc-4.3.3/lib/gcc/arm-elf/4.3.3/../../../../arm-elf/lib/interwork/libm.a(lib_a-e_sinh.o)
 .v4_bx         0x100591a0        0x0 /usr/local/arm-elf-tools/gcc-4.3.3/lib/gcc/arm-elf/4.3.3/../../../../arm-elf/lib/interwork/libm.a(lib_a-e_sqrt.o)
 .v4_bx         0x100591a0        0x0 /usr/local/arm-elf-tools/gcc-4.3.3/lib/gcc/arm-elf/4.3.3/../../../../arm-elf/lib/interwork/libm.a(lib_a-k_cos.o)
 .v4_bx         0x100591a0        0x0 /usr/local/arm-elf-tools/gcc-4.3.3/lib/gcc/arm-elf/4.3.3/../../../../arm-elf/lib/interwork/libm.a(lib_a-k_rem_pio2.o)
 .v4_bx         0x100591a0        0x0 /usr/local/arm-elf-tools/gcc-4.3.3/lib/gcc/arm-elf/4.3.3/../../../../arm-elf/lib/interwork/libm.a(lib_a-k_sin.o)
 .v4_bx         0x100591a0        0x0 /usr/local/arm-elf-tools/gcc-4.3.3/lib/gcc/arm-elf/4.3.3/../../../../arm-elf/lib/interwork/libm.a(lib_a-k_tan.o)
 .v4_bx         0x100591a0        0x0 /usr/local/arm-elf-tools/gcc-4.3.3/lib/gcc/arm-elf/4.3.3/../../../../arm-elf/lib/interwork/libm.a(lib_a-s_copysign.o)
 .v4_bx         0x100591a0        0x0 /usr/local/arm-elf-tools/gcc-4.3.3/lib/gcc/arm-elf/4.3.3/../../../../arm-elf/lib/interwork/libm.a(lib_a-s_expm1.o)
 .v4_bx         0x100591a0        0x0 /usr/local/arm-elf-tools/gcc-4.3.3/lib/gcc/arm-elf/4.3.3/../../../../arm-elf/lib/interwork/libm.a(lib_a-s_finite.o)
 .v4_bx         0x100591a0        0x0 /usr/local/arm-elf-tools/gcc-4.3.3/lib/gcc/arm-elf/4.3.3/../../../../arm-elf/lib/interwork/libm.a(lib_a-s_isnand.o)
 .v4_bx         0x100591a0        0x0 /usr/local/arm-elf-tools/gcc-4.3.3/lib/gcc/arm-elf/4.3.3/../../../../arm-elf/lib/interwork/libm.a(lib_a-s_lib_ver.o)
 .v4_bx         0x100591a0        0x0 /usr/local/arm-elf-tools/gcc-4.3.3/lib/gcc/arm-elf/4.3.3/../../../../arm-elf/lib/interwork/libm.a(lib_a-s_matherr.o)
 .v4_bx         0x100591a0        0x0 /usr/local/arm-elf-tools/gcc-4.3.3/lib/gcc/arm-elf/4.3.3/../../../../arm-elf/lib/interwork/libm.a(lib_a-s_nan.o)
 .v4_bx         0x100591a0        0x0 /usr/local/arm-elf-tools/gcc-4.3.3/lib/gcc/arm-elf/4.3.3/../../../../arm-elf/lib/interwork/libm.a(lib_a-s_rint.o)
 .v4_bx         0x100591a0        0x0 /usr/local/arm-elf-tools/gcc-4.3.3/lib/gcc/arm-elf/4.3.3/interwork/libgcc.a(_udivsi3.o)
 .v4_bx         0x100591a0        0x0 /usr/local/arm-elf-tools/gcc-4.3.3/lib/gcc/arm-elf/4.3.3/interwork/libgcc.a(_divsi3.o)
 .v4_bx         0x100591a0        0x0 /usr/local/arm-elf-tools/gcc-4.3.3/lib/gcc/arm-elf/4.3.3/interwork/libgcc.a(_umodsi3.o)
 .v4_bx         0x100591a0        0x0 /usr/local/arm-elf-tools/gcc-4.3.3/lib/gcc/arm-elf/4.3.3/interwork/libgcc.a(_modsi3.o)
 .v4_bx         0x100591a0        0x0 /usr/local/arm-elf-tools/gcc-4.3.3/lib/gcc/arm-elf/4.3.3/interwork/libgcc.a(_dvmd_tls.o)
 .v4_bx         0x100591a0        0x0 /usr/local/arm-elf-tools/gcc-4.3.3/lib/gcc/arm-elf/4.3.3/interwork/libgcc.a(_fixunsdfsi.o)
 .v4_bx         0x100591a0        0x0 /usr/local/arm-elf-tools/gcc-4.3.3/lib/gcc/arm-elf/4.3.3/interwork/libgcc.a(_mul_sf.o)
 .v4_bx         0x100591a0        0x0 /usr/local/arm-elf-tools/gcc-4.3.3/lib/gcc/arm-elf/4.3.3/interwork/libgcc.a(_div_sf.o)
 .v4_bx         0x100591a0        0x0 /usr/local/arm-elf-tools/gcc-4.3.3/lib/gcc/arm-elf/4.3.3/interwork/libgcc.a(_eq_sf.o)
 .v4_bx         0x100591a0        0x0 /usr/local/arm-elf-tools/gcc-4.3.3/lib/gcc/arm-elf/4.3.3/interwork/libgcc.a(_si_to_sf.o)
 .v4_bx         0x100591a0        0x0 /usr/local/arm-elf-tools/gcc-4.3.3/lib/gcc/arm-elf/4.3.3/interwork/libgcc.a(_sf_to_df.o)
 .v4_bx         0x100591a0        0x0 /usr/local/arm-elf-tools/gcc-4.3.3/lib/gcc/arm-elf/4.3.3/interwork/libgcc.a(_thenan_sf.o)
 .v4_bx         0x100591a0        0x0 /usr/local/arm-elf-tools/gcc-4.3.3/lib/gcc/arm-elf/4.3.3/interwork/libgcc.a(_usi_to_sf.o)
 .v4_bx         0x100591a0        0x0 /usr/local/arm-elf-tools/gcc-4.3.3/lib/gcc/arm-elf/4.3.3/interwork/libgcc.a(_addsub_df.o)
 .v4_bx         0x100591a0        0x0 /usr/local/arm-elf-tools/gcc-4.3.3/lib/gcc/arm-elf/4.3.3/interwork/libgcc.a(_mul_df.o)
 .v4_bx         0x100591a0        0x0 /usr/local/arm-elf-tools/gcc-4.3.3/lib/gcc/arm-elf/4.3.3/interwork/libgcc.a(_div_df.o)
 .v4_bx         0x100591a0        0x0 /usr/local/arm-elf-tools/gcc-4.3.3/lib/gcc/arm-elf/4.3.3/interwork/libgcc.a(_eq_df.o)
 .v4_bx         0x100591a0        0x0 /usr/local/arm-elf-tools/gcc-4.3.3/lib/gcc/arm-elf/4.3.3/interwork/libgcc.a(_ne_df.o)
 .v4_bx         0x100591a0        0x0 /usr/local/arm-elf-tools/gcc-4.3.3/lib/gcc/arm-elf/4.3.3/interwork/libgcc.a(_gt_df.o)
 .v4_bx         0x100591a0        0x0 /usr/local/arm-elf-tools/gcc-4.3.3/lib/gcc/arm-elf/4.3.3/interwork/libgcc.a(_ge_df.o)
 .v4_bx         0x100591a0        0x0 /usr/local/arm-elf-tools/gcc-4.3.3/lib/gcc/arm-elf/4.3.3/interwork/libgcc.a(_lt_df.o)
 .v4_bx         0x100591a0        0x0 /usr/local/arm-elf-tools/gcc-4.3.3/lib/gcc/arm-elf/4.3.3/interwork/libgcc.a(_le_df.o)
 .v4_bx         0x100591a0        0x0 /usr/local/arm-elf-tools/gcc-4.3.3/lib/gcc/arm-elf/4.3.3/interwork/libgcc.a(_si_to_df.o)
 .v4_bx         0x100591a0        0x0 /usr/local/arm-elf-tools/gcc-4.3.3/lib/gcc/arm-elf/4.3.3/interwork/libgcc.a(_df_to_si.o)
 .v4_bx         0x100591a0        0x0 /usr/local/arm-elf-tools/gcc-4.3.3/lib/gcc/arm-elf/4.3.3/interwork/libgcc.a(_make_df.o)
 .v4_bx         0x100591a0        0x0 /usr/local/arm-elf-tools/gcc-4.3.3/lib/gcc/arm-elf/4.3.3/interwork/libgcc.a(_df_to_sf.o)
 .v4_bx         0x100591a0        0x0 /usr/local/arm-elf-tools/gcc-4.3.3/lib/gcc/arm-elf/4.3.3/interwork/libgcc.a(_thenan_df.o)
 .v4_bx         0x100591a0        0x0 /usr/local/arm-elf-tools/gcc-4.3.3/lib/gcc/arm-elf/4.3.3/interwork/libgcc.a(_usi_to_df.o)
 .v4_bx         0x100591a0        0x0 /usr/local/arm-elf-tools/gcc-4.3.3/lib/gcc/arm-elf/4.3.3/interwork/libgcc.a(_ucmpdi2.o)
 .v4_bx         0x100591a0        0x0 /usr/local/arm-elf-tools/gcc-4.3.3/lib/gcc/arm-elf/4.3.3/interwork/libgcc.a(_clzsi2.o)
 .v4_bx         0x100591a0        0x0 /usr/local/arm-elf-tools/gcc-4.3.3/lib/gcc/arm-elf/4.3.3/interwork/libgcc.a(_pack_sf.o)
 .v4_bx         0x100591a0        0x0 /usr/local/arm-elf-tools/gcc-4.3.3/lib/gcc/arm-elf/4.3.3/interwork/libgcc.a(_unpack_sf.o)
 .v4_bx         0x100591a0        0x0 /usr/local/arm-elf-tools/gcc-4.3.3/lib/gcc/arm-elf/4.3.3/interwork/libgcc.a(_fpcmp_parts_sf.o)
 .v4_bx         0x100591a0        0x0 /usr/local/arm-elf-tools/gcc-4.3.3/lib/gcc/arm-elf/4.3.3/interwork/libgcc.a(_make_sf.o)
 .v4_bx         0x100591a0        0x0 /usr/local/arm-elf-tools/gcc-4.3.3/lib/gcc/arm-elf/4.3.3/interwork/libgcc.a(_pack_df.o)
 .v4_bx         0x100591a0        0x0 /usr/local/arm-elf-tools/gcc-4.3.3/lib/gcc/arm-elf/4.3.3/interwork/libgcc.a(_unpack_df.o)
 .v4_bx         0x100591a0        0x0 /usr/local/arm-elf-tools/gcc-4.3.3/lib/gcc/arm-elf/4.3.3/interwork/libgcc.a(_fpcmp_parts_df.o)
 .v4_bx         0x100591a0        0x0 /usr/local/arm-elf-tools/gcc-4.3.3/lib/gcc/arm-elf/4.3.3/interwork/libgcc.a(_clz.o)
 .v4_bx         0x100591a0        0x0 /usr/local/arm-elf-tools/gcc-4.3.3/lib/gcc/arm-elf/4.3.3/../../../../arm-elf/lib/interwork/libc.a(lib_a-abort.o)
 .v4_bx         0x100591a0        0x0 /usr/local/arm-elf-tools/gcc-4.3.3/lib/gcc/arm-elf/4.3.3/../../../../arm-elf/lib/interwork/libc.a(lib_a-calloc.o)
 .v4_bx         0x100591a0        0x0 /usr/local/arm-elf-tools/gcc-4.3.3/lib/gcc/arm-elf/4.3.3/../../../../arm-elf/lib/interwork/libc.a(lib_a-callocr.o)
 .v4_bx         0x100591a0        0x0 /usr/local/arm-elf-tools/gcc-4.3.3/lib/gcc/arm-elf/4.3.3/../../../../arm-elf/lib/interwork/libc.a(lib_a-clock.o)
 .v4_bx         0x100591a0        0x0 /usr/local/arm-elf-tools/gcc-4.3.3/lib/gcc/arm-elf/4.3.3/../../../../arm-elf/lib/interwork/libc.a(lib_a-ctype_.o)
 .v4_bx         0x100591a0        0x0 /usr/local/arm-elf-tools/gcc-4.3.3/lib/gcc/arm-elf/4.3.3/../../../../arm-elf/lib/interwork/libc.a(lib_a-difftime.o)
 .v4_bx         0x100591a0        0x0 /usr/local/arm-elf-tools/gcc-4.3.3/lib/gcc/arm-elf/4.3.3/../../../../arm-elf/lib/interwork/libc.a(lib_a-errno.o)
 .v4_bx         0x100591a0        0x0 /usr/local/arm-elf-tools/gcc-4.3.3/lib/gcc/arm-elf/4.3.3/../../../../arm-elf/lib/interwork/libc.a(lib_a-exit.o)
 .v4_bx         0x100591a0        0x0 /usr/local/arm-elf-tools/gcc-4.3.3/lib/gcc/arm-elf/4.3.3/../../../../arm-elf/lib/interwork/libc.a(lib_a-fclose.o)
 .v4_bx         0x100591a0        0x0 /usr/local/arm-elf-tools/gcc-4.3.3/lib/gcc/arm-elf/4.3.3/../../../../arm-elf/lib/interwork/libc.a(lib_a-fdopen.o)
 .v4_bx         0x100591a0        0x0 /usr/local/arm-elf-tools/gcc-4.3.3/lib/gcc/arm-elf/4.3.3/../../../../arm-elf/lib/interwork/libc.a(lib_a-fflush.o)
 .v4_bx         0x100591a0        0x0 /usr/local/arm-elf-tools/gcc-4.3.3/lib/gcc/arm-elf/4.3.3/../../../../arm-elf/lib/interwork/libc.a(lib_a-fgets.o)
 .v4_bx         0x100591a0        0x0 /usr/local/arm-elf-tools/gcc-4.3.3/lib/gcc/arm-elf/4.3.3/../../../../arm-elf/lib/interwork/libc.a(lib_a-fileno.o)
 .v4_bx         0x100591a0        0x0 /usr/local/arm-elf-tools/gcc-4.3.3/lib/gcc/arm-elf/4.3.3/../../../../arm-elf/lib/interwork/libc.a(lib_a-findfp.o)
 .v4_bx         0x100591a0        0x0 /usr/local/arm-elf-tools/gcc-4.3.3/lib/gcc/arm-elf/4.3.3/../../../../arm-elf/lib/interwork/libc.a(lib_a-flags.o)
 .v4_bx         0x100591a0        0x0 /usr/local/arm-elf-tools/gcc-4.3.3/lib/gcc/arm-elf/4.3.3/../../../../arm-elf/lib/interwork/libc.a(lib_a-fopen.o)
 .v4_bx         0x100591a0        0x0 /usr/local/arm-elf-tools/gcc-4.3.3/lib/gcc/arm-elf/4.3.3/../../../../arm-elf/lib/interwork/libc.a(lib_a-fprintf.o)
 .v4_bx         0x100591a0        0x0 /usr/local/arm-elf-tools/gcc-4.3.3/lib/gcc/arm-elf/4.3.3/../../../../arm-elf/lib/interwork/libc.a(lib_a-fputc.o)
 .v4_bx         0x100591a0        0x0 /usr/local/arm-elf-tools/gcc-4.3.3/lib/gcc/arm-elf/4.3.3/../../../../arm-elf/lib/interwork/libc.a(lib_a-fputs.o)
 .v4_bx         0x100591a0        0x0 /usr/local/arm-elf-tools/gcc-4.3.3/lib/gcc/arm-elf/4.3.3/../../../../arm-elf/lib/interwork/libc.a(lib_a-fread.o)
 .v4_bx         0x100591a0        0x0 /usr/local/arm-elf-tools/gcc-4.3.3/lib/gcc/arm-elf/4.3.3/../../../../arm-elf/lib/interwork/libc.a(lib_a-freer.o)
 .v4_bx         0x100591a0        0x0 /usr/local/arm-elf-tools/gcc-4.3.3/lib/gcc/arm-elf/4.3.3/../../../../arm-elf/lib/interwork/libc.a(lib_a-freopen.o)
 .v4_bx         0x100591a0        0x0 /usr/local/arm-elf-tools/gcc-4.3.3/lib/gcc/arm-elf/4.3.3/../../../../arm-elf/lib/interwork/libc.a(lib_a-fscanf.o)
 .v4_bx         0x100591a0        0x0 /usr/local/arm-elf-tools/gcc-4.3.3/lib/gcc/arm-elf/4.3.3/../../../../arm-elf/lib/interwork/libc.a(lib_a-fseek.o)
 .v4_bx         0x100591a0        0x0 /usr/local/arm-elf-tools/gcc-4.3.3/lib/gcc/arm-elf/4.3.3/../../../../arm-elf/lib/interwork/libc.a(lib_a-ftell.o)
 .v4_bx         0x100591a0        0x0 /usr/local/arm-elf-tools/gcc-4.3.3/lib/gcc/arm-elf/4.3.3/../../../../arm-elf/lib/interwork/libc.a(lib_a-fvwrite.o)
 .v4_bx         0x100591a0        0x0 /usr/local/arm-elf-tools/gcc-4.3.3/lib/gcc/arm-elf/4.3.3/../../../../arm-elf/lib/interwork/libc.a(lib_a-fwalk.o)
 .v4_bx         0x100591a0        0x0 /usr/local/arm-elf-tools/gcc-4.3.3/lib/gcc/arm-elf/4.3.3/../../../../arm-elf/lib/interwork/libc.a(lib_a-fwrite.o)
 .v4_bx         0x100591a0        0x0 /usr/local/arm-elf-tools/gcc-4.3.3/lib/gcc/arm-elf/4.3.3/../../../../arm-elf/lib/interwork/libc.a(lib_a-getenv.o)
 .v4_bx         0x100591a0        0x0 /usr/local/arm-elf-tools/gcc-4.3.3/lib/gcc/arm-elf/4.3.3/../../../../arm-elf/lib/interwork/libc.a(lib_a-getenv_r.o)
 .v4_bx         0x100591a0        0x0 /usr/local/arm-elf-tools/gcc-4.3.3/lib/gcc/arm-elf/4.3.3/../../../../arm-elf/lib/interwork/libc.a(lib_a-gmtime.o)
 .v4_bx         0x100591a0        0x0 /usr/local/arm-elf-tools/gcc-4.3.3/lib/gcc/arm-elf/4.3.3/../../../../arm-elf/lib/interwork/libc.a(lib_a-gmtime_r.o)
 .v4_bx         0x100591a0        0x0 /usr/local/arm-elf-tools/gcc-4.3.3/lib/gcc/arm-elf/4.3.3/../../../../arm-elf/lib/interwork/libc.a(lib_a-impure.o)
 .v4_bx         0x100591a0        0x0 /usr/local/arm-elf-tools/gcc-4.3.3/lib/gcc/arm-elf/4.3.3/../../../../arm-elf/lib/interwork/libc.a(lib_a-lcltime.o)
 .v4_bx         0x100591a0        0x0 /usr/local/arm-elf-tools/gcc-4.3.3/lib/gcc/arm-elf/4.3.3/../../../../arm-elf/lib/interwork/libc.a(lib_a-lcltime_r.o)
 .v4_bx         0x100591a0        0x0 /usr/local/arm-elf-tools/gcc-4.3.3/lib/gcc/arm-elf/4.3.3/../../../../arm-elf/lib/interwork/libc.a(lib_a-locale.o)
 .v4_bx         0x100591a0        0x0 /usr/local/arm-elf-tools/gcc-4.3.3/lib/gcc/arm-elf/4.3.3/../../../../arm-elf/lib/interwork/libc.a(lib_a-makebuf.o)
 .v4_bx         0x100591a0        0x0 /usr/local/arm-elf-tools/gcc-4.3.3/lib/gcc/arm-elf/4.3.3/../../../../arm-elf/lib/interwork/libc.a(lib_a-malloc.o)
 .v4_bx         0x100591a0        0x0 /usr/local/arm-elf-tools/gcc-4.3.3/lib/gcc/arm-elf/4.3.3/../../../../arm-elf/lib/interwork/libc.a(lib_a-mallocr.o)
 .v4_bx         0x100591a0        0x0 /usr/local/arm-elf-tools/gcc-4.3.3/lib/gcc/arm-elf/4.3.3/../../../../arm-elf/lib/interwork/libc.a(lib_a-memchr.o)
 .v4_bx         0x100591a0        0x0 /usr/local/arm-elf-tools/gcc-4.3.3/lib/gcc/arm-elf/4.3.3/../../../../arm-elf/lib/interwork/libc.a(lib_a-memcmp.o)
 .v4_bx         0x100591a0        0x0 /usr/local/arm-elf-tools/gcc-4.3.3/lib/gcc/arm-elf/4.3.3/../../../../arm-elf/lib/interwork/libc.a(lib_a-memcpy.o)
 .v4_bx         0x100591a0        0x0 /usr/local/arm-elf-tools/gcc-4.3.3/lib/gcc/arm-elf/4.3.3/../../../../arm-elf/lib/interwork/libc.a(lib_a-memmove.o)
 .v4_bx         0x100591a0        0x0 /usr/local/arm-elf-tools/gcc-4.3.3/lib/gcc/arm-elf/4.3.3/../../../../arm-elf/lib/interwork/libc.a(lib_a-memset.o)
 .v4_bx         0x100591a0        0x0 /usr/local/arm-elf-tools/gcc-4.3.3/lib/gcc/arm-elf/4.3.3/../../../../arm-elf/lib/interwork/libc.a(lib_a-mktime.o)
 .v4_bx         0x100591a0        0x0 /usr/local/arm-elf-tools/gcc-4.3.3/lib/gcc/arm-elf/4.3.3/../../../../arm-elf/lib/interwork/libc.a(lib_a-mktm_r.o)
 .v4_bx         0x100591a0        0x0 /usr/local/arm-elf-tools/gcc-4.3.3/lib/gcc/arm-elf/4.3.3/../../../../arm-elf/lib/interwork/libc.a(lib_a-mlock.o)
 .v4_bx         0x100591a0        0x0 /usr/local/arm-elf-tools/gcc-4.3.3/lib/gcc/arm-elf/4.3.3/../../../../arm-elf/lib/interwork/libc.a(lib_a-printf.o)
 .v4_bx         0x100591a0        0x0 /usr/local/arm-elf-tools/gcc-4.3.3/lib/gcc/arm-elf/4.3.3/../../../../arm-elf/lib/interwork/libc.a(lib_a-putc.o)
 .v4_bx         0x100591a0        0x0 /usr/local/arm-elf-tools/gcc-4.3.3/lib/gcc/arm-elf/4.3.3/../../../../arm-elf/lib/interwork/libc.a(lib_a-rand.o)
 .v4_bx         0x100591a0        0x0 /usr/local/arm-elf-tools/gcc-4.3.3/lib/gcc/arm-elf/4.3.3/../../../../arm-elf/lib/interwork/libc.a(lib_a-realloc.o)
 .v4_bx         0x100591a0        0x0 /usr/local/arm-elf-tools/gcc-4.3.3/lib/gcc/arm-elf/4.3.3/../../../../arm-elf/lib/interwork/libc.a(lib_a-reallocr.o)
 .v4_bx         0x100591a0        0x0 /usr/local/arm-elf-tools/gcc-4.3.3/lib/gcc/arm-elf/4.3.3/../../../../arm-elf/lib/interwork/libc.a(lib_a-refill.o)
 .v4_bx         0x100591a0        0x0 /usr/local/arm-elf-tools/gcc-4.3.3/lib/gcc/arm-elf/4.3.3/../../../../arm-elf/lib/interwork/libc.a(lib_a-remove.o)
 .v4_bx         0x100591a0        0x0 /usr/local/arm-elf-tools/gcc-4.3.3/lib/gcc/arm-elf/4.3.3/../../../../arm-elf/lib/interwork/libc.a(lib_a-rget.o)
 .v4_bx         0x100591a0        0x0 /usr/local/arm-elf-tools/gcc-4.3.3/lib/gcc/arm-elf/4.3.3/../../../../arm-elf/lib/interwork/libc.a(lib_a-setjmp.o)
 .v4_bx         0x100591a0        0x0 /usr/local/arm-elf-tools/gcc-4.3.3/lib/gcc/arm-elf/4.3.3/../../../../arm-elf/lib/interwork/libc.a(lib_a-setvbuf.o)
 .v4_bx         0x100591a0        0x0 /usr/local/arm-elf-tools/gcc-4.3.3/lib/gcc/arm-elf/4.3.3/../../../../arm-elf/lib/interwork/libc.a(lib_a-signal.o)
 .v4_bx         0x100591a0        0x0 /usr/local/arm-elf-tools/gcc-4.3.3/lib/gcc/arm-elf/4.3.3/../../../../arm-elf/lib/interwork/libc.a(lib_a-snprintf.o)
 .v4_bx         0x100591a0        0x0 /usr/local/arm-elf-tools/gcc-4.3.3/lib/gcc/arm-elf/4.3.3/../../../../arm-elf/lib/interwork/libc.a(lib_a-sprintf.o)
 .v4_bx         0x100591a0        0x0 /usr/local/arm-elf-tools/gcc-4.3.3/lib/gcc/arm-elf/4.3.3/../../../../arm-elf/lib/interwork/libc.a(lib_a-stdio.o)
 .v4_bx         0x100591a0        0x0 /usr/local/arm-elf-tools/gcc-4.3.3/lib/gcc/arm-elf/4.3.3/../../../../arm-elf/lib/interwork/libc.a(lib_a-strcat.o)
 .v4_bx         0x100591a0        0x0 /usr/local/arm-elf-tools/gcc-4.3.3/lib/gcc/arm-elf/4.3.3/../../../../arm-elf/lib/interwork/libc.a(lib_a-strchr.o)
 .v4_bx         0x100591a0        0x0 /usr/local/arm-elf-tools/gcc-4.3.3/lib/gcc/arm-elf/4.3.3/../../../../arm-elf/lib/interwork/libc.a(lib_a-strcmp.o)
 .v4_bx         0x100591a0        0x0 /usr/local/arm-elf-tools/gcc-4.3.3/lib/gcc/arm-elf/4.3.3/../../../../arm-elf/lib/interwork/libc.a(lib_a-strcoll.o)
 .v4_bx         0x100591a0        0x0 /usr/local/arm-elf-tools/gcc-4.3.3/lib/gcc/arm-elf/4.3.3/../../../../arm-elf/lib/interwork/libc.a(lib_a-strcpy.o)
 .v4_bx         0x100591a0        0x0 /usr/local/arm-elf-tools/gcc-4.3.3/lib/gcc/arm-elf/4.3.3/../../../../arm-elf/lib/interwork/libc.a(lib_a-strcspn.o)
 .v4_bx         0x100591a0        0x0 /usr/local/arm-elf-tools/gcc-4.3.3/lib/gcc/arm-elf/4.3.3/../../../../arm-elf/lib/interwork/libc.a(lib_a-strerror.o)
 .v4_bx         0x100591a0        0x0 /usr/local/arm-elf-tools/gcc-4.3.3/lib/gcc/arm-elf/4.3.3/../../../../arm-elf/lib/interwork/libc.a(lib_a-strftime.o)
 .v4_bx         0x100591a0        0x0 /usr/local/arm-elf-tools/gcc-4.3.3/lib/gcc/arm-elf/4.3.3/../../../../arm-elf/lib/interwork/libc.a(lib_a-strlen.o)
 .v4_bx         0x100591a0        0x0 /usr/local/arm-elf-tools/gcc-4.3.3/lib/gcc/arm-elf/4.3.3/../../../../arm-elf/lib/interwork/libc.a(lib_a-strncat.o)
 .v4_bx         0x100591a0        0x0 /usr/local/arm-elf-tools/gcc-4.3.3/lib/gcc/arm-elf/4.3.3/../../../../arm-elf/lib/interwork/libc.a(lib_a-strncmp.o)
 .v4_bx         0x100591a0        0x0 /usr/local/arm-elf-tools/gcc-4.3.3/lib/gcc/arm-elf/4.3.3/../../../../arm-elf/lib/interwork/libc.a(lib_a-strncpy.o)
 .v4_bx         0x100591a0        0x0 /usr/local/arm-elf-tools/gcc-4.3.3/lib/gcc/arm-elf/4.3.3/../../../../arm-elf/lib/interwork/libc.a(lib_a-strnlen.o)
 .v4_bx         0x100591a0        0x0 /usr/local/arm-elf-tools/gcc-4.3.3/lib/gcc/arm-elf/4.3.3/../../../../arm-elf/lib/interwork/libc.a(lib_a-strpbrk.o)
 .v4_bx         0x100591a0        0x0 /usr/local/arm-elf-tools/gcc-4.3.3/lib/gcc/arm-elf/4.3.3/../../../../arm-elf/lib/interwork/libc.a(lib_a-strrchr.o)
 .v4_bx         0x100591a0        0x0 /usr/local/arm-elf-tools/gcc-4.3.3/lib/gcc/arm-elf/4.3.3/../../../../arm-elf/lib/interwork/libc.a(lib_a-strstr.o)
 .v4_bx         0x100591a0        0x0 /usr/local/arm-elf-tools/gcc-4.3.3/lib/gcc/arm-elf/4.3.3/../../../../arm-elf/lib/interwork/libc.a(lib_a-strtod.o)
 .v4_bx         0x100591a0        0x0 /usr/local/arm-elf-tools/gcc-4.3.3/lib/gcc/arm-elf/4.3.3/../../../../arm-elf/lib/interwork/libc.a(lib_a-strtoul.o)
 .v4_bx         0x100591a0        0x0 /usr/local/arm-elf-tools/gcc-4.3.3/lib/gcc/arm-elf/4.3.3/../../../../arm-elf/lib/interwork/libc.a(lib_a-svfprintf.o)
 .v4_bx         0x100591a0        0x0 /usr/local/arm-elf-tools/gcc-4.3.3/lib/gcc/arm-elf/4.3.3/../../../../arm-elf/lib/interwork/libc.a(lib_a-sysclose.o)
 .v4_bx         0x100591a0        0x0 /usr/local/arm-elf-tools/gcc-4.3.3/lib/gcc/arm-elf/4.3.3/../../../../arm-elf/lib/interwork/libc.a(lib_a-sysgettod.o)
 .v4_bx         0x100591a0        0x0 /usr/local/arm-elf-tools/gcc-4.3.3/lib/gcc/arm-elf/4.3.3/../../../../arm-elf/lib/interwork/libc.a(lib_a-sysopen.o)
 .v4_bx         0x100591a0        0x0 /usr/local/arm-elf-tools/gcc-4.3.3/lib/gcc/arm-elf/4.3.3/../../../../arm-elf/lib/interwork/libc.a(lib_a-sysread.o)
 .v4_bx         0x100591a0        0x0 /usr/local/arm-elf-tools/gcc-4.3.3/lib/gcc/arm-elf/4.3.3/../../../../arm-elf/lib/interwork/libc.a(lib_a-system.o)
 .v4_bx         0x100591a0        0x0 /usr/local/arm-elf-tools/gcc-4.3.3/lib/gcc/arm-elf/4.3.3/../../../../arm-elf/lib/interwork/libc.a(lib_a-sysunlink.o)
 .v4_bx         0x100591a0        0x0 /usr/local/arm-elf-tools/gcc-4.3.3/lib/gcc/arm-elf/4.3.3/../../../../arm-elf/lib/interwork/libc.a(lib_a-syswrite.o)
 .v4_bx         0x100591a0        0x0 /usr/local/arm-elf-tools/gcc-4.3.3/lib/gcc/arm-elf/4.3.3/../../../../arm-elf/lib/interwork/libc.a(lib_a-time.o)
 .v4_bx         0x100591a0        0x0 /usr/local/arm-elf-tools/gcc-4.3.3/lib/gcc/arm-elf/4.3.3/../../../../arm-elf/lib/interwork/libc.a(lib_a-timesr.o)
 .v4_bx         0x100591a0        0x0 /usr/local/arm-elf-tools/gcc-4.3.3/lib/gcc/arm-elf/4.3.3/../../../../arm-elf/lib/interwork/libc.a(lib_a-tmpfile.o)
 .v4_bx         0x100591a0        0x0 /usr/local/arm-elf-tools/gcc-4.3.3/lib/gcc/arm-elf/4.3.3/../../../../arm-elf/lib/interwork/libc.a(lib_a-tmpnam.o)
 .v4_bx         0x100591a0        0x0 /usr/local/arm-elf-tools/gcc-4.3.3/lib/gcc/arm-elf/4.3.3/../../../../arm-elf/lib/interwork/libc.a(lib_a-tzlock.o)
 .v4_bx         0x100591a0        0x0 /usr/local/arm-elf-tools/gcc-4.3.3/lib/gcc/arm-elf/4.3.3/../../../../arm-elf/lib/interwork/libc.a(lib_a-tzvars.o)
 .v4_bx         0x100591a0        0x0 /usr/local/arm-elf-tools/gcc-4.3.3/lib/gcc/arm-elf/4.3.3/../../../../arm-elf/lib/interwork/libc.a(lib_a-ungetc.o)
 .v4_bx         0x100591a0        0x0 /usr/local/arm-elf-tools/gcc-4.3.3/lib/gcc/arm-elf/4.3.3/../../../../arm-elf/lib/interwork/libc.a(lib_a-u_strerr.o)
 .v4_bx         0x100591a0        0x0 /usr/local/arm-elf-tools/gcc-4.3.3/lib/gcc/arm-elf/4.3.3/../../../../arm-elf/lib/interwork/libc.a(lib_a-vfprintf.o)
 .v4_bx         0x100591a0        0x0 /usr/local/arm-elf-tools/gcc-4.3.3/lib/gcc/arm-elf/4.3.3/../../../../arm-elf/lib/interwork/libc.a(lib_a-vfscanf.o)
 .v4_bx         0x100591a0        0x0 /usr/local/arm-elf-tools/gcc-4.3.3/lib/gcc/arm-elf/4.3.3/../../../../arm-elf/lib/interwork/libc.a(lib_a-vsnprintf.o)
 .v4_bx         0x100591a0        0x0 /usr/local/arm-elf-tools/gcc-4.3.3/lib/gcc/arm-elf/4.3.3/../../../../arm-elf/lib/interwork/libc.a(lib_a-wbuf.o)
 .v4_bx         0x100591a0        0x0 /usr/local/arm-elf-tools/gcc-4.3.3/lib/gcc/arm-elf/4.3.3/../../../../arm-elf/lib/interwork/libc.a(lib_a-wsetup.o)
 .v4_bx         0x100591a0        0x0 /usr/local/arm-elf-tools/gcc-4.3.3/lib/gcc/arm-elf/4.3.3/../../../../arm-elf/lib/interwork/libc.a(lib_a-abs.o)
 .v4_bx         0x100591a0        0x0 /usr/local/arm-elf-tools/gcc-4.3.3/lib/gcc/arm-elf/4.3.3/../../../../arm-elf/lib/interwork/libc.a(lib_a-__call_atexit.o)
 .v4_bx         0x100591a0        0x0 /usr/local/arm-elf-tools/gcc-4.3.3/lib/gcc/arm-elf/4.3.3/../../../../arm-elf/lib/interwork/libc.a(lib_a-div.o)
 .v4_bx         0x100591a0        0x0 /usr/local/arm-elf-tools/gcc-4.3.3/lib/gcc/arm-elf/4.3.3/../../../../arm-elf/lib/interwork/libc.a(lib_a-dtoa.o)
 .v4_bx         0x100591a0        0x0 /usr/local/arm-elf-tools/gcc-4.3.3/lib/gcc/arm-elf/4.3.3/../../../../arm-elf/lib/interwork/libc.a(lib_a-environ.o)
 .v4_bx         0x100591a0        0x0 /usr/local/arm-elf-tools/gcc-4.3.3/lib/gcc/arm-elf/4.3.3/../../../../arm-elf/lib/interwork/libc.a(lib_a-envlock.o)
 .v4_bx         0x100591a0        0x0 /usr/local/arm-elf-tools/gcc-4.3.3/lib/gcc/arm-elf/4.3.3/../../../../arm-elf/lib/interwork/libc.a(lib_a-gdtoa-gethex.o)
 .v4_bx         0x100591a0        0x0 /usr/local/arm-elf-tools/gcc-4.3.3/lib/gcc/arm-elf/4.3.3/../../../../arm-elf/lib/interwork/libc.a(lib_a-gdtoa-hexnan.o)
 .v4_bx         0x100591a0        0x0 /usr/local/arm-elf-tools/gcc-4.3.3/lib/gcc/arm-elf/4.3.3/../../../../arm-elf/lib/interwork/libc.a(lib_a-gettimeofdayr.o)
 .v4_bx         0x100591a0        0x0 /usr/local/arm-elf-tools/gcc-4.3.3/lib/gcc/arm-elf/4.3.3/../../../../arm-elf/lib/interwork/libc.a(lib_a-gettzinfo.o)
 .v4_bx         0x100591a0        0x0 /usr/local/arm-elf-tools/gcc-4.3.3/lib/gcc/arm-elf/4.3.3/../../../../arm-elf/lib/interwork/libc.a(lib_a-isattyr.o)
 .v4_bx         0x100591a0        0x0 /usr/local/arm-elf-tools/gcc-4.3.3/lib/gcc/arm-elf/4.3.3/../../../../arm-elf/lib/interwork/libc.a(lib_a-iswspace.o)
 .v4_bx         0x100591a0        0x0 /usr/local/arm-elf-tools/gcc-4.3.3/lib/gcc/arm-elf/4.3.3/../../../../arm-elf/lib/interwork/libc.a(lib_a-labs.o)
 .v4_bx         0x100591a0        0x0 /usr/local/arm-elf-tools/gcc-4.3.3/lib/gcc/arm-elf/4.3.3/../../../../arm-elf/lib/interwork/libc.a(lib_a-mbrtowc.o)
 .v4_bx         0x100591a0        0x0 /usr/local/arm-elf-tools/gcc-4.3.3/lib/gcc/arm-elf/4.3.3/../../../../arm-elf/lib/interwork/libc.a(lib_a-mbtowc_r.o)
 .v4_bx         0x100591a0        0x0 /usr/local/arm-elf-tools/gcc-4.3.3/lib/gcc/arm-elf/4.3.3/../../../../arm-elf/lib/interwork/libc.a(lib_a-mprec.o)
 .v4_bx         0x100591a0        0x0 /usr/local/arm-elf-tools/gcc-4.3.3/lib/gcc/arm-elf/4.3.3/../../../../arm-elf/lib/interwork/libc.a(lib_a-reent.o)
 .v4_bx         0x100591a0        0x0 /usr/local/arm-elf-tools/gcc-4.3.3/lib/gcc/arm-elf/4.3.3/../../../../arm-elf/lib/interwork/libc.a(lib_a-sccl.o)
 .v4_bx         0x100591a0        0x0 /usr/local/arm-elf-tools/gcc-4.3.3/lib/gcc/arm-elf/4.3.3/../../../../arm-elf/lib/interwork/libc.a(lib_a-sf_nan.o)
 .v4_bx         0x100591a0        0x0 /usr/local/arm-elf-tools/gcc-4.3.3/lib/gcc/arm-elf/4.3.3/../../../../arm-elf/lib/interwork/libc.a(lib_a-s_isinfd.o)
 .v4_bx         0x100591a0        0x0 /usr/local/arm-elf-tools/gcc-4.3.3/lib/gcc/arm-elf/4.3.3/../../../../arm-elf/lib/interwork/libc.a(lib_a-strtol.o)

.vectors        0x00000000       0x38 load address 0x100591a0
                0x00000000                __vectors_ram_start__ = .
                0x100591a0                __vectors_load_start__ = (. + (LOADADDR (.vectors) - ADDR (.vectors)))
 *(.vectors .vectors.*)
 .vectors       0x00000000       0x38 /tmp/ccIBIrH5.o
                0x00000038                . = ALIGN (0x4)
                0x00000038                __vectors_ram_end__ = .

.dtors          0x100591d8        0x0
                0x100591d8                __dtors_start__ = .
 *(SORT(.dtors.*))
 *(.dtors)
                0x100591d8                . = ALIGN (0x4)
                0x100591d8                __dtors_end__ = .

.ctors          0x100591d8        0x0
                0x100591d8                __ctors_start__ = .
 *(SORT(.ctors.*))
 *(.ctors)
                0x100591d8                . = ALIGN (0x4)
                0x100591d8                __ctors_end__ = .

.rodata         0x100591d8    0x12f98
 *(.rodata .rodata.* .gnu.linkonce.r.*)
 .rodata.str1.1
                0x100591d8       0x1b ../../core/usb/device/core/USBD_UDP.o
 .rodata.str1.1
                0x100591f3       0x3b ../../core/dynawa/button.o
 *fill*         0x1005922e        0x2 00
 .rodata        0x10059230       0x2c ../../core/startup/extras.o
 .rodata.str1.1
                0x1005925c       0x87 ../../core/startup/extras.o
 .rodata.str1.1
                0x100592e3       0x19 ../../core/freertos/tasks.o
                                 0x1c (size before relaxing)
 .rodata        0x100592fc       0x7d ../../core/usb/device/cdc-serial/CDCDSerialDriverDescriptors.o
                0x1005930e                configurationDescriptors
                0x10059351                languageIdStringDescriptor
                0x100592fc                deviceDescriptor
                0x10059355                productStringDescriptor
                0x1005936b                manufacturerStringDescriptor
 .rodata.str1.1
                0x10059379       0x1c ../../core/usb/device/core/USBDCallbacks_Initialized.o
 *fill*         0x10059395        0x3 00
 .rodata        0x10059398       0x4c ../../core/usb/device/core/USBDDriver.o
 .rodata        0x100593e4     0x11f6 ../../core/screen/font.o
                0x10059d08                font8offsets
                0x100593e4                pCharset10x14
                0x10059b64                pCharset8
 .rodata.str1.1
                0x1005a5da       0x20 ../../core/lua-5.1.4/src/lapi.o
                                 0x23 (size before relaxing)
 *fill*         0x1005a5fa        0x2 00
 .rodata        0x1005a5fc      0x108 ../../core/lua-5.1.4/src/lapi.o
                0x1005a660                lua_ident
 .rodata.str1.1
                0x1005a704      0x126 ../../core/lua-5.1.4/src/lauxlib.o
                                0x148 (size before relaxing)
 .rodata.str1.1
                0x1005a82a      0x39b ../../core/lua-5.1.4/src/lbaselib.o
                                0x3e1 (size before relaxing)
 *fill*         0x1005abc5        0x3 00
 .rodata        0x1005abc8      0x14c ../../core/lua-5.1.4/src/lbaselib.o
 .rodata.str1.1
                0x1005ad14       0x69 ../../core/lua-5.1.4/src/lcode.o
 *fill*         0x1005ad7d        0x3 00
 .rodata        0x1005ad80      0x154 ../../core/lua-5.1.4/src/lcode.o
 .rodata.str1.1
                0x1005aed4      0x184 ../../core/lua-5.1.4/src/ldblib.o
                                0x22f (size before relaxing)
 .rodata        0x1005b058       0x90 ../../core/lua-5.1.4/src/ldblib.o
 .rodata        0x1005b0e8       0xc0 ../../core/lua-5.1.4/src/ldebug.o
 .rodata.str1.1
                0x1005b1a8       0xdd ../../core/lua-5.1.4/src/ldebug.o
                                 0xfb (size before relaxing)
 .rodata.str1.1
                0x1005b285       0x94 ../../core/lua-5.1.4/src/ldo.o
                                 0xaa (size before relaxing)
 *fill*         0x1005b319        0x3 00
 .rodata        0x1005b31c       0x48 ../../core/lua-5.1.4/src/lgc.o
 .rodata.str1.1
                0x1005b364        0xb ../../core/lua-5.1.4/src/linit.o
                                 0x27 (size before relaxing)
 *fill*         0x1005b36f        0x1 00
 .rodata        0x1005b370       0x48 ../../core/lua-5.1.4/src/linit.o
 .rodata.str1.1
                0x1005b3b8      0x12d ../../core/lua-5.1.4/src/liolib.o
                                0x19a (size before relaxing)
 *fill*         0x1005b4e5        0x3 00
 .rodata        0x1005b4e8       0xf0 ../../core/lua-5.1.4/src/liolib.o
 .rodata.str1.1
                0x1005b5d8      0x156 ../../core/lua-5.1.4/src/llex.o
                                0x1af (size before relaxing)
 *fill*         0x1005b72e        0x2 00
 .rodata        0x1005b730       0x84 ../../core/lua-5.1.4/src/llex.o
                0x1005b730                luaX_tokens
 .rodata.str1.1
                0x1005b7b4       0xb6 ../../core/lua-5.1.4/src/lmathlib.o
                                 0xd3 (size before relaxing)
 *fill*         0x1005b86a        0x2 00
 .rodata        0x1005b86c       0xe8 ../../core/lua-5.1.4/src/lmathlib.o
 .rodata.str1.1
                0x1005b954       0x27 ../../core/lua-5.1.4/src/lmem.o
 .rodata.str1.1
                0x1005b97b      0x2fb ../../core/lua-5.1.4/src/loadlib.o
                                0x34a (size before relaxing)
 *fill*         0x1005bc76        0x2 00
 .rodata        0x1005bc78       0x48 ../../core/lua-5.1.4/src/loadlib.o
 .rodata.str1.1
                0x1005bcc0       0x16 ../../core/lua-5.1.4/src/lobject.o
                                 0x21 (size before relaxing)
 *fill*         0x1005bcd6        0x2 00
 .rodata        0x1005bcd8      0x124 ../../core/lua-5.1.4/src/lobject.o
                0x1005bcf0                luaO_nilobject_
 .rodata.str1.1
                0x1005bdfc       0xdf ../../core/lua-5.1.4/src/lopcodes.o
                                 0xf2 (size before relaxing)
 *fill*         0x1005bedb        0x1 00
 .rodata        0x1005bedc       0xc4 ../../core/lua-5.1.4/src/lopcodes.o
                0x1005bf78                luaP_opmodes
                0x1005bedc                luaP_opnames
 .rodata.str1.1
                0x1005bfa0       0xd4 ../../core/lua-5.1.4/src/loslib.o
                                 0xf2 (size before relaxing)
 .rodata        0x1005c074       0x94 ../../core/lua-5.1.4/src/loslib.o
 .rodata.str1.1
                0x1005c108      0x21f ../../core/lua-5.1.4/src/lparser.o
                                0x248 (size before relaxing)
 *fill*         0x1005c327        0x1 00
 .rodata        0x1005c328       0x8c ../../core/lua-5.1.4/src/lparser.o
 .rodata.str1.1
                0x00000000       0x12 ../../core/lua-5.1.4/src/lstate.o
 .rodata        0x1005c3b4       0xe8 ../../core/lua-5.1.4/src/lstrlib.o
 .rodata.str1.1
                0x1005c49c      0x23d ../../core/lua-5.1.4/src/lstrlib.o
                                0x26a (size before relaxing)
 *fill*         0x1005c6d9        0x3 00
 .rodata        0x1005c6dc       0x38 ../../core/lua-5.1.4/src/ltable.o
 .rodata.str1.1
                0x1005c714       0x29 ../../core/lua-5.1.4/src/ltable.o
                                 0x38 (size before relaxing)
 .rodata.str1.1
                0x1005c73d       0xbd ../../core/lua-5.1.4/src/ltablib.o
                                 0xd2 (size before relaxing)
 *fill*         0x1005c7fa        0x2 00
 .rodata        0x1005c7fc       0x50 ../../core/lua-5.1.4/src/ltablib.o
 .rodata.str1.1
                0x1005c84c       0x77 ../../core/lua-5.1.4/src/ltm.o
                                 0xb3 (size before relaxing)
 *fill*         0x1005c8c3        0x1 00
 .rodata        0x1005c8c4       0x70 ../../core/lua-5.1.4/src/ltm.o
                0x1005c8c4                luaT_typenames
 .rodata.str1.1
                0x1005c934       0x7c ../../core/lua-5.1.4/src/lundump.o
 .rodata        0x1005c9b0       0xf8 ../../core/lua-5.1.4/src/lvm.o
 .rodata.str1.1
                0x1005caa8       0xa5 ../../core/lua-5.1.4/src/lvm.o
                                 0xab (size before relaxing)
 .rodata.str1.1
                0x1005cb4d      0x157 ../../core/lua-5.1.4/src/print.o
                                0x18d (size before relaxing)
 .rodata        0x1005cca4       0xac ../../core/lua-5.1.4/src/print.o
 .rodata.str1.1
                0x1005cd50        0xd ../../core/dynawa/serial.o
 .rodata.str1.1
                0x1005cd5d       0x24 ../../core/dynawa/main.o
 .rodata.str1.1
                0x1005cd81      0x1b1 ../../core/dynawa/lua/lua.o
                                0x1c3 (size before relaxing)
 .rodata.str1.1
                0x1005cf32       0x17 ../../core/dynawa/lua/lua_isr.o
 .rodata.str1.1
                0x1005cf49       0x32 ../../core/dynawa/lua/lib_dynawa.o
 *fill*         0x1005cf7b        0x1 00
 .rodata        0x1005cf7c       0x18 ../../core/dynawa/lua/lib_dynawa.o
 .rodata.str1.1
                0x1005cf94       0x3c ../../core/dynawa/lua/lib_dynawa_timer.o
                                 0x42 (size before relaxing)
 .rodata        0x1005cfd0       0x18 ../../core/dynawa/lua/lib_dynawa_timer.o
 .rodata.str1.1
                0x1005cfe8      0x14c ../../core/dynawa/lua/lib_dynawa_bitmap.o
 .rodata        0x1005d134       0x40 ../../core/dynawa/lua/lib_dynawa_bitmap.o
 .rodata.str1.1
                0x1005d174       0x4e ../../core/dynawa/timer.o
 .rodata.str1.1
                0x1005d1c2      0x24f ../../core/dynawa/bitmap.o
 .rodata.str1.1
                0x1005d411       0x13 ../../core/sdcard/sdcard.o
 .rodata.str1.1
                0x1005d424       0xa4 ../../core/dynawa/fat.o
 .rodata        0x1005d4c8       0x68 ../../core/dynawa/fat.o
 .rodata        0x1005d530      0x4c0 ../../core/fatfs-0.07/src/option/ccsbcs.o
 .rodata.str1.1
                0x1005d9f0       0x18 ../../core/fatfs-0.07/src/diskio.o
 .rodata.str1.1
                0x1005da08       0x38 ../../core/fatfs-0.07/src/ff.o
 .rodata        0x1005da40       0xd4 ../../core/fatfs-0.07/src/ff.o
 .rodata.str1.1
                0x1005db14        0x4 ../../core/monitor/args.o
                                  0xc (size before relaxing)
 .rodata.str1.1
                0x1005db18       0x6e ../../core/monitor/argsdispatch.o
                                 0x74 (size before relaxing)
 .rodata.str1.1
                0x1005db86      0xa2d ../../core/monitor/monitor.o
                                0xac0 (size before relaxing)
 *fill*         0x1005e5b3        0x1 00
 .rodata        0x1005e5b4      0x230 ../../core/monitor/monitor.o
 .rodata        0x1005e7e4      0x200 ../../core/yabcsp/src/crc.o
 .rodata        0x1005e9e4       0x38 ../../core/yabcsp/src/le.o
                0x1005e9e4                abcsp_le_sync_msg
                0x1005e9e8                abcsp_le_syncresp_msg
                0x1005e9f0                abcsp_le_confresp_msg
                0x1005e9ec                abcsp_le_conf_msg
 .rodata.str1.1
                0x1005ea1c       0x19 ../../core/yabcsp/src/rx.o
 *fill*         0x1005ea35        0x3 00
 .rodata        0x1005ea38       0x14 ../../core/yabcsp/src/rx.o
 .rodata        0x1005ea4c       0x24 ../../core/yabcsp/src/txmsg.o
 .rodata.str1.1
                0x1005ea70      0x223 ../../core/dynawa/bcsp/main.o
                                0x225 (size before relaxing)
 .rodata.str1.1
                0x1005ec93      0x397 ../../core/dynawa/bcsp/abcsp_support_functions.o
                                0x3c8 (size before relaxing)
 .rodata.str1.1
                0x1005f02a       0xde ../../core/dynawa/bcsp/uSched.o
                                 0xeb (size before relaxing)
 .rodata.str1.1
                0x1005f108      0x25a ../../core/dynawa/bcsp/SerialCom.o
 .rodata.str1.1
                0x1005f362       0xb8 ../../core/peripherals/pmc/pmc.o
 .rodata.str1.1
                0x1005f41a       0x33 ../../core/peripherals/usart/usart.o
 *fill*         0x1005f44d        0x3 00
 .rodata        0x1005f450       0x14 ../../core/peripherals/pio/pio.o
 .rodata.str1.1
                0x00000000        0x9 ../../core/lua-5.1.4/src/lnum.o
 .rodata        0x1005f464      0x300 ../../core/lwalkera-lwBT-f64e170/lwbt/fcs.o
 .rodata.str1.1
                0x1005f764     0x1586 ../../core/lwalkera-lwBT-f64e170/lwbt/hci.o
                               0x15a3 (size before relaxing)
 *fill*         0x10060cea        0x2 00
 .rodata        0x10060cec      0x128 ../../core/lwalkera-lwBT-f64e170/lwbt/hci.o
 .rodata.str1.1
                0x10060e14     0x1070 ../../core/lwalkera-lwBT-f64e170/lwbt/l2cap.o
                               0x1080 (size before relaxing)
 .rodata        0x10061e84       0x24 ../../core/lwalkera-lwBT-f64e170/lwbt/l2cap.o
 .rodata        0x10061ea8       0x34 ../../core/lwalkera-lwBT-f64e170/lwbt/lwbt_memp.o
 .rodata.str1.1
                0x10061edc      0xbc1 ../../core/lwalkera-lwBT-f64e170/lwbt/rfcomm.o
 .rodata.str1.1
                0x10062a9d      0x519 ../../core/lwalkera-lwBT-f64e170/lwbt/sdp.o
 *fill*         0x10062fb6        0x2 00
 .rodata        0x10062fb8       0x1c ../../core/lwalkera-lwBT-f64e170/lwbt/sdp.o
 .rodata.str1.1
                0x10062fd4       0x60 ../../core/lwalkera-lwBT-f64e170/lwip/memp.o
 .rodata        0x10063034        0x8 ../../core/lwalkera-lwBT-f64e170/lwip/memp.o
 .rodata.str1.1
                0x1006303c      0x32d ../../core/lwalkera-lwBT-f64e170/lwip/pbuf.o
                                0x32f (size before relaxing)
 .rodata.str1.1
                0x10063369      0x831 ../../core/lwalkera-lwBT-f64e170/bt_spp.o
                                0x915 (size before relaxing)
 .rodata        0x10063b9a       0x4c ../../core/lwalkera-lwBT-f64e170/bt_spp.o
 .rodata.str1.1
                0x10063be6        0x6 ../../libraries/zlib-1.2.3/compress.o
 .rodata        0x10063bec     0x2000 ../../libraries/zlib-1.2.3/crc32.o
 .rodata.str1.1
                0x10065bec       0x1d ../../libraries/zlib-1.2.3/gzio.o
                                 0x27 (size before relaxing)
 .rodata.str1.1
                0x00000000        0x6 ../../libraries/zlib-1.2.3/uncompr.o
 *fill*         0x10065c09        0x3 00
 .rodata        0x10065c0c       0xb0 ../../libraries/zlib-1.2.3/deflate.o
                0x10065c0c                deflate_copyright
 .rodata        0x10065cbc      0xf28 ../../libraries/zlib-1.2.3/trees.o
                0x10065ebc                _length_code
                0x10065cbc                _dist_code
 .rodata.str1.1
                0x10066be4       0x67 ../../libraries/zlib-1.2.3/zutil.o
                                 0x7b (size before relaxing)
 *fill*         0x10066c4b        0x1 00
 .rodata        0x10066c4c       0x28 ../../libraries/zlib-1.2.3/zutil.o
                0x10066c4c                z_errmsg
 .rodata.str1.1
                0x10066c74      0x1a8 ../../libraries/zlib-1.2.3/inflate.o
 .rodata        0x10066e1c      0x91c ../../libraries/zlib-1.2.3/inflate.o
 .rodata.str1.1
                0x00000000      0x109 ../../libraries/zlib-1.2.3/infback.o
 .rodata        0x10067738      0x8ec ../../libraries/zlib-1.2.3/infback.o
 .rodata        0x10068024      0x12c ../../libraries/zlib-1.2.3/inftrees.o
                0x10068024                inflate_copyright
 .rodata.str1.1
                0x00000000       0x50 ../../libraries/zlib-1.2.3/inffast.o
 .rodata.str1.1
                0x10068150      0x45c ../../libraries/libpng-1.4.0/png.o
 .rodata        0x100685ac       0x38 ../../libraries/libpng-1.4.0/png.o
 .rodata.str1.1
                0x100685e4       0x24 ../../libraries/libpng-1.4.0/pngerror.o
 .rodata        0x10068608       0x10 ../../libraries/libpng-1.4.0/pngerror.o
 .rodata.str1.1
                0x10068618        0xe ../../libraries/libpng-1.4.0/pngmem.o
 .rodata.str1.1
                0x10068626      0x1dd ../../libraries/libpng-1.4.0/pngpread.o
 *fill*         0x10068803        0x1 00
 .rodata        0x10068804      0x138 ../../libraries/libpng-1.4.0/pngpread.o
 .rodata.str1.1
                0x1006893c      0x19e ../../libraries/libpng-1.4.0/pngread.o
                                0x237 (size before relaxing)
 *fill*         0x10068ada        0x2 00
 .rodata        0x10068adc      0x130 ../../libraries/libpng-1.4.0/pngread.o
 .rodata.str1.1
                0x10068c0c       0x98 ../../libraries/libpng-1.4.0/pngrio.o
 .rodata        0x10068ca4       0xa4 ../../libraries/libpng-1.4.0/pngrtran.o
 .rodata.str1.1
                0x10068d48       0xd5 ../../libraries/libpng-1.4.0/pngrtran.o
 .rodata.str1.1
                0x10068e1d      0xe60 ../../libraries/libpng-1.4.0/pngrutil.o
                                0xf14 (size before relaxing)
 *fill*         0x10069c7d        0x3 00
 .rodata        0x10069c80      0x124 ../../libraries/libpng-1.4.0/pngrutil.o
 .rodata.str1.1
                0x10069da4      0x267 ../../libraries/libpng-1.4.0/pngset.o
 .rodata        0x1006a00b      0x300 ../../libraries/libpng-1.4.0/pngtrans.o
 .rodata.str1.1
                0x1006a30b       0x94 ../../libraries/libpng-1.4.0/pngwio.o
 .rodata.str1.1
                0x1006a39f      0x224 ../../libraries/libpng-1.4.0/pngwrite.o
                                0x303 (size before relaxing)
 *fill*         0x1006a5c3        0x1 00
 .rodata        0x1006a5c4       0x3c ../../libraries/libpng-1.4.0/pngwrite.o
 .rodata.str1.1
                0x1006a600      0x6f6 ../../libraries/libpng-1.4.0/pngwutil.o
                                0x731 (size before relaxing)
 *fill*         0x1006acf6        0x2 00
 .rodata        0x1006acf8      0x140 ../../libraries/libpng-1.4.0/pngwutil.o
 .rodata.str1.1
                0x1006ae38       0xb6 ../../core/dynawa/png.o
                                 0xd1 (size before relaxing)
 .rodata.str1.1
                0x1006aeee       0x3b image.o
 *fill*         0x1006af29        0x3 00
 .rodata        0x1006af2c       0x40 /usr/local/arm-elf-tools/gcc-4.3.3/lib/gcc/arm-elf/4.3.3/../../../../arm-elf/lib/interwork/libm.a(lib_a-s_atan.o)
 .rodata.str1.4
                0x1006af6c        0x5 /usr/local/arm-elf-tools/gcc-4.3.3/lib/gcc/arm-elf/4.3.3/../../../../arm-elf/lib/interwork/libm.a(lib_a-w_acos.o)
                                  0xc (size before relaxing)
 *fill*         0x1006af71        0x3 00
 .rodata.str1.4
                0x1006af74        0x5 /usr/local/arm-elf-tools/gcc-4.3.3/lib/gcc/arm-elf/4.3.3/../../../../arm-elf/lib/interwork/libm.a(lib_a-w_asin.o)
                                  0xc (size before relaxing)
 *fill*         0x1006af79        0x3 00
 .rodata.str1.4
                0x1006af7c        0x5 /usr/local/arm-elf-tools/gcc-4.3.3/lib/gcc/arm-elf/4.3.3/../../../../arm-elf/lib/interwork/libm.a(lib_a-w_cosh.o)
                                  0x8 (size before relaxing)
 *fill*         0x1006af81        0x3 00
 .rodata.str1.4
                0x1006af84        0x4 /usr/local/arm-elf-tools/gcc-4.3.3/lib/gcc/arm-elf/4.3.3/../../../../arm-elf/lib/interwork/libm.a(lib_a-w_exp.o)
 .rodata.str1.4
                0x1006af88        0x5 /usr/local/arm-elf-tools/gcc-4.3.3/lib/gcc/arm-elf/4.3.3/../../../../arm-elf/lib/interwork/libm.a(lib_a-w_fmod.o)
                                  0x8 (size before relaxing)
 *fill*         0x1006af8d        0x3 00
 .rodata.str1.4
                0x1006af90        0x6 /usr/local/arm-elf-tools/gcc-4.3.3/lib/gcc/arm-elf/4.3.3/../../../../arm-elf/lib/interwork/libm.a(lib_a-w_log10.o)
                                  0xc (size before relaxing)
 *fill*         0x1006af96        0x2 00
 .rodata.str1.4
                0x1006af98        0x4 /usr/local/arm-elf-tools/gcc-4.3.3/lib/gcc/arm-elf/4.3.3/../../../../arm-elf/lib/interwork/libm.a(lib_a-w_log.o)
                                  0x8 (size before relaxing)
 .rodata.str1.4
                0x1006af9c        0x4 /usr/local/arm-elf-tools/gcc-4.3.3/lib/gcc/arm-elf/4.3.3/../../../../arm-elf/lib/interwork/libm.a(lib_a-w_pow.o)
 .rodata.str1.4
                0x1006afa0        0x5 /usr/local/arm-elf-tools/gcc-4.3.3/lib/gcc/arm-elf/4.3.3/../../../../arm-elf/lib/interwork/libm.a(lib_a-w_sinh.o)
                                  0x8 (size before relaxing)
 *fill*         0x1006afa5        0x3 00
 .rodata.str1.4
                0x1006afa8        0x5 /usr/local/arm-elf-tools/gcc-4.3.3/lib/gcc/arm-elf/4.3.3/../../../../arm-elf/lib/interwork/libm.a(lib_a-w_sqrt.o)
                                  0x8 (size before relaxing)
 *fill*         0x1006afad        0x3 00
 .rodata        0x1006afb0       0x30 /usr/local/arm-elf-tools/gcc-4.3.3/lib/gcc/arm-elf/4.3.3/../../../../arm-elf/lib/interwork/libm.a(lib_a-e_exp.o)
 .rodata        0x1006afe0       0x10 /usr/local/arm-elf-tools/gcc-4.3.3/lib/gcc/arm-elf/4.3.3/../../../../arm-elf/lib/interwork/libm.a(lib_a-e_fmod.o)
 .rodata.str1.4
                0x00000000        0x4 /usr/local/arm-elf-tools/gcc-4.3.3/lib/gcc/arm-elf/4.3.3/../../../../arm-elf/lib/interwork/libm.a(lib_a-e_pow.o)
 .rodata        0x1006aff0       0x30 /usr/local/arm-elf-tools/gcc-4.3.3/lib/gcc/arm-elf/4.3.3/../../../../arm-elf/lib/interwork/libm.a(lib_a-e_pow.o)
 .rodata        0x1006b020      0x188 /usr/local/arm-elf-tools/gcc-4.3.3/lib/gcc/arm-elf/4.3.3/../../../../arm-elf/lib/interwork/libm.a(lib_a-e_rem_pio2.o)
 .rodata        0x1006b1a8       0x50 /usr/local/arm-elf-tools/gcc-4.3.3/lib/gcc/arm-elf/4.3.3/../../../../arm-elf/lib/interwork/libm.a(lib_a-k_rem_pio2.o)
 .rodata        0x1006b1f8       0x10 /usr/local/arm-elf-tools/gcc-4.3.3/lib/gcc/arm-elf/4.3.3/../../../../arm-elf/lib/interwork/libm.a(lib_a-s_rint.o)
 .rodata        0x1006b208       0x10 /usr/local/arm-elf-tools/gcc-4.3.3/lib/gcc/arm-elf/4.3.3/interwork/libgcc.a(_thenan_sf.o)
                0x1006b208                __thenan_sf
 .rodata        0x1006b218       0x14 /usr/local/arm-elf-tools/gcc-4.3.3/lib/gcc/arm-elf/4.3.3/interwork/libgcc.a(_thenan_df.o)
                0x1006b218                __thenan_df
 .rodata        0x1006b22c      0x100 /usr/local/arm-elf-tools/gcc-4.3.3/lib/gcc/arm-elf/4.3.3/interwork/libgcc.a(_clz.o)
                0x1006b22c                __clz_tab
 .rodata        0x1006b32c      0x101 /usr/local/arm-elf-tools/gcc-4.3.3/lib/gcc/arm-elf/4.3.3/../../../../arm-elf/lib/interwork/libc.a(lib_a-ctype_.o)
                0x1006b32c                _ctype_
 *fill*         0x1006b42d        0x3 00
 .rodata        0x1006b430        0x4 /usr/local/arm-elf-tools/gcc-4.3.3/lib/gcc/arm-elf/4.3.3/../../../../arm-elf/lib/interwork/libc.a(lib_a-impure.o)
                0x1006b430                _global_impure_ptr
 .rodata.str1.4
                0x1006b434        0x2 /usr/local/arm-elf-tools/gcc-4.3.3/lib/gcc/arm-elf/4.3.3/../../../../arm-elf/lib/interwork/libc.a(lib_a-impure.o)
                                  0x4 (size before relaxing)
 *fill*         0x1006b436        0x2 00
 .rodata.str1.4
                0x1006b438        0xf /usr/local/arm-elf-tools/gcc-4.3.3/lib/gcc/arm-elf/4.3.3/../../../../arm-elf/lib/interwork/libc.a(lib_a-locale.o)
                                 0x18 (size before relaxing)
 *fill*         0x1006b447        0x1 00
 .rodata        0x1006b448       0x34 /usr/local/arm-elf-tools/gcc-4.3.3/lib/gcc/arm-elf/4.3.3/../../../../arm-elf/lib/interwork/libc.a(lib_a-locale.o)
 .rodata        0x1006b47c       0x60 /usr/local/arm-elf-tools/gcc-4.3.3/lib/gcc/arm-elf/4.3.3/../../../../arm-elf/lib/interwork/libc.a(lib_a-mktime.o)
 .rodata        0x1006b4dc       0x68 /usr/local/arm-elf-tools/gcc-4.3.3/lib/gcc/arm-elf/4.3.3/../../../../arm-elf/lib/interwork/libc.a(lib_a-mktm_r.o)
 .rodata.str1.4
                0x1006b544      0x7e1 /usr/local/arm-elf-tools/gcc-4.3.3/lib/gcc/arm-elf/4.3.3/../../../../arm-elf/lib/interwork/libc.a(lib_a-strerror.o)
                                0x7e8 (size before relaxing)
 *fill*         0x1006bd25        0x3 00
 .rodata.str1.4
                0x1006bd28      0x13d /usr/local/arm-elf-tools/gcc-4.3.3/lib/gcc/arm-elf/4.3.3/../../../../arm-elf/lib/interwork/libc.a(lib_a-strftime.o)
                                0x144 (size before relaxing)
 *fill*         0x1006be65        0x3 00
 .rodata        0x1006be68       0x98 /usr/local/arm-elf-tools/gcc-4.3.3/lib/gcc/arm-elf/4.3.3/../../../../arm-elf/lib/interwork/libc.a(lib_a-strftime.o)
 .rodata.str1.4
                0x1006bf00        0xf /usr/local/arm-elf-tools/gcc-4.3.3/lib/gcc/arm-elf/4.3.3/../../../../arm-elf/lib/interwork/libc.a(lib_a-strtod.o)
                                 0x10 (size before relaxing)
 *fill*         0x1006bf0f        0x1 00
 .rodata        0x1006bf10       0x28 /usr/local/arm-elf-tools/gcc-4.3.3/lib/gcc/arm-elf/4.3.3/../../../../arm-elf/lib/interwork/libc.a(lib_a-strtod.o)
 .rodata.str1.4
                0x1006bf38       0x5a /usr/local/arm-elf-tools/gcc-4.3.3/lib/gcc/arm-elf/4.3.3/../../../../arm-elf/lib/interwork/libc.a(lib_a-svfprintf.o)
                                 0x60 (size before relaxing)
 .rodata        0x1006bf92       0x20 /usr/local/arm-elf-tools/gcc-4.3.3/lib/gcc/arm-elf/4.3.3/../../../../arm-elf/lib/interwork/libc.a(lib_a-svfprintf.o)
 *fill*         0x1006bfb2        0x2 00
 .rodata.str1.4
                0x1006bfb4        0x4 /usr/local/arm-elf-tools/gcc-4.3.3/lib/gcc/arm-elf/4.3.3/../../../../arm-elf/lib/interwork/libc.a(lib_a-tmpfile.o)
 .rodata.str1.4
                0x1006bfb8       0x19 /usr/local/arm-elf-tools/gcc-4.3.3/lib/gcc/arm-elf/4.3.3/../../../../arm-elf/lib/interwork/libc.a(lib_a-tmpnam.o)
                                 0x24 (size before relaxing)
 *fill*         0x1006bfd1        0x3 00
 .rodata.str1.4
                0x1006bfd4        0x4 /usr/local/arm-elf-tools/gcc-4.3.3/lib/gcc/arm-elf/4.3.3/../../../../arm-elf/lib/interwork/libc.a(lib_a-tzvars.o)
 .rodata.str1.4
                0x00000000       0x60 /usr/local/arm-elf-tools/gcc-4.3.3/lib/gcc/arm-elf/4.3.3/../../../../arm-elf/lib/interwork/libc.a(lib_a-vfprintf.o)
 .rodata        0x1006bfd8       0x20 /usr/local/arm-elf-tools/gcc-4.3.3/lib/gcc/arm-elf/4.3.3/../../../../arm-elf/lib/interwork/libc.a(lib_a-vfprintf.o)
 .rodata.str1.4
                0x1006bff8        0x5 /usr/local/arm-elf-tools/gcc-4.3.3/lib/gcc/arm-elf/4.3.3/../../../../arm-elf/lib/interwork/libc.a(lib_a-vfscanf.o)
                                  0x8 (size before relaxing)
 *fill*         0x1006bffd        0x1 00
 .rodata        0x1006bffe       0x22 /usr/local/arm-elf-tools/gcc-4.3.3/lib/gcc/arm-elf/4.3.3/../../../../arm-elf/lib/interwork/libc.a(lib_a-vfscanf.o)
 .rodata.str1.4
                0x1006c020       0x10 /usr/local/arm-elf-tools/gcc-4.3.3/lib/gcc/arm-elf/4.3.3/../../../../arm-elf/lib/interwork/libc.a(lib_a-dtoa.o)
                                 0x14 (size before relaxing)
 .rodata.str1.4
                0x1006c030       0x1c /usr/local/arm-elf-tools/gcc-4.3.3/lib/gcc/arm-elf/4.3.3/../../../../arm-elf/lib/interwork/libc.a(lib_a-gdtoa-gethex.o)
 .rodata.str1.4
                0x00000000        0x4 /usr/local/arm-elf-tools/gcc-4.3.3/lib/gcc/arm-elf/4.3.3/../../../../arm-elf/lib/interwork/libc.a(lib_a-mbrtowc.o)
 .rodata        0x1006c04c      0x124 /usr/local/arm-elf-tools/gcc-4.3.3/lib/gcc/arm-elf/4.3.3/../../../../arm-elf/lib/interwork/libc.a(lib_a-mprec.o)
                0x1006c13c                __mprec_tinytens
                0x1006c04c                __mprec_tens
                0x1006c114                __mprec_bigtens
                0x1006c170                . = ALIGN (0x4)
                0x1006c170                __rodata_end__ = .

.fast           0x10080000        0x0
                0x10080000                __fast_start__ = .
                0x10080000                __fast_load_start__ = (. + (LOADADDR (.fast) - ADDR (.fast)))
 *(.fast .fast.*)
                0x10080000                . = ALIGN (0x4)
                0x10080000                __fast_end__ = .

.stack          0x10080000      0x5dc
                0x10080000                __stack_start__ = .
 *(.stack)
                0x100805dc                . = ((__stack_start__ + __STACKSIZE__) MAX .)
 *fill*         0x10080000      0x5dc 00
                0x100805dc                . = ALIGN (0x4)
                0x100805dc                __stack_end__ = .

.data           0x100805dc      0xd20 load address 0x1006c170
                0x100805dc                __data_start__ = .
                0x1006c170                __data_load_start__ = (. + (LOADADDR (.data) - ADDR (.data)))
 *(.data .data.* .gnu.linkonce.d.*)
 .data          0x100805dc        0x4 ../../core/freertos/portable/GCC/ARM7_AT91SAM7S/portISR.o
                0x100805dc                ulCriticalNesting
 .data          0x100805e0        0x0 ../../core/usb/device/core/USBD_UDP.o
 .data          0x100805e0        0x0 ../../core/usb/device/core/USBD_OTGHS.o
 .data          0x100805e0        0x0 ../../core/usb/device/core/USBD_UDPHS.o
 .data          0x100805e0        0x0 ../../core/dynawa/serial_isr.o
 .data          0x100805e0       0x14 ../../core/dynawa/button.o
                0x100805e0                button_pio
 .data          0x100805f4        0x0 ../../core/dynawa/timer_isr.o
 .data          0x100805f4        0x0 ../../core/dynawa/io_isr.o
 .data          0x100805f4        0x4 ../../core/startup/extras.o
 .data          0x100805f8        0x4 ../../core/freertos/tasks.o
 .data          0x100805fc        0x0 ../../core/freertos/queue.o
 .data          0x100805fc        0x0 ../../core/freertos/list.o
 .data          0x100805fc        0x0 ../../core/freertos/portable/GCC/ARM7_AT91SAM7S/port.o
 .data          0x100805fc        0x0 ../../core/freertos/portable/MemMang/heap_3.o
 .data          0x100805fc        0x0 ../../core/usb/common/cdc/CDCSetControlLineStateRequest.o
 .data          0x100805fc        0x0 ../../core/usb/common/cdc/CDCLineCoding.o
 .data          0x100805fc        0x0 ../../core/usb/device/cdc-serial/CDCDSerialDriver.o
 .data          0x100805fc       0x34 ../../core/usb/device/cdc-serial/CDCDSerialDriverDescriptors.o
                0x100805fc                stringDescriptors
                0x10080608                cdcdSerialDriverDescriptors
 .data          0x10080630        0x0 ../../core/usb/device/core/USBDCallbacks_Resumed.o
 .data          0x10080630        0x0 ../../core/usb/device/core/USBDCallbacks_Suspended.o
 .data          0x10080630        0x0 ../../core/usb/device/core/USBDDriverCb_CfgChanged.o
 .data          0x10080630        0x0 ../../core/usb/device/core/USBDDriverCb_IfSettingChanged.o
 .data          0x10080630        0x0 ../../core/usb/device/core/USBDCallbacks_Initialized.o
 .data          0x10080630        0x0 ../../core/usb/device/core/USBDCallbacks_Reset.o
 .data          0x10080630        0x0 ../../core/usb/device/core/USBDDriver.o
 .data          0x10080630        0x0 ../../core/usb/common/core/USBSetAddressRequest.o
 .data          0x10080630        0x0 ../../core/usb/common/core/USBGenericDescriptor.o
 .data          0x10080630        0x0 ../../core/usb/common/core/USBGenericRequest.o
 .data          0x10080630        0x0 ../../core/usb/common/core/USBGetDescriptorRequest.o
 .data          0x10080630        0x0 ../../core/usb/common/core/USBSetConfigurationRequest.o
 .data          0x10080630        0x0 ../../core/usb/common/core/USBFeatureRequest.o
 .data          0x10080630        0x0 ../../core/usb/common/core/USBEndpointDescriptor.o
 .data          0x10080630        0x0 ../../core/usb/common/core/USBConfigurationDescriptor.o
 .data          0x10080630        0x0 ../../core/usb/common/core/USBInterfaceRequest.o
 .data          0x10080630        0x0 ../../core/utils/rprintf.o
 .data          0x10080630        0x0 ../../core/utils/time.o
 .data          0x10080630        0x0 ../../core/utils/delay.o
 .data          0x10080630        0x0 ../../core/screen/screen.o
 .data          0x10080630        0x4 ../../core/screen/font.o
                0x10080630                fontColor
 .data          0x10080634        0x0 ../../core/lua-5.1.4/src/lapi.o
 .data          0x10080634        0x0 ../../core/lua-5.1.4/src/lauxlib.o
 .data          0x10080634        0x0 ../../core/lua-5.1.4/src/lbaselib.o
 .data          0x10080634        0x0 ../../core/lua-5.1.4/src/lcode.o
 .data          0x10080634        0x0 ../../core/lua-5.1.4/src/ldblib.o
 .data          0x10080634        0x0 ../../core/lua-5.1.4/src/ldebug.o
 .data          0x10080634        0x0 ../../core/lua-5.1.4/src/ldo.o
 .data          0x10080634        0x0 ../../core/lua-5.1.4/src/ldump.o
 .data          0x10080634        0x0 ../../core/lua-5.1.4/src/lfunc.o
 .data          0x10080634        0x0 ../../core/lua-5.1.4/src/lgc.o
 .data          0x10080634        0x0 ../../core/lua-5.1.4/src/linit.o
 .data          0x10080634        0x0 ../../core/lua-5.1.4/src/liolib.o
 .data          0x10080634        0x0 ../../core/lua-5.1.4/src/llex.o
 .data          0x10080634        0x0 ../../core/lua-5.1.4/src/lmathlib.o
 .data          0x10080634        0x0 ../../core/lua-5.1.4/src/lmem.o
 .data          0x10080634        0x0 ../../core/lua-5.1.4/src/loadlib.o
 .data          0x10080634        0x0 ../../core/lua-5.1.4/src/lobject.o
 .data          0x10080634        0x0 ../../core/lua-5.1.4/src/lopcodes.o
 .data          0x10080634        0x0 ../../core/lua-5.1.4/src/loslib.o
 .data          0x10080634        0x0 ../../core/lua-5.1.4/src/lparser.o
 .data          0x10080634        0x0 ../../core/lua-5.1.4/src/lstate.o
 .data          0x10080634        0x0 ../../core/lua-5.1.4/src/lstring.o
 .data          0x10080634        0x0 ../../core/lua-5.1.4/src/lstrlib.o
 .data          0x10080634        0x0 ../../core/lua-5.1.4/src/ltable.o
 .data          0x10080634        0x0 ../../core/lua-5.1.4/src/ltablib.o
 .data          0x10080634        0x0 ../../core/lua-5.1.4/src/ltm.o
 .data          0x10080634        0x0 ../../core/lua-5.1.4/src/lundump.o
 .data          0x10080634        0x0 ../../core/lua-5.1.4/src/lvm.o
 .data          0x10080634        0x0 ../../core/lua-5.1.4/src/lzio.o
 .data          0x10080634        0x0 ../../core/lua-5.1.4/src/print.o
 .data          0x10080634        0x0 ../../core/dynawa/rtos.o
 .data          0x10080634        0x0 ../../core/dynawa/usbserial.o
 .data          0x10080634        0x0 ../../core/dynawa/serial.o
 .data          0x10080634        0x0 ../../core/dynawa/main.o
 .data          0x10080634        0x0 ../../core/dynawa/io.o
 .data          0x10080634        0x0 ../../core/dynawa/led.o
 .data          0x10080634        0x0 ../../core/dynawa/lua/lua.o
 .data          0x10080634        0x0 ../../core/dynawa/lua/lua_isr.o
 .data          0x10080634       0x18 ../../core/dynawa/lua/lib_dynawa.o
                0x10080634                modules
 .data          0x1008064c        0x0 ../../core/dynawa/lua/lib_dynawa_timer.o
 .data          0x1008064c        0x0 ../../core/dynawa/lua/lib_dynawa_bitmap.o
 .data          0x1008064c        0x0 ../../core/dynawa/event.o
 .data          0x1008064c        0x0 ../../core/dynawa/timer.o
 .data          0x1008064c        0x0 ../../core/dynawa/bitmap.o
 .data          0x1008064c        0x0 ../../core/sdcard/sdcard.o
 .data          0x1008064c        0x0 ../../core/dynawa/fat.o
 .data          0x1008064c        0x0 ../../core/fatfs-0.07/src/option/ccsbcs.o
 .data          0x1008064c        0x0 ../../core/fatfs-0.07/src/diskio.o
 .data          0x1008064c        0x0 ../../core/fatfs-0.07/src/ff.o
 .data          0x1008064c        0x0 ../../core/monitor/args.o
 .data          0x1008064c        0x0 ../../core/monitor/argsdispatch.o
 .data          0x1008064c        0x0 ../../core/monitor/monitor.o
 .data          0x1008064c        0x0 ../../core/yabcsp/src/crc.o
 .data          0x1008064c        0x0 ../../core/yabcsp/src/init.o
 .data          0x1008064c        0x0 ../../core/yabcsp/src/le.o
 .data          0x1008064c        0x0 ../../core/yabcsp/src/rx.o
 .data          0x1008064c        0x0 ../../core/yabcsp/src/txmsg.o
 .data          0x1008064c        0x0 ../../core/yabcsp/src/txslip.o
 .data          0x1008064c        0x8 ../../core/dynawa/bcsp/main.o
                0x1008064c                pPIOB
                0x10080650                pPIOA
 .data          0x10080654      0x390 ../../core/dynawa/bcsp/abcsp_support_functions.o
 .data          0x100809e4        0x0 ../../core/dynawa/bcsp/uSched.o
 .data          0x100809e4        0x0 ../../core/dynawa/bcsp/SerialCom.o
 .data          0x100809e4        0x8 ../../core/peripherals/serial.o
                0x100809e4                pDBG_USART
                0x100809e8                pDBG_PIO
 .data          0x100809ec        0x0 ../../core/peripherals/oled/oled.o
 .data          0x100809ec        0x8 ../../core/peripherals/spi.o
                0x100809ec                pSPI
                0x100809f0                pSPI_PIO
 .data          0x100809f4        0x4 ../../core/peripherals/pmc/pmc.o
                0x100809f4                pPMC
 .data          0x100809f8        0x0 ../../core/peripherals/usart/usart.o
 .data          0x100809f8        0x0 ../../core/peripherals/aic/aic.o
 .data          0x100809f8        0x0 ../../core/peripherals/pio/pio.o
 .data          0x100809f8        0x0 ../../core/peripherals/rtc.o
 .data          0x100809f8        0x0 ../../core/peripherals/i2c.o
 .data          0x100809f8        0x0 ../../core/peripherals/accel.o
 .data          0x100809f8        0x0 ../../core/peripherals/gasgauge.o
 .data          0x100809f8        0x0 ../../core/peripherals/amblightsensor.o
 .data          0x100809f8        0x0 ../../core/peripherals/ledrgb.o
 .data          0x100809f8        0x0 ../../core/lua-5.1.4/src/lnum.o
 .data          0x100809f8        0x0 ../../core/lwalkera-lwBT-f64e170/lwbt/fcs.o
 .data          0x100809f8        0x0 ../../core/lwalkera-lwBT-f64e170/lwbt/hci.o
 .data          0x100809f8        0x0 ../../core/lwalkera-lwBT-f64e170/lwbt/l2cap.o
 .data          0x100809f8        0x0 ../../core/lwalkera-lwBT-f64e170/lwbt/lwbt_memp.o
 .data          0x100809f8        0x0 ../../core/lwalkera-lwBT-f64e170/lwbt/rfcomm.o
 .data          0x100809f8        0x0 ../../core/lwalkera-lwBT-f64e170/lwbt/sdp.o
 .data          0x100809f8        0x0 ../../core/lwalkera-lwBT-f64e170/lwip/inet.o
 .data          0x100809f8        0x0 ../../core/lwalkera-lwBT-f64e170/lwip/memp.o
 .data          0x100809f8        0x0 ../../core/lwalkera-lwBT-f64e170/lwip/pbuf.o
 .data          0x100809f8        0x0 ../../core/lwalkera-lwBT-f64e170/lwip/stats.o
 .data          0x100809f8        0x0 ../../core/lwalkera-lwBT-f64e170/bt_spp.o
 .data          0x100809f8        0x0 ../../libraries/zlib-1.2.3/adler32.o
 .data          0x100809f8        0x0 ../../libraries/zlib-1.2.3/compress.o
 .data          0x100809f8        0x0 ../../libraries/zlib-1.2.3/crc32.o
 .data          0x100809f8        0x0 ../../libraries/zlib-1.2.3/gzio.o
 .data          0x100809f8        0x0 ../../libraries/zlib-1.2.3/uncompr.o
 .data          0x100809f8        0x0 ../../libraries/zlib-1.2.3/deflate.o
 .data          0x100809f8       0x3c ../../libraries/zlib-1.2.3/trees.o
 .data          0x10080a34        0x0 ../../libraries/zlib-1.2.3/zutil.o
 .data          0x10080a34        0x0 ../../libraries/zlib-1.2.3/inflate.o
 .data          0x10080a34        0x0 ../../libraries/zlib-1.2.3/infback.o
 .data          0x10080a34        0x0 ../../libraries/zlib-1.2.3/inftrees.o
 .data          0x10080a34        0x0 ../../libraries/zlib-1.2.3/inffast.o
 .data          0x10080a34        0x0 ../../libraries/libpng-1.4.0/png.o
 .data          0x10080a34        0x0 ../../libraries/libpng-1.4.0/pngerror.o
 .data          0x10080a34        0x0 ../../libraries/libpng-1.4.0/pngget.o
 .data          0x10080a34        0x0 ../../libraries/libpng-1.4.0/pngmem.o
 .data          0x10080a34        0x0 ../../libraries/libpng-1.4.0/pngpread.o
 .data          0x10080a34        0x0 ../../libraries/libpng-1.4.0/pngread.o
 .data          0x10080a34        0x0 ../../libraries/libpng-1.4.0/pngrio.o
 .data          0x10080a34        0x0 ../../libraries/libpng-1.4.0/pngrtran.o
 .data          0x10080a34        0x0 ../../libraries/libpng-1.4.0/pngrutil.o
 .data          0x10080a34        0x0 ../../libraries/libpng-1.4.0/pngset.o
 .data          0x10080a34        0x0 ../../libraries/libpng-1.4.0/pngtrans.o
 .data          0x10080a34        0x0 ../../libraries/libpng-1.4.0/pngwio.o
 .data          0x10080a34        0x0 ../../libraries/libpng-1.4.0/pngwrite.o
 .data          0x10080a34        0x0 ../../libraries/libpng-1.4.0/pngwtran.o
 .data          0x10080a34        0x0 ../../libraries/libpng-1.4.0/pngwutil.o
 .data          0x10080a34        0x0 ../../core/dynawa/png.o
 .data          0x10080a34        0x0 image.o
 .data          0x10080a34        0x0 /tmp/ccIBIrH5.o
 .data          0x10080a34        0x0 /tmp/ccAJfFnu.o
 .data          0x10080a34        0x0 /usr/local/arm-elf-tools/gcc-4.3.3/lib/gcc/arm-elf/4.3.3/../../../../arm-elf/lib/interwork/libm.a(lib_a-s_atan.o)
 .data          0x10080a34        0x0 /usr/local/arm-elf-tools/gcc-4.3.3/lib/gcc/arm-elf/4.3.3/../../../../arm-elf/lib/interwork/libm.a(lib_a-s_ceil.o)
 .data          0x10080a34        0x0 /usr/local/arm-elf-tools/gcc-4.3.3/lib/gcc/arm-elf/4.3.3/../../../../arm-elf/lib/interwork/libm.a(lib_a-s_cos.o)
 .data          0x10080a34        0x0 /usr/local/arm-elf-tools/gcc-4.3.3/lib/gcc/arm-elf/4.3.3/../../../../arm-elf/lib/interwork/libm.a(lib_a-s_fabs.o)
 .data          0x10080a34        0x0 /usr/local/arm-elf-tools/gcc-4.3.3/lib/gcc/arm-elf/4.3.3/../../../../arm-elf/lib/interwork/libm.a(lib_a-s_floor.o)
 .data          0x10080a34        0x0 /usr/local/arm-elf-tools/gcc-4.3.3/lib/gcc/arm-elf/4.3.3/../../../../arm-elf/lib/interwork/libm.a(lib_a-s_frexp.o)
 .data          0x10080a34        0x0 /usr/local/arm-elf-tools/gcc-4.3.3/lib/gcc/arm-elf/4.3.3/../../../../arm-elf/lib/interwork/libm.a(lib_a-s_ldexp.o)
 .data          0x10080a34        0x0 /usr/local/arm-elf-tools/gcc-4.3.3/lib/gcc/arm-elf/4.3.3/../../../../arm-elf/lib/interwork/libm.a(lib_a-s_modf.o)
 .data          0x10080a34        0x0 /usr/local/arm-elf-tools/gcc-4.3.3/lib/gcc/arm-elf/4.3.3/../../../../arm-elf/lib/interwork/libm.a(lib_a-s_scalbn.o)
 .data          0x10080a34        0x0 /usr/local/arm-elf-tools/gcc-4.3.3/lib/gcc/arm-elf/4.3.3/../../../../arm-elf/lib/interwork/libm.a(lib_a-s_sin.o)
 .data          0x10080a34        0x0 /usr/local/arm-elf-tools/gcc-4.3.3/lib/gcc/arm-elf/4.3.3/../../../../arm-elf/lib/interwork/libm.a(lib_a-s_tanh.o)
 .data          0x10080a34        0x0 /usr/local/arm-elf-tools/gcc-4.3.3/lib/gcc/arm-elf/4.3.3/../../../../arm-elf/lib/interwork/libm.a(lib_a-s_tan.o)
 .data          0x10080a34        0x0 /usr/local/arm-elf-tools/gcc-4.3.3/lib/gcc/arm-elf/4.3.3/../../../../arm-elf/lib/interwork/libm.a(lib_a-w_acos.o)
 .data          0x10080a34        0x0 /usr/local/arm-elf-tools/gcc-4.3.3/lib/gcc/arm-elf/4.3.3/../../../../arm-elf/lib/interwork/libm.a(lib_a-w_asin.o)
 .data          0x10080a34        0x0 /usr/local/arm-elf-tools/gcc-4.3.3/lib/gcc/arm-elf/4.3.3/../../../../arm-elf/lib/interwork/libm.a(lib_a-w_atan2.o)
 .data          0x10080a34        0x0 /usr/local/arm-elf-tools/gcc-4.3.3/lib/gcc/arm-elf/4.3.3/../../../../arm-elf/lib/interwork/libm.a(lib_a-w_cosh.o)
 .data          0x10080a34        0x0 /usr/local/arm-elf-tools/gcc-4.3.3/lib/gcc/arm-elf/4.3.3/../../../../arm-elf/lib/interwork/libm.a(lib_a-w_exp.o)
 .data          0x10080a34        0x0 /usr/local/arm-elf-tools/gcc-4.3.3/lib/gcc/arm-elf/4.3.3/../../../../arm-elf/lib/interwork/libm.a(lib_a-w_fmod.o)
 .data          0x10080a34        0x0 /usr/local/arm-elf-tools/gcc-4.3.3/lib/gcc/arm-elf/4.3.3/../../../../arm-elf/lib/interwork/libm.a(lib_a-w_log10.o)
 .data          0x10080a34        0x0 /usr/local/arm-elf-tools/gcc-4.3.3/lib/gcc/arm-elf/4.3.3/../../../../arm-elf/lib/interwork/libm.a(lib_a-w_log.o)
 .data          0x10080a34        0x0 /usr/local/arm-elf-tools/gcc-4.3.3/lib/gcc/arm-elf/4.3.3/../../../../arm-elf/lib/interwork/libm.a(lib_a-w_pow.o)
 .data          0x10080a34        0x0 /usr/local/arm-elf-tools/gcc-4.3.3/lib/gcc/arm-elf/4.3.3/../../../../arm-elf/lib/interwork/libm.a(lib_a-w_sinh.o)
 .data          0x10080a34        0x0 /usr/local/arm-elf-tools/gcc-4.3.3/lib/gcc/arm-elf/4.3.3/../../../../arm-elf/lib/interwork/libm.a(lib_a-w_sqrt.o)
 .data          0x10080a34        0x0 /usr/local/arm-elf-tools/gcc-4.3.3/lib/gcc/arm-elf/4.3.3/../../../../arm-elf/lib/interwork/libm.a(lib_a-e_acos.o)
 .data          0x10080a34        0x0 /usr/local/arm-elf-tools/gcc-4.3.3/lib/gcc/arm-elf/4.3.3/../../../../arm-elf/lib/interwork/libm.a(lib_a-e_asin.o)
 .data          0x10080a34        0x0 /usr/local/arm-elf-tools/gcc-4.3.3/lib/gcc/arm-elf/4.3.3/../../../../arm-elf/lib/interwork/libm.a(lib_a-e_atan2.o)
 .data          0x10080a34        0x0 /usr/local/arm-elf-tools/gcc-4.3.3/lib/gcc/arm-elf/4.3.3/../../../../arm-elf/lib/interwork/libm.a(lib_a-e_cosh.o)
 .data          0x10080a34        0x0 /usr/local/arm-elf-tools/gcc-4.3.3/lib/gcc/arm-elf/4.3.3/../../../../arm-elf/lib/interwork/libm.a(lib_a-e_exp.o)
 .data          0x10080a34        0x0 /usr/local/arm-elf-tools/gcc-4.3.3/lib/gcc/arm-elf/4.3.3/../../../../arm-elf/lib/interwork/libm.a(lib_a-e_fmod.o)
 .data          0x10080a34        0x0 /usr/local/arm-elf-tools/gcc-4.3.3/lib/gcc/arm-elf/4.3.3/../../../../arm-elf/lib/interwork/libm.a(lib_a-e_log10.o)
 .data          0x10080a34        0x0 /usr/local/arm-elf-tools/gcc-4.3.3/lib/gcc/arm-elf/4.3.3/../../../../arm-elf/lib/interwork/libm.a(lib_a-e_log.o)
 .data          0x10080a34        0x0 /usr/local/arm-elf-tools/gcc-4.3.3/lib/gcc/arm-elf/4.3.3/../../../../arm-elf/lib/interwork/libm.a(lib_a-e_pow.o)
 .data          0x10080a34        0x0 /usr/local/arm-elf-tools/gcc-4.3.3/lib/gcc/arm-elf/4.3.3/../../../../arm-elf/lib/interwork/libm.a(lib_a-e_rem_pio2.o)
 .data          0x10080a34        0x0 /usr/local/arm-elf-tools/gcc-4.3.3/lib/gcc/arm-elf/4.3.3/../../../../arm-elf/lib/interwork/libm.a(lib_a-e_sinh.o)
 .data          0x10080a34        0x0 /usr/local/arm-elf-tools/gcc-4.3.3/lib/gcc/arm-elf/4.3.3/../../../../arm-elf/lib/interwork/libm.a(lib_a-e_sqrt.o)
 .data          0x10080a34        0x0 /usr/local/arm-elf-tools/gcc-4.3.3/lib/gcc/arm-elf/4.3.3/../../../../arm-elf/lib/interwork/libm.a(lib_a-k_cos.o)
 .data          0x10080a34        0x0 /usr/local/arm-elf-tools/gcc-4.3.3/lib/gcc/arm-elf/4.3.3/../../../../arm-elf/lib/interwork/libm.a(lib_a-k_rem_pio2.o)
 .data          0x10080a34        0x0 /usr/local/arm-elf-tools/gcc-4.3.3/lib/gcc/arm-elf/4.3.3/../../../../arm-elf/lib/interwork/libm.a(lib_a-k_sin.o)
 .data          0x10080a34        0x0 /usr/local/arm-elf-tools/gcc-4.3.3/lib/gcc/arm-elf/4.3.3/../../../../arm-elf/lib/interwork/libm.a(lib_a-k_tan.o)
 .data          0x10080a34        0x0 /usr/local/arm-elf-tools/gcc-4.3.3/lib/gcc/arm-elf/4.3.3/../../../../arm-elf/lib/interwork/libm.a(lib_a-s_copysign.o)
 .data          0x10080a34        0x0 /usr/local/arm-elf-tools/gcc-4.3.3/lib/gcc/arm-elf/4.3.3/../../../../arm-elf/lib/interwork/libm.a(lib_a-s_expm1.o)
 .data          0x10080a34        0x0 /usr/local/arm-elf-tools/gcc-4.3.3/lib/gcc/arm-elf/4.3.3/../../../../arm-elf/lib/interwork/libm.a(lib_a-s_finite.o)
 .data          0x10080a34        0x0 /usr/local/arm-elf-tools/gcc-4.3.3/lib/gcc/arm-elf/4.3.3/../../../../arm-elf/lib/interwork/libm.a(lib_a-s_isnand.o)
 .data          0x10080a34        0x4 /usr/local/arm-elf-tools/gcc-4.3.3/lib/gcc/arm-elf/4.3.3/../../../../arm-elf/lib/interwork/libm.a(lib_a-s_lib_ver.o)
                0x10080a34                __fdlib_version
 .data          0x10080a38        0x0 /usr/local/arm-elf-tools/gcc-4.3.3/lib/gcc/arm-elf/4.3.3/../../../../arm-elf/lib/interwork/libm.a(lib_a-s_matherr.o)
 .data          0x10080a38        0x0 /usr/local/arm-elf-tools/gcc-4.3.3/lib/gcc/arm-elf/4.3.3/../../../../arm-elf/lib/interwork/libm.a(lib_a-s_nan.o)
 .data          0x10080a38        0x0 /usr/local/arm-elf-tools/gcc-4.3.3/lib/gcc/arm-elf/4.3.3/../../../../arm-elf/lib/interwork/libm.a(lib_a-s_rint.o)
 .data          0x10080a38        0x0 /usr/local/arm-elf-tools/gcc-4.3.3/lib/gcc/arm-elf/4.3.3/interwork/libgcc.a(_udivsi3.o)
 .data          0x10080a38        0x0 /usr/local/arm-elf-tools/gcc-4.3.3/lib/gcc/arm-elf/4.3.3/interwork/libgcc.a(_divsi3.o)
 .data          0x10080a38        0x0 /usr/local/arm-elf-tools/gcc-4.3.3/lib/gcc/arm-elf/4.3.3/interwork/libgcc.a(_umodsi3.o)
 .data          0x10080a38        0x0 /usr/local/arm-elf-tools/gcc-4.3.3/lib/gcc/arm-elf/4.3.3/interwork/libgcc.a(_modsi3.o)
 .data          0x10080a38        0x0 /usr/local/arm-elf-tools/gcc-4.3.3/lib/gcc/arm-elf/4.3.3/interwork/libgcc.a(_dvmd_tls.o)
 .data          0x10080a38        0x0 /usr/local/arm-elf-tools/gcc-4.3.3/lib/gcc/arm-elf/4.3.3/interwork/libgcc.a(_fixunsdfsi.o)
 .data          0x10080a38        0x0 /usr/local/arm-elf-tools/gcc-4.3.3/lib/gcc/arm-elf/4.3.3/interwork/libgcc.a(_mul_sf.o)
 .data          0x10080a38        0x0 /usr/local/arm-elf-tools/gcc-4.3.3/lib/gcc/arm-elf/4.3.3/interwork/libgcc.a(_div_sf.o)
 .data          0x10080a38        0x0 /usr/local/arm-elf-tools/gcc-4.3.3/lib/gcc/arm-elf/4.3.3/interwork/libgcc.a(_eq_sf.o)
 .data          0x10080a38        0x0 /usr/local/arm-elf-tools/gcc-4.3.3/lib/gcc/arm-elf/4.3.3/interwork/libgcc.a(_si_to_sf.o)
 .data          0x10080a38        0x0 /usr/local/arm-elf-tools/gcc-4.3.3/lib/gcc/arm-elf/4.3.3/interwork/libgcc.a(_sf_to_df.o)
 .data          0x10080a38        0x0 /usr/local/arm-elf-tools/gcc-4.3.3/lib/gcc/arm-elf/4.3.3/interwork/libgcc.a(_thenan_sf.o)
 .data          0x10080a38        0x0 /usr/local/arm-elf-tools/gcc-4.3.3/lib/gcc/arm-elf/4.3.3/interwork/libgcc.a(_usi_to_sf.o)
 .data          0x10080a38        0x0 /usr/local/arm-elf-tools/gcc-4.3.3/lib/gcc/arm-elf/4.3.3/interwork/libgcc.a(_addsub_df.o)
 .data          0x10080a38        0x0 /usr/local/arm-elf-tools/gcc-4.3.3/lib/gcc/arm-elf/4.3.3/interwork/libgcc.a(_mul_df.o)
 .data          0x10080a38        0x0 /usr/local/arm-elf-tools/gcc-4.3.3/lib/gcc/arm-elf/4.3.3/interwork/libgcc.a(_div_df.o)
 .data          0x10080a38        0x0 /usr/local/arm-elf-tools/gcc-4.3.3/lib/gcc/arm-elf/4.3.3/interwork/libgcc.a(_eq_df.o)
 .data          0x10080a38        0x0 /usr/local/arm-elf-tools/gcc-4.3.3/lib/gcc/arm-elf/4.3.3/interwork/libgcc.a(_ne_df.o)
 .data          0x10080a38        0x0 /usr/local/arm-elf-tools/gcc-4.3.3/lib/gcc/arm-elf/4.3.3/interwork/libgcc.a(_gt_df.o)
 .data          0x10080a38        0x0 /usr/local/arm-elf-tools/gcc-4.3.3/lib/gcc/arm-elf/4.3.3/interwork/libgcc.a(_ge_df.o)
 .data          0x10080a38        0x0 /usr/local/arm-elf-tools/gcc-4.3.3/lib/gcc/arm-elf/4.3.3/interwork/libgcc.a(_lt_df.o)
 .data          0x10080a38        0x0 /usr/local/arm-elf-tools/gcc-4.3.3/lib/gcc/arm-elf/4.3.3/interwork/libgcc.a(_le_df.o)
 .data          0x10080a38        0x0 /usr/local/arm-elf-tools/gcc-4.3.3/lib/gcc/arm-elf/4.3.3/interwork/libgcc.a(_si_to_df.o)
 .data          0x10080a38        0x0 /usr/local/arm-elf-tools/gcc-4.3.3/lib/gcc/arm-elf/4.3.3/interwork/libgcc.a(_df_to_si.o)
 .data          0x10080a38        0x0 /usr/local/arm-elf-tools/gcc-4.3.3/lib/gcc/arm-elf/4.3.3/interwork/libgcc.a(_make_df.o)
 .data          0x10080a38        0x0 /usr/local/arm-elf-tools/gcc-4.3.3/lib/gcc/arm-elf/4.3.3/interwork/libgcc.a(_df_to_sf.o)
 .data          0x10080a38        0x0 /usr/local/arm-elf-tools/gcc-4.3.3/lib/gcc/arm-elf/4.3.3/interwork/libgcc.a(_thenan_df.o)
 .data          0x10080a38        0x0 /usr/local/arm-elf-tools/gcc-4.3.3/lib/gcc/arm-elf/4.3.3/interwork/libgcc.a(_usi_to_df.o)
 .data          0x10080a38        0x0 /usr/local/arm-elf-tools/gcc-4.3.3/lib/gcc/arm-elf/4.3.3/interwork/libgcc.a(_ucmpdi2.o)
 .data          0x10080a38        0x0 /usr/local/arm-elf-tools/gcc-4.3.3/lib/gcc/arm-elf/4.3.3/interwork/libgcc.a(_clzsi2.o)
 .data          0x10080a38        0x0 /usr/local/arm-elf-tools/gcc-4.3.3/lib/gcc/arm-elf/4.3.3/interwork/libgcc.a(_pack_sf.o)
 .data          0x10080a38        0x0 /usr/local/arm-elf-tools/gcc-4.3.3/lib/gcc/arm-elf/4.3.3/interwork/libgcc.a(_unpack_sf.o)
 .data          0x10080a38        0x0 /usr/local/arm-elf-tools/gcc-4.3.3/lib/gcc/arm-elf/4.3.3/interwork/libgcc.a(_fpcmp_parts_sf.o)
 .data          0x10080a38        0x0 /usr/local/arm-elf-tools/gcc-4.3.3/lib/gcc/arm-elf/4.3.3/interwork/libgcc.a(_make_sf.o)
 .data          0x10080a38        0x0 /usr/local/arm-elf-tools/gcc-4.3.3/lib/gcc/arm-elf/4.3.3/interwork/libgcc.a(_pack_df.o)
 .data          0x10080a38        0x0 /usr/local/arm-elf-tools/gcc-4.3.3/lib/gcc/arm-elf/4.3.3/interwork/libgcc.a(_unpack_df.o)
 .data          0x10080a38        0x0 /usr/local/arm-elf-tools/gcc-4.3.3/lib/gcc/arm-elf/4.3.3/interwork/libgcc.a(_fpcmp_parts_df.o)
 .data          0x10080a38        0x0 /usr/local/arm-elf-tools/gcc-4.3.3/lib/gcc/arm-elf/4.3.3/interwork/libgcc.a(_clz.o)
 .data          0x10080a38        0x0 /usr/local/arm-elf-tools/gcc-4.3.3/lib/gcc/arm-elf/4.3.3/../../../../arm-elf/lib/interwork/libc.a(lib_a-abort.o)
 .data          0x10080a38        0x0 /usr/local/arm-elf-tools/gcc-4.3.3/lib/gcc/arm-elf/4.3.3/../../../../arm-elf/lib/interwork/libc.a(lib_a-calloc.o)
 .data          0x10080a38        0x0 /usr/local/arm-elf-tools/gcc-4.3.3/lib/gcc/arm-elf/4.3.3/../../../../arm-elf/lib/interwork/libc.a(lib_a-callocr.o)
 .data          0x10080a38        0x0 /usr/local/arm-elf-tools/gcc-4.3.3/lib/gcc/arm-elf/4.3.3/../../../../arm-elf/lib/interwork/libc.a(lib_a-clock.o)
 .data          0x10080a38        0x8 /usr/local/arm-elf-tools/gcc-4.3.3/lib/gcc/arm-elf/4.3.3/../../../../arm-elf/lib/interwork/libc.a(lib_a-ctype_.o)
                0x10080a38                __ctype_ptr
                0x10080a3c                __ctype_ptr__
 .data          0x10080a40        0x0 /usr/local/arm-elf-tools/gcc-4.3.3/lib/gcc/arm-elf/4.3.3/../../../../arm-elf/lib/interwork/libc.a(lib_a-difftime.o)
 .data          0x10080a40        0x0 /usr/local/arm-elf-tools/gcc-4.3.3/lib/gcc/arm-elf/4.3.3/../../../../arm-elf/lib/interwork/libc.a(lib_a-errno.o)
 .data          0x10080a40        0x0 /usr/local/arm-elf-tools/gcc-4.3.3/lib/gcc/arm-elf/4.3.3/../../../../arm-elf/lib/interwork/libc.a(lib_a-exit.o)
 .data          0x10080a40        0x0 /usr/local/arm-elf-tools/gcc-4.3.3/lib/gcc/arm-elf/4.3.3/../../../../arm-elf/lib/interwork/libc.a(lib_a-fclose.o)
 .data          0x10080a40        0x0 /usr/local/arm-elf-tools/gcc-4.3.3/lib/gcc/arm-elf/4.3.3/../../../../arm-elf/lib/interwork/libc.a(lib_a-fdopen.o)
 .data          0x10080a40        0x0 /usr/local/arm-elf-tools/gcc-4.3.3/lib/gcc/arm-elf/4.3.3/../../../../arm-elf/lib/interwork/libc.a(lib_a-fflush.o)
 .data          0x10080a40        0x0 /usr/local/arm-elf-tools/gcc-4.3.3/lib/gcc/arm-elf/4.3.3/../../../../arm-elf/lib/interwork/libc.a(lib_a-fgets.o)
 .data          0x10080a40        0x0 /usr/local/arm-elf-tools/gcc-4.3.3/lib/gcc/arm-elf/4.3.3/../../../../arm-elf/lib/interwork/libc.a(lib_a-fileno.o)
 .data          0x10080a40        0x0 /usr/local/arm-elf-tools/gcc-4.3.3/lib/gcc/arm-elf/4.3.3/../../../../arm-elf/lib/interwork/libc.a(lib_a-findfp.o)
 .data          0x10080a40        0x0 /usr/local/arm-elf-tools/gcc-4.3.3/lib/gcc/arm-elf/4.3.3/../../../../arm-elf/lib/interwork/libc.a(lib_a-flags.o)
 .data          0x10080a40        0x0 /usr/local/arm-elf-tools/gcc-4.3.3/lib/gcc/arm-elf/4.3.3/../../../../arm-elf/lib/interwork/libc.a(lib_a-fopen.o)
 .data          0x10080a40        0x0 /usr/local/arm-elf-tools/gcc-4.3.3/lib/gcc/arm-elf/4.3.3/../../../../arm-elf/lib/interwork/libc.a(lib_a-fprintf.o)
 .data          0x10080a40        0x0 /usr/local/arm-elf-tools/gcc-4.3.3/lib/gcc/arm-elf/4.3.3/../../../../arm-elf/lib/interwork/libc.a(lib_a-fputc.o)
 .data          0x10080a40        0x0 /usr/local/arm-elf-tools/gcc-4.3.3/lib/gcc/arm-elf/4.3.3/../../../../arm-elf/lib/interwork/libc.a(lib_a-fputs.o)
 .data          0x10080a40        0x0 /usr/local/arm-elf-tools/gcc-4.3.3/lib/gcc/arm-elf/4.3.3/../../../../arm-elf/lib/interwork/libc.a(lib_a-fread.o)
 .data          0x10080a40        0x0 /usr/local/arm-elf-tools/gcc-4.3.3/lib/gcc/arm-elf/4.3.3/../../../../arm-elf/lib/interwork/libc.a(lib_a-freer.o)
 .data          0x10080a40        0x0 /usr/local/arm-elf-tools/gcc-4.3.3/lib/gcc/arm-elf/4.3.3/../../../../arm-elf/lib/interwork/libc.a(lib_a-freopen.o)
 .data          0x10080a40        0x0 /usr/local/arm-elf-tools/gcc-4.3.3/lib/gcc/arm-elf/4.3.3/../../../../arm-elf/lib/interwork/libc.a(lib_a-fscanf.o)
 .data          0x10080a40        0x0 /usr/local/arm-elf-tools/gcc-4.3.3/lib/gcc/arm-elf/4.3.3/../../../../arm-elf/lib/interwork/libc.a(lib_a-fseek.o)
 .data          0x10080a40        0x0 /usr/local/arm-elf-tools/gcc-4.3.3/lib/gcc/arm-elf/4.3.3/../../../../arm-elf/lib/interwork/libc.a(lib_a-ftell.o)
 .data          0x10080a40        0x0 /usr/local/arm-elf-tools/gcc-4.3.3/lib/gcc/arm-elf/4.3.3/../../../../arm-elf/lib/interwork/libc.a(lib_a-fvwrite.o)
 .data          0x10080a40        0x0 /usr/local/arm-elf-tools/gcc-4.3.3/lib/gcc/arm-elf/4.3.3/../../../../arm-elf/lib/interwork/libc.a(lib_a-fwalk.o)
 .data          0x10080a40        0x0 /usr/local/arm-elf-tools/gcc-4.3.3/lib/gcc/arm-elf/4.3.3/../../../../arm-elf/lib/interwork/libc.a(lib_a-fwrite.o)
 .data          0x10080a40        0x0 /usr/local/arm-elf-tools/gcc-4.3.3/lib/gcc/arm-elf/4.3.3/../../../../arm-elf/lib/interwork/libc.a(lib_a-getenv.o)
 .data          0x10080a40        0x0 /usr/local/arm-elf-tools/gcc-4.3.3/lib/gcc/arm-elf/4.3.3/../../../../arm-elf/lib/interwork/libc.a(lib_a-getenv_r.o)
 .data          0x10080a40        0x0 /usr/local/arm-elf-tools/gcc-4.3.3/lib/gcc/arm-elf/4.3.3/../../../../arm-elf/lib/interwork/libc.a(lib_a-gmtime.o)
 .data          0x10080a40        0x0 /usr/local/arm-elf-tools/gcc-4.3.3/lib/gcc/arm-elf/4.3.3/../../../../arm-elf/lib/interwork/libc.a(lib_a-gmtime_r.o)
 .data          0x10080a40      0x428 /usr/local/arm-elf-tools/gcc-4.3.3/lib/gcc/arm-elf/4.3.3/../../../../arm-elf/lib/interwork/libc.a(lib_a-impure.o)
                0x10080a40                _impure_ptr
 .data          0x10080e68        0x0 /usr/local/arm-elf-tools/gcc-4.3.3/lib/gcc/arm-elf/4.3.3/../../../../arm-elf/lib/interwork/libc.a(lib_a-lcltime.o)
 .data          0x10080e68        0x0 /usr/local/arm-elf-tools/gcc-4.3.3/lib/gcc/arm-elf/4.3.3/../../../../arm-elf/lib/interwork/libc.a(lib_a-lcltime_r.o)
 .data          0x10080e68       0x10 /usr/local/arm-elf-tools/gcc-4.3.3/lib/gcc/arm-elf/4.3.3/../../../../arm-elf/lib/interwork/libc.a(lib_a-locale.o)
                0x10080e68                __mb_cur_max
                0x10080e6c                __lc_ctype
 .data          0x10080e78        0x0 /usr/local/arm-elf-tools/gcc-4.3.3/lib/gcc/arm-elf/4.3.3/../../../../arm-elf/lib/interwork/libc.a(lib_a-makebuf.o)
 .data          0x10080e78        0x0 /usr/local/arm-elf-tools/gcc-4.3.3/lib/gcc/arm-elf/4.3.3/../../../../arm-elf/lib/interwork/libc.a(lib_a-malloc.o)
 .data          0x10080e78      0x410 /usr/local/arm-elf-tools/gcc-4.3.3/lib/gcc/arm-elf/4.3.3/../../../../arm-elf/lib/interwork/libc.a(lib_a-mallocr.o)
                0x10081284                __malloc_sbrk_base
                0x10080e78                __malloc_av_
                0x10081280                __malloc_trim_threshold
 .data          0x10081288        0x0 /usr/local/arm-elf-tools/gcc-4.3.3/lib/gcc/arm-elf/4.3.3/../../../../arm-elf/lib/interwork/libc.a(lib_a-memchr.o)
 .data          0x10081288        0x0 /usr/local/arm-elf-tools/gcc-4.3.3/lib/gcc/arm-elf/4.3.3/../../../../arm-elf/lib/interwork/libc.a(lib_a-memcmp.o)
 .data          0x10081288        0x0 /usr/local/arm-elf-tools/gcc-4.3.3/lib/gcc/arm-elf/4.3.3/../../../../arm-elf/lib/interwork/libc.a(lib_a-memcpy.o)
 .data          0x10081288        0x0 /usr/local/arm-elf-tools/gcc-4.3.3/lib/gcc/arm-elf/4.3.3/../../../../arm-elf/lib/interwork/libc.a(lib_a-memmove.o)
 .data          0x10081288        0x0 /usr/local/arm-elf-tools/gcc-4.3.3/lib/gcc/arm-elf/4.3.3/../../../../arm-elf/lib/interwork/libc.a(lib_a-memset.o)
 .data          0x10081288        0x0 /usr/local/arm-elf-tools/gcc-4.3.3/lib/gcc/arm-elf/4.3.3/../../../../arm-elf/lib/interwork/libc.a(lib_a-mktime.o)
 .data          0x10081288        0x0 /usr/local/arm-elf-tools/gcc-4.3.3/lib/gcc/arm-elf/4.3.3/../../../../arm-elf/lib/interwork/libc.a(lib_a-mktm_r.o)
 .data          0x10081288        0x0 /usr/local/arm-elf-tools/gcc-4.3.3/lib/gcc/arm-elf/4.3.3/../../../../arm-elf/lib/interwork/libc.a(lib_a-mlock.o)
 .data          0x10081288        0x0 /usr/local/arm-elf-tools/gcc-4.3.3/lib/gcc/arm-elf/4.3.3/../../../../arm-elf/lib/interwork/libc.a(lib_a-printf.o)
 .data          0x10081288        0x0 /usr/local/arm-elf-tools/gcc-4.3.3/lib/gcc/arm-elf/4.3.3/../../../../arm-elf/lib/interwork/libc.a(lib_a-putc.o)
 .data          0x10081288        0x0 /usr/local/arm-elf-tools/gcc-4.3.3/lib/gcc/arm-elf/4.3.3/../../../../arm-elf/lib/interwork/libc.a(lib_a-rand.o)
 .data          0x10081288        0x0 /usr/local/arm-elf-tools/gcc-4.3.3/lib/gcc/arm-elf/4.3.3/../../../../arm-elf/lib/interwork/libc.a(lib_a-realloc.o)
 .data          0x10081288        0x0 /usr/local/arm-elf-tools/gcc-4.3.3/lib/gcc/arm-elf/4.3.3/../../../../arm-elf/lib/interwork/libc.a(lib_a-reallocr.o)
 .data          0x10081288        0x0 /usr/local/arm-elf-tools/gcc-4.3.3/lib/gcc/arm-elf/4.3.3/../../../../arm-elf/lib/interwork/libc.a(lib_a-refill.o)
 .data          0x10081288        0x0 /usr/local/arm-elf-tools/gcc-4.3.3/lib/gcc/arm-elf/4.3.3/../../../../arm-elf/lib/interwork/libc.a(lib_a-remove.o)
 .data          0x10081288        0x0 /usr/local/arm-elf-tools/gcc-4.3.3/lib/gcc/arm-elf/4.3.3/../../../../arm-elf/lib/interwork/libc.a(lib_a-rget.o)
 .data          0x10081288        0x0 /usr/local/arm-elf-tools/gcc-4.3.3/lib/gcc/arm-elf/4.3.3/../../../../arm-elf/lib/interwork/libc.a(lib_a-setjmp.o)
 .data          0x10081288        0x0 /usr/local/arm-elf-tools/gcc-4.3.3/lib/gcc/arm-elf/4.3.3/../../../../arm-elf/lib/interwork/libc.a(lib_a-setvbuf.o)
 .data          0x10081288        0x0 /usr/local/arm-elf-tools/gcc-4.3.3/lib/gcc/arm-elf/4.3.3/../../../../arm-elf/lib/interwork/libc.a(lib_a-signal.o)
 .data          0x10081288        0x0 /usr/local/arm-elf-tools/gcc-4.3.3/lib/gcc/arm-elf/4.3.3/../../../../arm-elf/lib/interwork/libc.a(lib_a-snprintf.o)
 .data          0x10081288        0x0 /usr/local/arm-elf-tools/gcc-4.3.3/lib/gcc/arm-elf/4.3.3/../../../../arm-elf/lib/interwork/libc.a(lib_a-sprintf.o)
 .data          0x10081288        0x0 /usr/local/arm-elf-tools/gcc-4.3.3/lib/gcc/arm-elf/4.3.3/../../../../arm-elf/lib/interwork/libc.a(lib_a-stdio.o)
 .data          0x10081288        0x0 /usr/local/arm-elf-tools/gcc-4.3.3/lib/gcc/arm-elf/4.3.3/../../../../arm-elf/lib/interwork/libc.a(lib_a-strcat.o)
 .data          0x10081288        0x0 /usr/local/arm-elf-tools/gcc-4.3.3/lib/gcc/arm-elf/4.3.3/../../../../arm-elf/lib/interwork/libc.a(lib_a-strchr.o)
 .data          0x10081288        0x0 /usr/local/arm-elf-tools/gcc-4.3.3/lib/gcc/arm-elf/4.3.3/../../../../arm-elf/lib/interwork/libc.a(lib_a-strcmp.o)
 .data          0x10081288        0x0 /usr/local/arm-elf-tools/gcc-4.3.3/lib/gcc/arm-elf/4.3.3/../../../../arm-elf/lib/interwork/libc.a(lib_a-strcoll.o)
 .data          0x10081288        0x0 /usr/local/arm-elf-tools/gcc-4.3.3/lib/gcc/arm-elf/4.3.3/../../../../arm-elf/lib/interwork/libc.a(lib_a-strcpy.o)
 .data          0x10081288        0x0 /usr/local/arm-elf-tools/gcc-4.3.3/lib/gcc/arm-elf/4.3.3/../../../../arm-elf/lib/interwork/libc.a(lib_a-strcspn.o)
 .data          0x10081288        0x0 /usr/local/arm-elf-tools/gcc-4.3.3/lib/gcc/arm-elf/4.3.3/../../../../arm-elf/lib/interwork/libc.a(lib_a-strerror.o)
 .data          0x10081288        0x0 /usr/local/arm-elf-tools/gcc-4.3.3/lib/gcc/arm-elf/4.3.3/../../../../arm-elf/lib/interwork/libc.a(lib_a-strftime.o)
 .data          0x10081288        0x0 /usr/local/arm-elf-tools/gcc-4.3.3/lib/gcc/arm-elf/4.3.3/../../../../arm-elf/lib/interwork/libc.a(lib_a-strlen.o)
 .data          0x10081288        0x0 /usr/local/arm-elf-tools/gcc-4.3.3/lib/gcc/arm-elf/4.3.3/../../../../arm-elf/lib/interwork/libc.a(lib_a-strncat.o)
 .data          0x10081288        0x0 /usr/local/arm-elf-tools/gcc-4.3.3/lib/gcc/arm-elf/4.3.3/../../../../arm-elf/lib/interwork/libc.a(lib_a-strncmp.o)
 .data          0x10081288        0x0 /usr/local/arm-elf-tools/gcc-4.3.3/lib/gcc/arm-elf/4.3.3/../../../../arm-elf/lib/interwork/libc.a(lib_a-strncpy.o)
 .data          0x10081288        0x0 /usr/local/arm-elf-tools/gcc-4.3.3/lib/gcc/arm-elf/4.3.3/../../../../arm-elf/lib/interwork/libc.a(lib_a-strnlen.o)
 .data          0x10081288        0x0 /usr/local/arm-elf-tools/gcc-4.3.3/lib/gcc/arm-elf/4.3.3/../../../../arm-elf/lib/interwork/libc.a(lib_a-strpbrk.o)
 .data          0x10081288        0x0 /usr/local/arm-elf-tools/gcc-4.3.3/lib/gcc/arm-elf/4.3.3/../../../../arm-elf/lib/interwork/libc.a(lib_a-strrchr.o)
 .data          0x10081288        0x0 /usr/local/arm-elf-tools/gcc-4.3.3/lib/gcc/arm-elf/4.3.3/../../../../arm-elf/lib/interwork/libc.a(lib_a-strstr.o)
 .data          0x10081288       0x28 /usr/local/arm-elf-tools/gcc-4.3.3/lib/gcc/arm-elf/4.3.3/../../../../arm-elf/lib/interwork/libc.a(lib_a-strtod.o)
 .data          0x100812b0        0x0 /usr/local/arm-elf-tools/gcc-4.3.3/lib/gcc/arm-elf/4.3.3/../../../../arm-elf/lib/interwork/libc.a(lib_a-strtoul.o)
 .data          0x100812b0        0x0 /usr/local/arm-elf-tools/gcc-4.3.3/lib/gcc/arm-elf/4.3.3/../../../../arm-elf/lib/interwork/libc.a(lib_a-svfprintf.o)
 .data          0x100812b0        0x0 /usr/local/arm-elf-tools/gcc-4.3.3/lib/gcc/arm-elf/4.3.3/../../../../arm-elf/lib/interwork/libc.a(lib_a-sysclose.o)
 .data          0x100812b0        0x0 /usr/local/arm-elf-tools/gcc-4.3.3/lib/gcc/arm-elf/4.3.3/../../../../arm-elf/lib/interwork/libc.a(lib_a-sysgettod.o)
 .data          0x100812b0        0x0 /usr/local/arm-elf-tools/gcc-4.3.3/lib/gcc/arm-elf/4.3.3/../../../../arm-elf/lib/interwork/libc.a(lib_a-sysopen.o)
 .data          0x100812b0        0x0 /usr/local/arm-elf-tools/gcc-4.3.3/lib/gcc/arm-elf/4.3.3/../../../../arm-elf/lib/interwork/libc.a(lib_a-sysread.o)
 .data          0x100812b0        0x0 /usr/local/arm-elf-tools/gcc-4.3.3/lib/gcc/arm-elf/4.3.3/../../../../arm-elf/lib/interwork/libc.a(lib_a-system.o)
 .data          0x100812b0        0x0 /usr/local/arm-elf-tools/gcc-4.3.3/lib/gcc/arm-elf/4.3.3/../../../../arm-elf/lib/interwork/libc.a(lib_a-sysunlink.o)
 .data          0x100812b0        0x0 /usr/local/arm-elf-tools/gcc-4.3.3/lib/gcc/arm-elf/4.3.3/../../../../arm-elf/lib/interwork/libc.a(lib_a-syswrite.o)
 .data          0x100812b0        0x0 /usr/local/arm-elf-tools/gcc-4.3.3/lib/gcc/arm-elf/4.3.3/../../../../arm-elf/lib/interwork/libc.a(lib_a-time.o)
 .data          0x100812b0        0x0 /usr/local/arm-elf-tools/gcc-4.3.3/lib/gcc/arm-elf/4.3.3/../../../../arm-elf/lib/interwork/libc.a(lib_a-timesr.o)
 .data          0x100812b0        0x0 /usr/local/arm-elf-tools/gcc-4.3.3/lib/gcc/arm-elf/4.3.3/../../../../arm-elf/lib/interwork/libc.a(lib_a-tmpfile.o)
 .data          0x100812b0        0x0 /usr/local/arm-elf-tools/gcc-4.3.3/lib/gcc/arm-elf/4.3.3/../../../../arm-elf/lib/interwork/libc.a(lib_a-tmpnam.o)
 .data          0x100812b0        0x0 /usr/local/arm-elf-tools/gcc-4.3.3/lib/gcc/arm-elf/4.3.3/../../../../arm-elf/lib/interwork/libc.a(lib_a-tzlock.o)
 .data          0x100812b0        0x8 /usr/local/arm-elf-tools/gcc-4.3.3/lib/gcc/arm-elf/4.3.3/../../../../arm-elf/lib/interwork/libc.a(lib_a-tzvars.o)
                0x100812b0                _tzname
 .data          0x100812b8        0x0 /usr/local/arm-elf-tools/gcc-4.3.3/lib/gcc/arm-elf/4.3.3/../../../../arm-elf/lib/interwork/libc.a(lib_a-ungetc.o)
 .data          0x100812b8        0x0 /usr/local/arm-elf-tools/gcc-4.3.3/lib/gcc/arm-elf/4.3.3/../../../../arm-elf/lib/interwork/libc.a(lib_a-u_strerr.o)
 .data          0x100812b8        0x0 /usr/local/arm-elf-tools/gcc-4.3.3/lib/gcc/arm-elf/4.3.3/../../../../arm-elf/lib/interwork/libc.a(lib_a-vfprintf.o)
 .data          0x100812b8        0x0 /usr/local/arm-elf-tools/gcc-4.3.3/lib/gcc/arm-elf/4.3.3/../../../../arm-elf/lib/interwork/libc.a(lib_a-vfscanf.o)
 .data          0x100812b8        0x0 /usr/local/arm-elf-tools/gcc-4.3.3/lib/gcc/arm-elf/4.3.3/../../../../arm-elf/lib/interwork/libc.a(lib_a-vsnprintf.o)
 .data          0x100812b8        0x0 /usr/local/arm-elf-tools/gcc-4.3.3/lib/gcc/arm-elf/4.3.3/../../../../arm-elf/lib/interwork/libc.a(lib_a-wbuf.o)
 .data          0x100812b8        0x0 /usr/local/arm-elf-tools/gcc-4.3.3/lib/gcc/arm-elf/4.3.3/../../../../arm-elf/lib/interwork/libc.a(lib_a-wsetup.o)
 .data          0x100812b8        0x0 /usr/local/arm-elf-tools/gcc-4.3.3/lib/gcc/arm-elf/4.3.3/../../../../arm-elf/lib/interwork/libc.a(lib_a-abs.o)
 .data          0x100812b8        0x0 /usr/local/arm-elf-tools/gcc-4.3.3/lib/gcc/arm-elf/4.3.3/../../../../arm-elf/lib/interwork/libc.a(lib_a-__call_atexit.o)
 .data          0x100812b8        0x0 /usr/local/arm-elf-tools/gcc-4.3.3/lib/gcc/arm-elf/4.3.3/../../../../arm-elf/lib/interwork/libc.a(lib_a-div.o)
 .data          0x100812b8        0x0 /usr/local/arm-elf-tools/gcc-4.3.3/lib/gcc/arm-elf/4.3.3/../../../../arm-elf/lib/interwork/libc.a(lib_a-dtoa.o)
 .data          0x100812b8        0x4 /usr/local/arm-elf-tools/gcc-4.3.3/lib/gcc/arm-elf/4.3.3/../../../../arm-elf/lib/interwork/libc.a(lib_a-environ.o)
                0x100812b8                environ
 .data          0x100812bc        0x0 /usr/local/arm-elf-tools/gcc-4.3.3/lib/gcc/arm-elf/4.3.3/../../../../arm-elf/lib/interwork/libc.a(lib_a-envlock.o)
 .data          0x100812bc        0x0 /usr/local/arm-elf-tools/gcc-4.3.3/lib/gcc/arm-elf/4.3.3/../../../../arm-elf/lib/interwork/libc.a(lib_a-gdtoa-gethex.o)
 .data          0x100812bc        0x0 /usr/local/arm-elf-tools/gcc-4.3.3/lib/gcc/arm-elf/4.3.3/../../../../arm-elf/lib/interwork/libc.a(lib_a-gdtoa-hexnan.o)
 .data          0x100812bc        0x0 /usr/local/arm-elf-tools/gcc-4.3.3/lib/gcc/arm-elf/4.3.3/../../../../arm-elf/lib/interwork/libc.a(lib_a-gettimeofdayr.o)
 .data          0x100812bc       0x40 /usr/local/arm-elf-tools/gcc-4.3.3/lib/gcc/arm-elf/4.3.3/../../../../arm-elf/lib/interwork/libc.a(lib_a-gettzinfo.o)
 .data          0x100812fc        0x0 /usr/local/arm-elf-tools/gcc-4.3.3/lib/gcc/arm-elf/4.3.3/../../../../arm-elf/lib/interwork/libc.a(lib_a-isattyr.o)
 .data          0x100812fc        0x0 /usr/local/arm-elf-tools/gcc-4.3.3/lib/gcc/arm-elf/4.3.3/../../../../arm-elf/lib/interwork/libc.a(lib_a-iswspace.o)
 .data          0x100812fc        0x0 /usr/local/arm-elf-tools/gcc-4.3.3/lib/gcc/arm-elf/4.3.3/../../../../arm-elf/lib/interwork/libc.a(lib_a-labs.o)
 .data          0x100812fc        0x0 /usr/local/arm-elf-tools/gcc-4.3.3/lib/gcc/arm-elf/4.3.3/../../../../arm-elf/lib/interwork/libc.a(lib_a-mbrtowc.o)
 .data          0x100812fc        0x0 /usr/local/arm-elf-tools/gcc-4.3.3/lib/gcc/arm-elf/4.3.3/../../../../arm-elf/lib/interwork/libc.a(lib_a-mbtowc_r.o)
 .data          0x100812fc        0x0 /usr/local/arm-elf-tools/gcc-4.3.3/lib/gcc/arm-elf/4.3.3/../../../../arm-elf/lib/interwork/libc.a(lib_a-mprec.o)
 .data          0x100812fc        0x0 /usr/local/arm-elf-tools/gcc-4.3.3/lib/gcc/arm-elf/4.3.3/../../../../arm-elf/lib/interwork/libc.a(lib_a-reent.o)
 .data          0x100812fc        0x0 /usr/local/arm-elf-tools/gcc-4.3.3/lib/gcc/arm-elf/4.3.3/../../../../arm-elf/lib/interwork/libc.a(lib_a-sccl.o)
 .data          0x100812fc        0x0 /usr/local/arm-elf-tools/gcc-4.3.3/lib/gcc/arm-elf/4.3.3/../../../../arm-elf/lib/interwork/libc.a(lib_a-sf_nan.o)
 .data          0x100812fc        0x0 /usr/local/arm-elf-tools/gcc-4.3.3/lib/gcc/arm-elf/4.3.3/../../../../arm-elf/lib/interwork/libc.a(lib_a-s_isinfd.o)
 .data          0x100812fc        0x0 /usr/local/arm-elf-tools/gcc-4.3.3/lib/gcc/arm-elf/4.3.3/../../../../arm-elf/lib/interwork/libc.a(lib_a-strtol.o)
                0x100812fc                . = ALIGN (0x4)
                0x100812fc                __data_end__ = .

.bss            0x100812fc     0x7478
                0x100812fc                __bss_start__ = .
 *(.bss .bss.* .gnu.linkonce.b.*)
 .bss           0x100812fc        0x0 ../../core/freertos/portable/GCC/ARM7_AT91SAM7S/portISR.o
 .bss           0x100812fc       0xe4 ../../core/usb/device/core/USBD_UDP.o
 .bss           0x100813e0        0x0 ../../core/usb/device/core/USBD_OTGHS.o
 .bss           0x100813e0        0x0 ../../core/usb/device/core/USBD_UDPHS.o
 .bss           0x100813e0        0x0 ../../core/dynawa/serial_isr.o
 .bss           0x100813e0       0xf0 ../../core/dynawa/button.o
 .bss           0x100814d0        0x0 ../../core/dynawa/timer_isr.o
 .bss           0x100814d0        0x0 ../../core/dynawa/io_isr.o
 .bss           0x100814d0       0xac ../../core/startup/extras.o
 .bss           0x1008157c      0x158 ../../core/freertos/tasks.o
                0x1008157c                pxCurrentTCB
 .bss           0x100816d4        0x0 ../../core/freertos/queue.o
 .bss           0x100816d4        0x0 ../../core/freertos/list.o
 .bss           0x100816d4        0x0 ../../core/freertos/portable/GCC/ARM7_AT91SAM7S/port.o
 .bss           0x100816d4        0x0 ../../core/freertos/portable/MemMang/heap_3.o
 .bss           0x100816d4        0x0 ../../core/usb/common/cdc/CDCSetControlLineStateRequest.o
 .bss           0x100816d4        0x0 ../../core/usb/common/cdc/CDCLineCoding.o
 .bss           0x100816d4       0x18 ../../core/usb/device/cdc-serial/CDCDSerialDriver.o
 .bss           0x100816ec        0x0 ../../core/usb/device/cdc-serial/CDCDSerialDriverDescriptors.o
 .bss           0x100816ec        0x0 ../../core/usb/device/core/USBDCallbacks_Resumed.o
 .bss           0x100816ec        0x0 ../../core/usb/device/core/USBDCallbacks_Suspended.o
 .bss           0x100816ec        0x0 ../../core/usb/device/core/USBDDriverCb_CfgChanged.o
 .bss           0x100816ec        0x0 ../../core/usb/device/core/USBDDriverCb_IfSettingChanged.o
 .bss           0x100816ec        0x0 ../../core/usb/device/core/USBDCallbacks_Initialized.o
 .bss           0x100816ec        0x0 ../../core/usb/device/core/USBDCallbacks_Reset.o
 .bss           0x100816ec        0x0 ../../core/usb/device/core/USBDDriver.o
 .bss           0x100816ec        0x0 ../../core/usb/common/core/USBSetAddressRequest.o
 .bss           0x100816ec        0x0 ../../core/usb/common/core/USBGenericDescriptor.o
 .bss           0x100816ec        0x0 ../../core/usb/common/core/USBGenericRequest.o
 .bss           0x100816ec        0x0 ../../core/usb/common/core/USBGetDescriptorRequest.o
 .bss           0x100816ec        0x0 ../../core/usb/common/core/USBSetConfigurationRequest.o
 .bss           0x100816ec        0x0 ../../core/usb/common/core/USBFeatureRequest.o
 .bss           0x100816ec        0x0 ../../core/usb/common/core/USBEndpointDescriptor.o
 .bss           0x100816ec        0x0 ../../core/usb/common/core/USBConfigurationDescriptor.o
 .bss           0x100816ec        0x0 ../../core/usb/common/core/USBInterfaceRequest.o
 .bss           0x100816ec        0x0 ../../core/utils/rprintf.o
 .bss           0x100816ec        0x0 ../../core/utils/time.o
 .bss           0x100816ec        0x0 ../../core/utils/delay.o
 .bss           0x100816ec        0x0 ../../core/screen/screen.o
 .bss           0x100816ec        0xc ../../core/screen/font.o
                0x100816f4                fontCurrPosY
                0x100816f0                fontCurrPosX
                0x100816ec                fontBgColor
                0x100816f2                fontCarridgeReturnPosX
 .bss           0x100816f8        0x0 ../../core/lua-5.1.4/src/lapi.o
 .bss           0x100816f8        0x0 ../../core/lua-5.1.4/src/lauxlib.o
 .bss           0x100816f8        0x0 ../../core/lua-5.1.4/src/lbaselib.o
 .bss           0x100816f8        0x0 ../../core/lua-5.1.4/src/lcode.o
 .bss           0x100816f8        0x0 ../../core/lua-5.1.4/src/ldblib.o
 .bss           0x100816f8        0x0 ../../core/lua-5.1.4/src/ldebug.o
 .bss           0x100816f8        0x0 ../../core/lua-5.1.4/src/ldo.o
 .bss           0x100816f8        0x0 ../../core/lua-5.1.4/src/ldump.o
 .bss           0x100816f8        0x0 ../../core/lua-5.1.4/src/lfunc.o
 .bss           0x100816f8        0x0 ../../core/lua-5.1.4/src/lgc.o
 .bss           0x100816f8        0x0 ../../core/lua-5.1.4/src/linit.o
 .bss           0x100816f8        0x0 ../../core/lua-5.1.4/src/liolib.o
 .bss           0x100816f8        0x0 ../../core/lua-5.1.4/src/llex.o
 .bss           0x100816f8        0x0 ../../core/lua-5.1.4/src/lmathlib.o
 .bss           0x100816f8        0x0 ../../core/lua-5.1.4/src/lmem.o
 .bss           0x100816f8        0x0 ../../core/lua-5.1.4/src/loadlib.o
 .bss           0x100816f8        0x0 ../../core/lua-5.1.4/src/lobject.o
 .bss           0x100816f8        0x0 ../../core/lua-5.1.4/src/lopcodes.o
 .bss           0x100816f8        0x0 ../../core/lua-5.1.4/src/loslib.o
 .bss           0x100816f8        0x0 ../../core/lua-5.1.4/src/lparser.o
 .bss           0x100816f8        0x0 ../../core/lua-5.1.4/src/lstate.o
 .bss           0x100816f8        0x0 ../../core/lua-5.1.4/src/lstring.o
 .bss           0x100816f8        0x0 ../../core/lua-5.1.4/src/lstrlib.o
 .bss           0x100816f8        0x0 ../../core/lua-5.1.4/src/ltable.o
 .bss           0x100816f8        0x0 ../../core/lua-5.1.4/src/ltablib.o
 .bss           0x100816f8        0x0 ../../core/lua-5.1.4/src/ltm.o
 .bss           0x100816f8        0x0 ../../core/lua-5.1.4/src/lundump.o
 .bss           0x100816f8        0x0 ../../core/lua-5.1.4/src/lvm.o
 .bss           0x100816f8        0x0 ../../core/lua-5.1.4/src/lzio.o
 .bss           0x100816f8        0x0 ../../core/lua-5.1.4/src/print.o
 .bss           0x100816f8        0x0 ../../core/dynawa/rtos.o
 .bss           0x100816f8      0x438 ../../core/dynawa/usbserial.o
 .bss           0x10081b30        0x0 ../../core/dynawa/serial.o
 .bss           0x10081b30        0x4 ../../core/dynawa/main.o
                0x10081b30                scrbuf
 .bss           0x10081b34        0x8 ../../core/dynawa/io.o
                0x10081b34                Io_isrSourceCount
 .bss           0x10081b3c        0x0 ../../core/dynawa/led.o
 .bss           0x10081b3c      0x250 ../../core/dynawa/lua/lua.o
 .bss           0x10081d8c        0x0 ../../core/dynawa/lua/lua_isr.o
 .bss           0x10081d8c        0x0 ../../core/dynawa/lua/lib_dynawa.o
 .bss           0x10081d8c        0x0 ../../core/dynawa/lua/lib_dynawa_timer.o
 .bss           0x10081d8c        0x0 ../../core/dynawa/lua/lib_dynawa_bitmap.o
 .bss           0x10081d8c        0x4 ../../core/dynawa/event.o
 .bss           0x10081d90        0x1 ../../core/dynawa/timer.o
 .bss           0x10081d91        0x0 ../../core/dynawa/bitmap.o
 .bss           0x10081d91        0x2 ../../core/sdcard/sdcard.o
                0x10081d92                sdhc_card
                0x10081d91                ver2_card
 .bss           0x10081d93        0x0 ../../core/dynawa/fat.o
 .bss           0x10081d93        0x0 ../../core/fatfs-0.07/src/option/ccsbcs.o
 .bss           0x10081d93        0x0 ../../core/fatfs-0.07/src/diskio.o
 *fill*         0x10081d93        0x1 00
 .bss           0x10081d94      0x208 ../../core/fatfs-0.07/src/ff.o
 .bss           0x10081f9c        0x0 ../../core/monitor/args.o
 .bss           0x10081f9c        0x0 ../../core/monitor/argsdispatch.o
 .bss           0x10081f9c      0x4dc ../../core/monitor/monitor.o
                0x10081f9c                activeCommandList
 .bss           0x10082478        0x0 ../../core/yabcsp/src/crc.o
 .bss           0x10082478        0x0 ../../core/yabcsp/src/init.o
 .bss           0x10082478        0x0 ../../core/yabcsp/src/le.o
 .bss           0x10082478        0x0 ../../core/yabcsp/src/rx.o
 .bss           0x10082478        0x0 ../../core/yabcsp/src/txmsg.o
 .bss           0x10082478        0x0 ../../core/yabcsp/src/txslip.o
 .bss           0x10082478       0x10 ../../core/dynawa/bcsp/main.o
                0x10082478                bc_state
 .bss           0x10082488       0x10 ../../core/dynawa/bcsp/abcsp_support_functions.o
 .bss           0x10082498       0x20 ../../core/dynawa/bcsp/uSched.o
 .bss           0x100824b8     0x1f68 ../../core/dynawa/bcsp/SerialCom.o
 .bss           0x10084420        0x0 ../../core/peripherals/serial.o
 .bss           0x10084420        0x0 ../../core/peripherals/oled/oled.o
 .bss           0x10084420        0x0 ../../core/peripherals/spi.o
 .bss           0x10084420        0x0 ../../core/peripherals/pmc/pmc.o
 .bss           0x10084420        0x0 ../../core/peripherals/usart/usart.o
 .bss           0x10084420        0x0 ../../core/peripherals/aic/aic.o
 .bss           0x10084420        0x0 ../../core/peripherals/pio/pio.o
 .bss           0x10084420        0x0 ../../core/peripherals/rtc.o
 .bss           0x10084420        0x0 ../../core/peripherals/i2c.o
 .bss           0x10084420        0x0 ../../core/peripherals/accel.o
 .bss           0x10084420        0x0 ../../core/peripherals/gasgauge.o
 .bss           0x10084420        0x0 ../../core/peripherals/amblightsensor.o
 .bss           0x10084420        0x0 ../../core/peripherals/ledrgb.o
 .bss           0x10084420        0x0 ../../core/lua-5.1.4/src/lnum.o
 .bss           0x10084420        0x0 ../../core/lwalkera-lwBT-f64e170/lwbt/fcs.o
 .bss           0x10084420        0x4 ../../core/lwalkera-lwBT-f64e170/lwbt/hci.o
 .bss           0x10084424        0x0 ../../core/lwalkera-lwBT-f64e170/lwbt/l2cap.o
 .bss           0x10084424      0xc70 ../../core/lwalkera-lwBT-f64e170/lwbt/lwbt_memp.o
 .bss           0x10085094        0x0 ../../core/lwalkera-lwBT-f64e170/lwbt/rfcomm.o
 .bss           0x10085094        0x0 ../../core/lwalkera-lwBT-f64e170/lwbt/sdp.o
 .bss           0x10085094        0x0 ../../core/lwalkera-lwBT-f64e170/lwip/inet.o
 .bss           0x10085094      0xd8c ../../core/lwalkera-lwBT-f64e170/lwip/memp.o
 .bss           0x10085e20        0x0 ../../core/lwalkera-lwBT-f64e170/lwip/pbuf.o
 .bss           0x10085e20        0x0 ../../core/lwalkera-lwBT-f64e170/lwip/stats.o
 .bss           0x10085e20        0x0 ../../core/lwalkera-lwBT-f64e170/bt_spp.o
 .bss           0x10085e20        0x0 ../../libraries/zlib-1.2.3/adler32.o
 .bss           0x10085e20        0x0 ../../libraries/zlib-1.2.3/compress.o
 .bss           0x10085e20        0x0 ../../libraries/zlib-1.2.3/crc32.o
 .bss           0x10085e20        0x0 ../../libraries/zlib-1.2.3/gzio.o
 .bss           0x10085e20        0x0 ../../libraries/zlib-1.2.3/uncompr.o
 .bss           0x10085e20        0x0 ../../libraries/zlib-1.2.3/deflate.o
 .bss           0x10085e20        0x0 ../../libraries/zlib-1.2.3/trees.o
 .bss           0x10085e20        0x0 ../../libraries/zlib-1.2.3/zutil.o
 .bss           0x10085e20        0x0 ../../libraries/zlib-1.2.3/inflate.o
 .bss           0x10085e20        0x0 ../../libraries/zlib-1.2.3/infback.o
 .bss           0x10085e20        0x0 ../../libraries/zlib-1.2.3/inftrees.o
 .bss           0x10085e20        0x0 ../../libraries/zlib-1.2.3/inffast.o
 .bss           0x10085e20        0x0 ../../libraries/libpng-1.4.0/png.o
 .bss           0x10085e20        0x0 ../../libraries/libpng-1.4.0/pngerror.o
 .bss           0x10085e20        0x0 ../../libraries/libpng-1.4.0/pngget.o
 .bss           0x10085e20        0x0 ../../libraries/libpng-1.4.0/pngmem.o
 .bss           0x10085e20        0x0 ../../libraries/libpng-1.4.0/pngpread.o
 .bss           0x10085e20        0x0 ../../libraries/libpng-1.4.0/pngread.o
 .bss           0x10085e20        0x0 ../../libraries/libpng-1.4.0/pngrio.o
 .bss           0x10085e20        0x0 ../../libraries/libpng-1.4.0/pngrtran.o
 .bss           0x10085e20        0x0 ../../libraries/libpng-1.4.0/pngrutil.o
 .bss           0x10085e20        0x0 ../../libraries/libpng-1.4.0/pngset.o
 .bss           0x10085e20        0x0 ../../libraries/libpng-1.4.0/pngtrans.o
 .bss           0x10085e20        0x0 ../../libraries/libpng-1.4.0/pngwio.o
 .bss           0x10085e20        0x0 ../../libraries/libpng-1.4.0/pngwrite.o
 .bss           0x10085e20        0x0 ../../libraries/libpng-1.4.0/pngwtran.o
 .bss           0x10085e20        0x0 ../../libraries/libpng-1.4.0/pngwutil.o
 .bss           0x10085e20        0x0 ../../core/dynawa/png.o
 .bss           0x10085e20        0x0 image.o
 .bss           0x10085e20        0x0 /tmp/ccIBIrH5.o
 .bss           0x10085e20        0x0 /tmp/ccAJfFnu.o
 .bss           0x10085e20        0x0 /usr/local/arm-elf-tools/gcc-4.3.3/lib/gcc/arm-elf/4.3.3/../../../../arm-elf/lib/interwork/libm.a(lib_a-s_atan.o)
 .bss           0x10085e20        0x0 /usr/local/arm-elf-tools/gcc-4.3.3/lib/gcc/arm-elf/4.3.3/../../../../arm-elf/lib/interwork/libm.a(lib_a-s_ceil.o)
 .bss           0x10085e20        0x0 /usr/local/arm-elf-tools/gcc-4.3.3/lib/gcc/arm-elf/4.3.3/../../../../arm-elf/lib/interwork/libm.a(lib_a-s_cos.o)
 .bss           0x10085e20        0x0 /usr/local/arm-elf-tools/gcc-4.3.3/lib/gcc/arm-elf/4.3.3/../../../../arm-elf/lib/interwork/libm.a(lib_a-s_fabs.o)
 .bss           0x10085e20        0x0 /usr/local/arm-elf-tools/gcc-4.3.3/lib/gcc/arm-elf/4.3.3/../../../../arm-elf/lib/interwork/libm.a(lib_a-s_floor.o)
 .bss           0x10085e20        0x0 /usr/local/arm-elf-tools/gcc-4.3.3/lib/gcc/arm-elf/4.3.3/../../../../arm-elf/lib/interwork/libm.a(lib_a-s_frexp.o)
 .bss           0x10085e20        0x0 /usr/local/arm-elf-tools/gcc-4.3.3/lib/gcc/arm-elf/4.3.3/../../../../arm-elf/lib/interwork/libm.a(lib_a-s_ldexp.o)
 .bss           0x10085e20        0x0 /usr/local/arm-elf-tools/gcc-4.3.3/lib/gcc/arm-elf/4.3.3/../../../../arm-elf/lib/interwork/libm.a(lib_a-s_modf.o)
 .bss           0x10085e20        0x0 /usr/local/arm-elf-tools/gcc-4.3.3/lib/gcc/arm-elf/4.3.3/../../../../arm-elf/lib/interwork/libm.a(lib_a-s_scalbn.o)
 .bss           0x10085e20        0x0 /usr/local/arm-elf-tools/gcc-4.3.3/lib/gcc/arm-elf/4.3.3/../../../../arm-elf/lib/interwork/libm.a(lib_a-s_sin.o)
 .bss           0x10085e20        0x0 /usr/local/arm-elf-tools/gcc-4.3.3/lib/gcc/arm-elf/4.3.3/../../../../arm-elf/lib/interwork/libm.a(lib_a-s_tanh.o)
 .bss           0x10085e20        0x0 /usr/local/arm-elf-tools/gcc-4.3.3/lib/gcc/arm-elf/4.3.3/../../../../arm-elf/lib/interwork/libm.a(lib_a-s_tan.o)
 .bss           0x10085e20        0x0 /usr/local/arm-elf-tools/gcc-4.3.3/lib/gcc/arm-elf/4.3.3/../../../../arm-elf/lib/interwork/libm.a(lib_a-w_acos.o)
 .bss           0x10085e20        0x0 /usr/local/arm-elf-tools/gcc-4.3.3/lib/gcc/arm-elf/4.3.3/../../../../arm-elf/lib/interwork/libm.a(lib_a-w_asin.o)
 .bss           0x10085e20        0x0 /usr/local/arm-elf-tools/gcc-4.3.3/lib/gcc/arm-elf/4.3.3/../../../../arm-elf/lib/interwork/libm.a(lib_a-w_atan2.o)
 .bss           0x10085e20        0x0 /usr/local/arm-elf-tools/gcc-4.3.3/lib/gcc/arm-elf/4.3.3/../../../../arm-elf/lib/interwork/libm.a(lib_a-w_cosh.o)
 .bss           0x10085e20        0x0 /usr/local/arm-elf-tools/gcc-4.3.3/lib/gcc/arm-elf/4.3.3/../../../../arm-elf/lib/interwork/libm.a(lib_a-w_exp.o)
 .bss           0x10085e20        0x0 /usr/local/arm-elf-tools/gcc-4.3.3/lib/gcc/arm-elf/4.3.3/../../../../arm-elf/lib/interwork/libm.a(lib_a-w_fmod.o)
 .bss           0x10085e20        0x0 /usr/local/arm-elf-tools/gcc-4.3.3/lib/gcc/arm-elf/4.3.3/../../../../arm-elf/lib/interwork/libm.a(lib_a-w_log10.o)
 .bss           0x10085e20        0x0 /usr/local/arm-elf-tools/gcc-4.3.3/lib/gcc/arm-elf/4.3.3/../../../../arm-elf/lib/interwork/libm.a(lib_a-w_log.o)
 .bss           0x10085e20        0x0 /usr/local/arm-elf-tools/gcc-4.3.3/lib/gcc/arm-elf/4.3.3/../../../../arm-elf/lib/interwork/libm.a(lib_a-w_pow.o)
 .bss           0x10085e20        0x0 /usr/local/arm-elf-tools/gcc-4.3.3/lib/gcc/arm-elf/4.3.3/../../../../arm-elf/lib/interwork/libm.a(lib_a-w_sinh.o)
 .bss           0x10085e20        0x0 /usr/local/arm-elf-tools/gcc-4.3.3/lib/gcc/arm-elf/4.3.3/../../../../arm-elf/lib/interwork/libm.a(lib_a-w_sqrt.o)
 .bss           0x10085e20        0x0 /usr/local/arm-elf-tools/gcc-4.3.3/lib/gcc/arm-elf/4.3.3/../../../../arm-elf/lib/interwork/libm.a(lib_a-e_acos.o)
 .bss           0x10085e20        0x0 /usr/local/arm-elf-tools/gcc-4.3.3/lib/gcc/arm-elf/4.3.3/../../../../arm-elf/lib/interwork/libm.a(lib_a-e_asin.o)
 .bss           0x10085e20        0x0 /usr/local/arm-elf-tools/gcc-4.3.3/lib/gcc/arm-elf/4.3.3/../../../../arm-elf/lib/interwork/libm.a(lib_a-e_atan2.o)
 .bss           0x10085e20        0x0 /usr/local/arm-elf-tools/gcc-4.3.3/lib/gcc/arm-elf/4.3.3/../../../../arm-elf/lib/interwork/libm.a(lib_a-e_cosh.o)
 .bss           0x10085e20        0x0 /usr/local/arm-elf-tools/gcc-4.3.3/lib/gcc/arm-elf/4.3.3/../../../../arm-elf/lib/interwork/libm.a(lib_a-e_exp.o)
 .bss           0x10085e20        0x0 /usr/local/arm-elf-tools/gcc-4.3.3/lib/gcc/arm-elf/4.3.3/../../../../arm-elf/lib/interwork/libm.a(lib_a-e_fmod.o)
 .bss           0x10085e20        0x0 /usr/local/arm-elf-tools/gcc-4.3.3/lib/gcc/arm-elf/4.3.3/../../../../arm-elf/lib/interwork/libm.a(lib_a-e_log10.o)
 .bss           0x10085e20        0x0 /usr/local/arm-elf-tools/gcc-4.3.3/lib/gcc/arm-elf/4.3.3/../../../../arm-elf/lib/interwork/libm.a(lib_a-e_log.o)
 .bss           0x10085e20        0x0 /usr/local/arm-elf-tools/gcc-4.3.3/lib/gcc/arm-elf/4.3.3/../../../../arm-elf/lib/interwork/libm.a(lib_a-e_pow.o)
 .bss           0x10085e20        0x0 /usr/local/arm-elf-tools/gcc-4.3.3/lib/gcc/arm-elf/4.3.3/../../../../arm-elf/lib/interwork/libm.a(lib_a-e_rem_pio2.o)
 .bss           0x10085e20        0x0 /usr/local/arm-elf-tools/gcc-4.3.3/lib/gcc/arm-elf/4.3.3/../../../../arm-elf/lib/interwork/libm.a(lib_a-e_sinh.o)
 .bss           0x10085e20        0x0 /usr/local/arm-elf-tools/gcc-4.3.3/lib/gcc/arm-elf/4.3.3/../../../../arm-elf/lib/interwork/libm.a(lib_a-e_sqrt.o)
 .bss           0x10085e20        0x0 /usr/local/arm-elf-tools/gcc-4.3.3/lib/gcc/arm-elf/4.3.3/../../../../arm-elf/lib/interwork/libm.a(lib_a-k_cos.o)
 .bss           0x10085e20        0x0 /usr/local/arm-elf-tools/gcc-4.3.3/lib/gcc/arm-elf/4.3.3/../../../../arm-elf/lib/interwork/libm.a(lib_a-k_rem_pio2.o)
 .bss           0x10085e20        0x0 /usr/local/arm-elf-tools/gcc-4.3.3/lib/gcc/arm-elf/4.3.3/../../../../arm-elf/lib/interwork/libm.a(lib_a-k_sin.o)
 .bss           0x10085e20        0x0 /usr/local/arm-elf-tools/gcc-4.3.3/lib/gcc/arm-elf/4.3.3/../../../../arm-elf/lib/interwork/libm.a(lib_a-k_tan.o)
 .bss           0x10085e20        0x0 /usr/local/arm-elf-tools/gcc-4.3.3/lib/gcc/arm-elf/4.3.3/../../../../arm-elf/lib/interwork/libm.a(lib_a-s_copysign.o)
 .bss           0x10085e20        0x0 /usr/local/arm-elf-tools/gcc-4.3.3/lib/gcc/arm-elf/4.3.3/../../../../arm-elf/lib/interwork/libm.a(lib_a-s_expm1.o)
 .bss           0x10085e20        0x0 /usr/local/arm-elf-tools/gcc-4.3.3/lib/gcc/arm-elf/4.3.3/../../../../arm-elf/lib/interwork/libm.a(lib_a-s_finite.o)
 .bss           0x10085e20        0x0 /usr/local/arm-elf-tools/gcc-4.3.3/lib/gcc/arm-elf/4.3.3/../../../../arm-elf/lib/interwork/libm.a(lib_a-s_isnand.o)
 .bss           0x10085e20        0x0 /usr/local/arm-elf-tools/gcc-4.3.3/lib/gcc/arm-elf/4.3.3/../../../../arm-elf/lib/interwork/libm.a(lib_a-s_lib_ver.o)
 .bss           0x10085e20        0x0 /usr/local/arm-elf-tools/gcc-4.3.3/lib/gcc/arm-elf/4.3.3/../../../../arm-elf/lib/interwork/libm.a(lib_a-s_matherr.o)
 .bss           0x10085e20        0x0 /usr/local/arm-elf-tools/gcc-4.3.3/lib/gcc/arm-elf/4.3.3/../../../../arm-elf/lib/interwork/libm.a(lib_a-s_nan.o)
 .bss           0x10085e20        0x0 /usr/local/arm-elf-tools/gcc-4.3.3/lib/gcc/arm-elf/4.3.3/../../../../arm-elf/lib/interwork/libm.a(lib_a-s_rint.o)
 .bss           0x10085e20        0x0 /usr/local/arm-elf-tools/gcc-4.3.3/lib/gcc/arm-elf/4.3.3/interwork/libgcc.a(_udivsi3.o)
 .bss           0x10085e20        0x0 /usr/local/arm-elf-tools/gcc-4.3.3/lib/gcc/arm-elf/4.3.3/interwork/libgcc.a(_divsi3.o)
 .bss           0x10085e20        0x0 /usr/local/arm-elf-tools/gcc-4.3.3/lib/gcc/arm-elf/4.3.3/interwork/libgcc.a(_umodsi3.o)
 .bss           0x10085e20        0x0 /usr/local/arm-elf-tools/gcc-4.3.3/lib/gcc/arm-elf/4.3.3/interwork/libgcc.a(_modsi3.o)
 .bss           0x10085e20        0x0 /usr/local/arm-elf-tools/gcc-4.3.3/lib/gcc/arm-elf/4.3.3/interwork/libgcc.a(_dvmd_tls.o)
 .bss           0x10085e20        0x0 /usr/local/arm-elf-tools/gcc-4.3.3/lib/gcc/arm-elf/4.3.3/interwork/libgcc.a(_fixunsdfsi.o)
 .bss           0x10085e20        0x0 /usr/local/arm-elf-tools/gcc-4.3.3/lib/gcc/arm-elf/4.3.3/interwork/libgcc.a(_mul_sf.o)
 .bss           0x10085e20        0x0 /usr/local/arm-elf-tools/gcc-4.3.3/lib/gcc/arm-elf/4.3.3/interwork/libgcc.a(_div_sf.o)
 .bss           0x10085e20        0x0 /usr/local/arm-elf-tools/gcc-4.3.3/lib/gcc/arm-elf/4.3.3/interwork/libgcc.a(_eq_sf.o)
 .bss           0x10085e20        0x0 /usr/local/arm-elf-tools/gcc-4.3.3/lib/gcc/arm-elf/4.3.3/interwork/libgcc.a(_si_to_sf.o)
 .bss           0x10085e20        0x0 /usr/local/arm-elf-tools/gcc-4.3.3/lib/gcc/arm-elf/4.3.3/interwork/libgcc.a(_sf_to_df.o)
 .bss           0x10085e20        0x0 /usr/local/arm-elf-tools/gcc-4.3.3/lib/gcc/arm-elf/4.3.3/interwork/libgcc.a(_thenan_sf.o)
 .bss           0x10085e20        0x0 /usr/local/arm-elf-tools/gcc-4.3.3/lib/gcc/arm-elf/4.3.3/interwork/libgcc.a(_usi_to_sf.o)
 .bss           0x10085e20        0x0 /usr/local/arm-elf-tools/gcc-4.3.3/lib/gcc/arm-elf/4.3.3/interwork/libgcc.a(_addsub_df.o)
 .bss           0x10085e20        0x0 /usr/local/arm-elf-tools/gcc-4.3.3/lib/gcc/arm-elf/4.3.3/interwork/libgcc.a(_mul_df.o)
 .bss           0x10085e20        0x0 /usr/local/arm-elf-tools/gcc-4.3.3/lib/gcc/arm-elf/4.3.3/interwork/libgcc.a(_div_df.o)
 .bss           0x10085e20        0x0 /usr/local/arm-elf-tools/gcc-4.3.3/lib/gcc/arm-elf/4.3.3/interwork/libgcc.a(_eq_df.o)
 .bss           0x10085e20        0x0 /usr/local/arm-elf-tools/gcc-4.3.3/lib/gcc/arm-elf/4.3.3/interwork/libgcc.a(_ne_df.o)
 .bss           0x10085e20        0x0 /usr/local/arm-elf-tools/gcc-4.3.3/lib/gcc/arm-elf/4.3.3/interwork/libgcc.a(_gt_df.o)
 .bss           0x10085e20        0x0 /usr/local/arm-elf-tools/gcc-4.3.3/lib/gcc/arm-elf/4.3.3/interwork/libgcc.a(_ge_df.o)
 .bss           0x10085e20        0x0 /usr/local/arm-elf-tools/gcc-4.3.3/lib/gcc/arm-elf/4.3.3/interwork/libgcc.a(_lt_df.o)
 .bss           0x10085e20        0x0 /usr/local/arm-elf-tools/gcc-4.3.3/lib/gcc/arm-elf/4.3.3/interwork/libgcc.a(_le_df.o)
 .bss           0x10085e20        0x0 /usr/local/arm-elf-tools/gcc-4.3.3/lib/gcc/arm-elf/4.3.3/interwork/libgcc.a(_si_to_df.o)
 .bss           0x10085e20        0x0 /usr/local/arm-elf-tools/gcc-4.3.3/lib/gcc/arm-elf/4.3.3/interwork/libgcc.a(_df_to_si.o)
 .bss           0x10085e20        0x0 /usr/local/arm-elf-tools/gcc-4.3.3/lib/gcc/arm-elf/4.3.3/interwork/libgcc.a(_make_df.o)
 .bss           0x10085e20        0x0 /usr/local/arm-elf-tools/gcc-4.3.3/lib/gcc/arm-elf/4.3.3/interwork/libgcc.a(_df_to_sf.o)
 .bss           0x10085e20        0x0 /usr/local/arm-elf-tools/gcc-4.3.3/lib/gcc/arm-elf/4.3.3/interwork/libgcc.a(_thenan_df.o)
 .bss           0x10085e20        0x0 /usr/local/arm-elf-tools/gcc-4.3.3/lib/gcc/arm-elf/4.3.3/interwork/libgcc.a(_usi_to_df.o)
 .bss           0x10085e20        0x0 /usr/local/arm-elf-tools/gcc-4.3.3/lib/gcc/arm-elf/4.3.3/interwork/libgcc.a(_ucmpdi2.o)
 .bss           0x10085e20        0x0 /usr/local/arm-elf-tools/gcc-4.3.3/lib/gcc/arm-elf/4.3.3/interwork/libgcc.a(_clzsi2.o)
 .bss           0x10085e20        0x0 /usr/local/arm-elf-tools/gcc-4.3.3/lib/gcc/arm-elf/4.3.3/interwork/libgcc.a(_pack_sf.o)
 .bss           0x10085e20        0x0 /usr/local/arm-elf-tools/gcc-4.3.3/lib/gcc/arm-elf/4.3.3/interwork/libgcc.a(_unpack_sf.o)
 .bss           0x10085e20        0x0 /usr/local/arm-elf-tools/gcc-4.3.3/lib/gcc/arm-elf/4.3.3/interwork/libgcc.a(_fpcmp_parts_sf.o)
 .bss           0x10085e20        0x0 /usr/local/arm-elf-tools/gcc-4.3.3/lib/gcc/arm-elf/4.3.3/interwork/libgcc.a(_make_sf.o)
 .bss           0x10085e20        0x0 /usr/local/arm-elf-tools/gcc-4.3.3/lib/gcc/arm-elf/4.3.3/interwork/libgcc.a(_pack_df.o)
 .bss           0x10085e20        0x0 /usr/local/arm-elf-tools/gcc-4.3.3/lib/gcc/arm-elf/4.3.3/interwork/libgcc.a(_unpack_df.o)
 .bss           0x10085e20        0x0 /usr/local/arm-elf-tools/gcc-4.3.3/lib/gcc/arm-elf/4.3.3/interwork/libgcc.a(_fpcmp_parts_df.o)
 .bss           0x10085e20        0x0 /usr/local/arm-elf-tools/gcc-4.3.3/lib/gcc/arm-elf/4.3.3/interwork/libgcc.a(_clz.o)
 .bss           0x10085e20        0x0 /usr/local/arm-elf-tools/gcc-4.3.3/lib/gcc/arm-elf/4.3.3/../../../../arm-elf/lib/interwork/libc.a(lib_a-abort.o)
 .bss           0x10085e20        0x0 /usr/local/arm-elf-tools/gcc-4.3.3/lib/gcc/arm-elf/4.3.3/../../../../arm-elf/lib/interwork/libc.a(lib_a-calloc.o)
 .bss           0x10085e20        0x0 /usr/local/arm-elf-tools/gcc-4.3.3/lib/gcc/arm-elf/4.3.3/../../../../arm-elf/lib/interwork/libc.a(lib_a-callocr.o)
 .bss           0x10085e20        0x0 /usr/local/arm-elf-tools/gcc-4.3.3/lib/gcc/arm-elf/4.3.3/../../../../arm-elf/lib/interwork/libc.a(lib_a-clock.o)
 .bss           0x10085e20        0x0 /usr/local/arm-elf-tools/gcc-4.3.3/lib/gcc/arm-elf/4.3.3/../../../../arm-elf/lib/interwork/libc.a(lib_a-ctype_.o)
 .bss           0x10085e20        0x0 /usr/local/arm-elf-tools/gcc-4.3.3/lib/gcc/arm-elf/4.3.3/../../../../arm-elf/lib/interwork/libc.a(lib_a-difftime.o)
 .bss           0x10085e20        0x0 /usr/local/arm-elf-tools/gcc-4.3.3/lib/gcc/arm-elf/4.3.3/../../../../arm-elf/lib/interwork/libc.a(lib_a-errno.o)
 .bss           0x10085e20        0x0 /usr/local/arm-elf-tools/gcc-4.3.3/lib/gcc/arm-elf/4.3.3/../../../../arm-elf/lib/interwork/libc.a(lib_a-exit.o)
 .bss           0x10085e20        0x0 /usr/local/arm-elf-tools/gcc-4.3.3/lib/gcc/arm-elf/4.3.3/../../../../arm-elf/lib/interwork/libc.a(lib_a-fclose.o)
 .bss           0x10085e20        0x0 /usr/local/arm-elf-tools/gcc-4.3.3/lib/gcc/arm-elf/4.3.3/../../../../arm-elf/lib/interwork/libc.a(lib_a-fdopen.o)
 .bss           0x10085e20        0x0 /usr/local/arm-elf-tools/gcc-4.3.3/lib/gcc/arm-elf/4.3.3/../../../../arm-elf/lib/interwork/libc.a(lib_a-fflush.o)
 .bss           0x10085e20        0x0 /usr/local/arm-elf-tools/gcc-4.3.3/lib/gcc/arm-elf/4.3.3/../../../../arm-elf/lib/interwork/libc.a(lib_a-fgets.o)
 .bss           0x10085e20        0x0 /usr/local/arm-elf-tools/gcc-4.3.3/lib/gcc/arm-elf/4.3.3/../../../../arm-elf/lib/interwork/libc.a(lib_a-fileno.o)
 .bss           0x10085e20        0x0 /usr/local/arm-elf-tools/gcc-4.3.3/lib/gcc/arm-elf/4.3.3/../../../../arm-elf/lib/interwork/libc.a(lib_a-findfp.o)
 .bss           0x10085e20        0x0 /usr/local/arm-elf-tools/gcc-4.3.3/lib/gcc/arm-elf/4.3.3/../../../../arm-elf/lib/interwork/libc.a(lib_a-flags.o)
 .bss           0x10085e20        0x0 /usr/local/arm-elf-tools/gcc-4.3.3/lib/gcc/arm-elf/4.3.3/../../../../arm-elf/lib/interwork/libc.a(lib_a-fopen.o)
 .bss           0x10085e20        0x0 /usr/local/arm-elf-tools/gcc-4.3.3/lib/gcc/arm-elf/4.3.3/../../../../arm-elf/lib/interwork/libc.a(lib_a-fprintf.o)
 .bss           0x10085e20        0x0 /usr/local/arm-elf-tools/gcc-4.3.3/lib/gcc/arm-elf/4.3.3/../../../../arm-elf/lib/interwork/libc.a(lib_a-fputc.o)
 .bss           0x10085e20        0x0 /usr/local/arm-elf-tools/gcc-4.3.3/lib/gcc/arm-elf/4.3.3/../../../../arm-elf/lib/interwork/libc.a(lib_a-fputs.o)
 .bss           0x10085e20        0x0 /usr/local/arm-elf-tools/gcc-4.3.3/lib/gcc/arm-elf/4.3.3/../../../../arm-elf/lib/interwork/libc.a(lib_a-fread.o)
 .bss           0x10085e20        0x0 /usr/local/arm-elf-tools/gcc-4.3.3/lib/gcc/arm-elf/4.3.3/../../../../arm-elf/lib/interwork/libc.a(lib_a-freer.o)
 .bss           0x10085e20        0x0 /usr/local/arm-elf-tools/gcc-4.3.3/lib/gcc/arm-elf/4.3.3/../../../../arm-elf/lib/interwork/libc.a(lib_a-freopen.o)
 .bss           0x10085e20        0x0 /usr/local/arm-elf-tools/gcc-4.3.3/lib/gcc/arm-elf/4.3.3/../../../../arm-elf/lib/interwork/libc.a(lib_a-fscanf.o)
 .bss           0x10085e20        0x0 /usr/local/arm-elf-tools/gcc-4.3.3/lib/gcc/arm-elf/4.3.3/../../../../arm-elf/lib/interwork/libc.a(lib_a-fseek.o)
 .bss           0x10085e20        0x0 /usr/local/arm-elf-tools/gcc-4.3.3/lib/gcc/arm-elf/4.3.3/../../../../arm-elf/lib/interwork/libc.a(lib_a-ftell.o)
 .bss           0x10085e20        0x0 /usr/local/arm-elf-tools/gcc-4.3.3/lib/gcc/arm-elf/4.3.3/../../../../arm-elf/lib/interwork/libc.a(lib_a-fvwrite.o)
 .bss           0x10085e20        0x0 /usr/local/arm-elf-tools/gcc-4.3.3/lib/gcc/arm-elf/4.3.3/../../../../arm-elf/lib/interwork/libc.a(lib_a-fwalk.o)
 .bss           0x10085e20        0x0 /usr/local/arm-elf-tools/gcc-4.3.3/lib/gcc/arm-elf/4.3.3/../../../../arm-elf/lib/interwork/libc.a(lib_a-fwrite.o)
 .bss           0x10085e20        0x0 /usr/local/arm-elf-tools/gcc-4.3.3/lib/gcc/arm-elf/4.3.3/../../../../arm-elf/lib/interwork/libc.a(lib_a-getenv.o)
 .bss           0x10085e20        0x0 /usr/local/arm-elf-tools/gcc-4.3.3/lib/gcc/arm-elf/4.3.3/../../../../arm-elf/lib/interwork/libc.a(lib_a-getenv_r.o)
 .bss           0x10085e20        0x0 /usr/local/arm-elf-tools/gcc-4.3.3/lib/gcc/arm-elf/4.3.3/../../../../arm-elf/lib/interwork/libc.a(lib_a-gmtime.o)
 .bss           0x10085e20        0x0 /usr/local/arm-elf-tools/gcc-4.3.3/lib/gcc/arm-elf/4.3.3/../../../../arm-elf/lib/interwork/libc.a(lib_a-gmtime_r.o)
 .bss           0x10085e20        0x0 /usr/local/arm-elf-tools/gcc-4.3.3/lib/gcc/arm-elf/4.3.3/../../../../arm-elf/lib/interwork/libc.a(lib_a-impure.o)
 .bss           0x10085e20        0x0 /usr/local/arm-elf-tools/gcc-4.3.3/lib/gcc/arm-elf/4.3.3/../../../../arm-elf/lib/interwork/libc.a(lib_a-lcltime.o)
 .bss           0x10085e20        0x0 /usr/local/arm-elf-tools/gcc-4.3.3/lib/gcc/arm-elf/4.3.3/../../../../arm-elf/lib/interwork/libc.a(lib_a-lcltime_r.o)
 .bss           0x10085e20        0xc /usr/local/arm-elf-tools/gcc-4.3.3/lib/gcc/arm-elf/4.3.3/../../../../arm-elf/lib/interwork/libc.a(lib_a-locale.o)
                0x10085e20                __nlocale_changed
                0x10085e24                __mlocale_changed
                0x10085e28                _PathLocale
 .bss           0x10085e2c        0x0 /usr/local/arm-elf-tools/gcc-4.3.3/lib/gcc/arm-elf/4.3.3/../../../../arm-elf/lib/interwork/libc.a(lib_a-makebuf.o)
 .bss           0x10085e2c        0x0 /usr/local/arm-elf-tools/gcc-4.3.3/lib/gcc/arm-elf/4.3.3/../../../../arm-elf/lib/interwork/libc.a(lib_a-malloc.o)
 .bss           0x10085e2c       0x34 /usr/local/arm-elf-tools/gcc-4.3.3/lib/gcc/arm-elf/4.3.3/../../../../arm-elf/lib/interwork/libc.a(lib_a-mallocr.o)
                0x10085e2c                __malloc_top_pad
                0x10085e30                __malloc_max_sbrked_mem
                0x10085e38                __malloc_current_mallinfo
                0x10085e34                __malloc_max_total_mem
 .bss           0x10085e60        0x0 /usr/local/arm-elf-tools/gcc-4.3.3/lib/gcc/arm-elf/4.3.3/../../../../arm-elf/lib/interwork/libc.a(lib_a-memchr.o)
 .bss           0x10085e60        0x0 /usr/local/arm-elf-tools/gcc-4.3.3/lib/gcc/arm-elf/4.3.3/../../../../arm-elf/lib/interwork/libc.a(lib_a-memcmp.o)
 .bss           0x10085e60        0x0 /usr/local/arm-elf-tools/gcc-4.3.3/lib/gcc/arm-elf/4.3.3/../../../../arm-elf/lib/interwork/libc.a(lib_a-memcpy.o)
 .bss           0x10085e60        0x0 /usr/local/arm-elf-tools/gcc-4.3.3/lib/gcc/arm-elf/4.3.3/../../../../arm-elf/lib/interwork/libc.a(lib_a-memmove.o)
 .bss           0x10085e60        0x0 /usr/local/arm-elf-tools/gcc-4.3.3/lib/gcc/arm-elf/4.3.3/../../../../arm-elf/lib/interwork/libc.a(lib_a-memset.o)
 .bss           0x10085e60        0x0 /usr/local/arm-elf-tools/gcc-4.3.3/lib/gcc/arm-elf/4.3.3/../../../../arm-elf/lib/interwork/libc.a(lib_a-mktime.o)
 .bss           0x10085e60        0x0 /usr/local/arm-elf-tools/gcc-4.3.3/lib/gcc/arm-elf/4.3.3/../../../../arm-elf/lib/interwork/libc.a(lib_a-mktm_r.o)
 .bss           0x10085e60        0x0 /usr/local/arm-elf-tools/gcc-4.3.3/lib/gcc/arm-elf/4.3.3/../../../../arm-elf/lib/interwork/libc.a(lib_a-mlock.o)
 .bss           0x10085e60        0x0 /usr/local/arm-elf-tools/gcc-4.3.3/lib/gcc/arm-elf/4.3.3/../../../../arm-elf/lib/interwork/libc.a(lib_a-printf.o)
 .bss           0x10085e60        0x0 /usr/local/arm-elf-tools/gcc-4.3.3/lib/gcc/arm-elf/4.3.3/../../../../arm-elf/lib/interwork/libc.a(lib_a-putc.o)
 .bss           0x10085e60        0x0 /usr/local/arm-elf-tools/gcc-4.3.3/lib/gcc/arm-elf/4.3.3/../../../../arm-elf/lib/interwork/libc.a(lib_a-rand.o)
 .bss           0x10085e60        0x0 /usr/local/arm-elf-tools/gcc-4.3.3/lib/gcc/arm-elf/4.3.3/../../../../arm-elf/lib/interwork/libc.a(lib_a-realloc.o)
 .bss           0x10085e60        0x0 /usr/local/arm-elf-tools/gcc-4.3.3/lib/gcc/arm-elf/4.3.3/../../../../arm-elf/lib/interwork/libc.a(lib_a-reallocr.o)
 .bss           0x10085e60        0x0 /usr/local/arm-elf-tools/gcc-4.3.3/lib/gcc/arm-elf/4.3.3/../../../../arm-elf/lib/interwork/libc.a(lib_a-refill.o)
 .bss           0x10085e60        0x0 /usr/local/arm-elf-tools/gcc-4.3.3/lib/gcc/arm-elf/4.3.3/../../../../arm-elf/lib/interwork/libc.a(lib_a-remove.o)
 .bss           0x10085e60        0x0 /usr/local/arm-elf-tools/gcc-4.3.3/lib/gcc/arm-elf/4.3.3/../../../../arm-elf/lib/interwork/libc.a(lib_a-rget.o)
 .bss           0x10085e60        0x0 /usr/local/arm-elf-tools/gcc-4.3.3/lib/gcc/arm-elf/4.3.3/../../../../arm-elf/lib/interwork/libc.a(lib_a-setjmp.o)
 .bss           0x10085e60        0x0 /usr/local/arm-elf-tools/gcc-4.3.3/lib/gcc/arm-elf/4.3.3/../../../../arm-elf/lib/interwork/libc.a(lib_a-setvbuf.o)
 .bss           0x10085e60        0x0 /usr/local/arm-elf-tools/gcc-4.3.3/lib/gcc/arm-elf/4.3.3/../../../../arm-elf/lib/interwork/libc.a(lib_a-signal.o)
 .bss           0x10085e60        0x0 /usr/local/arm-elf-tools/gcc-4.3.3/lib/gcc/arm-elf/4.3.3/../../../../arm-elf/lib/interwork/libc.a(lib_a-snprintf.o)
 .bss           0x10085e60        0x0 /usr/local/arm-elf-tools/gcc-4.3.3/lib/gcc/arm-elf/4.3.3/../../../../arm-elf/lib/interwork/libc.a(lib_a-sprintf.o)
 .bss           0x10085e60        0x0 /usr/local/arm-elf-tools/gcc-4.3.3/lib/gcc/arm-elf/4.3.3/../../../../arm-elf/lib/interwork/libc.a(lib_a-stdio.o)
 .bss           0x10085e60        0x0 /usr/local/arm-elf-tools/gcc-4.3.3/lib/gcc/arm-elf/4.3.3/../../../../arm-elf/lib/interwork/libc.a(lib_a-strcat.o)
 .bss           0x10085e60        0x0 /usr/local/arm-elf-tools/gcc-4.3.3/lib/gcc/arm-elf/4.3.3/../../../../arm-elf/lib/interwork/libc.a(lib_a-strchr.o)
 .bss           0x10085e60        0x0 /usr/local/arm-elf-tools/gcc-4.3.3/lib/gcc/arm-elf/4.3.3/../../../../arm-elf/lib/interwork/libc.a(lib_a-strcmp.o)
 .bss           0x10085e60        0x0 /usr/local/arm-elf-tools/gcc-4.3.3/lib/gcc/arm-elf/4.3.3/../../../../arm-elf/lib/interwork/libc.a(lib_a-strcoll.o)
 .bss           0x10085e60        0x0 /usr/local/arm-elf-tools/gcc-4.3.3/lib/gcc/arm-elf/4.3.3/../../../../arm-elf/lib/interwork/libc.a(lib_a-strcpy.o)
 .bss           0x10085e60        0x0 /usr/local/arm-elf-tools/gcc-4.3.3/lib/gcc/arm-elf/4.3.3/../../../../arm-elf/lib/interwork/libc.a(lib_a-strcspn.o)
 .bss           0x10085e60        0x0 /usr/local/arm-elf-tools/gcc-4.3.3/lib/gcc/arm-elf/4.3.3/../../../../arm-elf/lib/interwork/libc.a(lib_a-strerror.o)
 .bss           0x10085e60        0x0 /usr/local/arm-elf-tools/gcc-4.3.3/lib/gcc/arm-elf/4.3.3/../../../../arm-elf/lib/interwork/libc.a(lib_a-strftime.o)
 .bss           0x10085e60        0x0 /usr/local/arm-elf-tools/gcc-4.3.3/lib/gcc/arm-elf/4.3.3/../../../../arm-elf/lib/interwork/libc.a(lib_a-strlen.o)
 .bss           0x10085e60        0x0 /usr/local/arm-elf-tools/gcc-4.3.3/lib/gcc/arm-elf/4.3.3/../../../../arm-elf/lib/interwork/libc.a(lib_a-strncat.o)
 .bss           0x10085e60        0x0 /usr/local/arm-elf-tools/gcc-4.3.3/lib/gcc/arm-elf/4.3.3/../../../../arm-elf/lib/interwork/libc.a(lib_a-strncmp.o)
 .bss           0x10085e60        0x0 /usr/local/arm-elf-tools/gcc-4.3.3/lib/gcc/arm-elf/4.3.3/../../../../arm-elf/lib/interwork/libc.a(lib_a-strncpy.o)
 .bss           0x10085e60        0x0 /usr/local/arm-elf-tools/gcc-4.3.3/lib/gcc/arm-elf/4.3.3/../../../../arm-elf/lib/interwork/libc.a(lib_a-strnlen.o)
 .bss           0x10085e60        0x0 /usr/local/arm-elf-tools/gcc-4.3.3/lib/gcc/arm-elf/4.3.3/../../../../arm-elf/lib/interwork/libc.a(lib_a-strpbrk.o)
 .bss           0x10085e60        0x0 /usr/local/arm-elf-tools/gcc-4.3.3/lib/gcc/arm-elf/4.3.3/../../../../arm-elf/lib/interwork/libc.a(lib_a-strrchr.o)
 .bss           0x10085e60        0x0 /usr/local/arm-elf-tools/gcc-4.3.3/lib/gcc/arm-elf/4.3.3/../../../../arm-elf/lib/interwork/libc.a(lib_a-strstr.o)
 .bss           0x10085e60        0x0 /usr/local/arm-elf-tools/gcc-4.3.3/lib/gcc/arm-elf/4.3.3/../../../../arm-elf/lib/interwork/libc.a(lib_a-strtod.o)
 .bss           0x10085e60        0x0 /usr/local/arm-elf-tools/gcc-4.3.3/lib/gcc/arm-elf/4.3.3/../../../../arm-elf/lib/interwork/libc.a(lib_a-strtoul.o)
 .bss           0x10085e60        0x0 /usr/local/arm-elf-tools/gcc-4.3.3/lib/gcc/arm-elf/4.3.3/../../../../arm-elf/lib/interwork/libc.a(lib_a-svfprintf.o)
 .bss           0x10085e60        0x0 /usr/local/arm-elf-tools/gcc-4.3.3/lib/gcc/arm-elf/4.3.3/../../../../arm-elf/lib/interwork/libc.a(lib_a-sysclose.o)
 .bss           0x10085e60        0x0 /usr/local/arm-elf-tools/gcc-4.3.3/lib/gcc/arm-elf/4.3.3/../../../../arm-elf/lib/interwork/libc.a(lib_a-sysgettod.o)
 .bss           0x10085e60        0x0 /usr/local/arm-elf-tools/gcc-4.3.3/lib/gcc/arm-elf/4.3.3/../../../../arm-elf/lib/interwork/libc.a(lib_a-sysopen.o)
 .bss           0x10085e60        0x0 /usr/local/arm-elf-tools/gcc-4.3.3/lib/gcc/arm-elf/4.3.3/../../../../arm-elf/lib/interwork/libc.a(lib_a-sysread.o)
 .bss           0x10085e60        0x0 /usr/local/arm-elf-tools/gcc-4.3.3/lib/gcc/arm-elf/4.3.3/../../../../arm-elf/lib/interwork/libc.a(lib_a-system.o)
 .bss           0x10085e60        0x0 /usr/local/arm-elf-tools/gcc-4.3.3/lib/gcc/arm-elf/4.3.3/../../../../arm-elf/lib/interwork/libc.a(lib_a-sysunlink.o)
 .bss           0x10085e60        0x0 /usr/local/arm-elf-tools/gcc-4.3.3/lib/gcc/arm-elf/4.3.3/../../../../arm-elf/lib/interwork/libc.a(lib_a-syswrite.o)
 .bss           0x10085e60        0x0 /usr/local/arm-elf-tools/gcc-4.3.3/lib/gcc/arm-elf/4.3.3/../../../../arm-elf/lib/interwork/libc.a(lib_a-time.o)
 .bss           0x10085e60        0x0 /usr/local/arm-elf-tools/gcc-4.3.3/lib/gcc/arm-elf/4.3.3/../../../../arm-elf/lib/interwork/libc.a(lib_a-timesr.o)
 .bss           0x10085e60        0x0 /usr/local/arm-elf-tools/gcc-4.3.3/lib/gcc/arm-elf/4.3.3/../../../../arm-elf/lib/interwork/libc.a(lib_a-tmpfile.o)
 .bss           0x10085e60        0x0 /usr/local/arm-elf-tools/gcc-4.3.3/lib/gcc/arm-elf/4.3.3/../../../../arm-elf/lib/interwork/libc.a(lib_a-tmpnam.o)
 .bss           0x10085e60        0x0 /usr/local/arm-elf-tools/gcc-4.3.3/lib/gcc/arm-elf/4.3.3/../../../../arm-elf/lib/interwork/libc.a(lib_a-tzlock.o)
 .bss           0x10085e60        0x8 /usr/local/arm-elf-tools/gcc-4.3.3/lib/gcc/arm-elf/4.3.3/../../../../arm-elf/lib/interwork/libc.a(lib_a-tzvars.o)
                0x10085e60                _daylight
                0x10085e64                _timezone
 .bss           0x10085e68        0x0 /usr/local/arm-elf-tools/gcc-4.3.3/lib/gcc/arm-elf/4.3.3/../../../../arm-elf/lib/interwork/libc.a(lib_a-ungetc.o)
 .bss           0x10085e68        0x0 /usr/local/arm-elf-tools/gcc-4.3.3/lib/gcc/arm-elf/4.3.3/../../../../arm-elf/lib/interwork/libc.a(lib_a-u_strerr.o)
 .bss           0x10085e68        0x0 /usr/local/arm-elf-tools/gcc-4.3.3/lib/gcc/arm-elf/4.3.3/../../../../arm-elf/lib/interwork/libc.a(lib_a-vfprintf.o)
 .bss           0x10085e68        0x0 /usr/local/arm-elf-tools/gcc-4.3.3/lib/gcc/arm-elf/4.3.3/../../../../arm-elf/lib/interwork/libc.a(lib_a-vfscanf.o)
 .bss           0x10085e68        0x0 /usr/local/arm-elf-tools/gcc-4.3.3/lib/gcc/arm-elf/4.3.3/../../../../arm-elf/lib/interwork/libc.a(lib_a-vsnprintf.o)
 .bss           0x10085e68        0x0 /usr/local/arm-elf-tools/gcc-4.3.3/lib/gcc/arm-elf/4.3.3/../../../../arm-elf/lib/interwork/libc.a(lib_a-wbuf.o)
 .bss           0x10085e68        0x0 /usr/local/arm-elf-tools/gcc-4.3.3/lib/gcc/arm-elf/4.3.3/../../../../arm-elf/lib/interwork/libc.a(lib_a-wsetup.o)
 .bss           0x10085e68        0x0 /usr/local/arm-elf-tools/gcc-4.3.3/lib/gcc/arm-elf/4.3.3/../../../../arm-elf/lib/interwork/libc.a(lib_a-abs.o)
 .bss           0x10085e68        0x0 /usr/local/arm-elf-tools/gcc-4.3.3/lib/gcc/arm-elf/4.3.3/../../../../arm-elf/lib/interwork/libc.a(lib_a-__call_atexit.o)
 .bss           0x10085e68        0x0 /usr/local/arm-elf-tools/gcc-4.3.3/lib/gcc/arm-elf/4.3.3/../../../../arm-elf/lib/interwork/libc.a(lib_a-div.o)
 .bss           0x10085e68        0x0 /usr/local/arm-elf-tools/gcc-4.3.3/lib/gcc/arm-elf/4.3.3/../../../../arm-elf/lib/interwork/libc.a(lib_a-dtoa.o)
 .bss           0x10085e68        0x4 /usr/local/arm-elf-tools/gcc-4.3.3/lib/gcc/arm-elf/4.3.3/../../../../arm-elf/lib/interwork/libc.a(lib_a-environ.o)
 .bss           0x10085e6c        0x0 /usr/local/arm-elf-tools/gcc-4.3.3/lib/gcc/arm-elf/4.3.3/../../../../arm-elf/lib/interwork/libc.a(lib_a-envlock.o)
 .bss           0x10085e6c        0x0 /usr/local/arm-elf-tools/gcc-4.3.3/lib/gcc/arm-elf/4.3.3/../../../../arm-elf/lib/interwork/libc.a(lib_a-gdtoa-gethex.o)
 .bss           0x10085e6c        0x0 /usr/local/arm-elf-tools/gcc-4.3.3/lib/gcc/arm-elf/4.3.3/../../../../arm-elf/lib/interwork/libc.a(lib_a-gdtoa-hexnan.o)
 .bss           0x10085e6c        0x0 /usr/local/arm-elf-tools/gcc-4.3.3/lib/gcc/arm-elf/4.3.3/../../../../arm-elf/lib/interwork/libc.a(lib_a-gettimeofdayr.o)
 .bss           0x10085e6c        0x0 /usr/local/arm-elf-tools/gcc-4.3.3/lib/gcc/arm-elf/4.3.3/../../../../arm-elf/lib/interwork/libc.a(lib_a-gettzinfo.o)
 .bss           0x10085e6c        0x0 /usr/local/arm-elf-tools/gcc-4.3.3/lib/gcc/arm-elf/4.3.3/../../../../arm-elf/lib/interwork/libc.a(lib_a-isattyr.o)
 .bss           0x10085e6c        0x0 /usr/local/arm-elf-tools/gcc-4.3.3/lib/gcc/arm-elf/4.3.3/../../../../arm-elf/lib/interwork/libc.a(lib_a-iswspace.o)
 .bss           0x10085e6c        0x0 /usr/local/arm-elf-tools/gcc-4.3.3/lib/gcc/arm-elf/4.3.3/../../../../arm-elf/lib/interwork/libc.a(lib_a-labs.o)
 .bss           0x10085e6c        0x0 /usr/local/arm-elf-tools/gcc-4.3.3/lib/gcc/arm-elf/4.3.3/../../../../arm-elf/lib/interwork/libc.a(lib_a-mbrtowc.o)
 .bss           0x10085e6c        0x0 /usr/local/arm-elf-tools/gcc-4.3.3/lib/gcc/arm-elf/4.3.3/../../../../arm-elf/lib/interwork/libc.a(lib_a-mbtowc_r.o)
 .bss           0x10085e6c        0x0 /usr/local/arm-elf-tools/gcc-4.3.3/lib/gcc/arm-elf/4.3.3/../../../../arm-elf/lib/interwork/libc.a(lib_a-mprec.o)
 .bss           0x10085e6c        0x0 /usr/local/arm-elf-tools/gcc-4.3.3/lib/gcc/arm-elf/4.3.3/../../../../arm-elf/lib/interwork/libc.a(lib_a-reent.o)
 .bss           0x10085e6c        0x0 /usr/local/arm-elf-tools/gcc-4.3.3/lib/gcc/arm-elf/4.3.3/../../../../arm-elf/lib/interwork/libc.a(lib_a-sccl.o)
 .bss           0x10085e6c        0x0 /usr/local/arm-elf-tools/gcc-4.3.3/lib/gcc/arm-elf/4.3.3/../../../../arm-elf/lib/interwork/libc.a(lib_a-sf_nan.o)
 .bss           0x10085e6c        0x0 /usr/local/arm-elf-tools/gcc-4.3.3/lib/gcc/arm-elf/4.3.3/../../../../arm-elf/lib/interwork/libc.a(lib_a-s_isinfd.o)
 .bss           0x10085e6c        0x0 /usr/local/arm-elf-tools/gcc-4.3.3/lib/gcc/arm-elf/4.3.3/../../../../arm-elf/lib/interwork/libc.a(lib_a-strtol.o)
 *(COMMON)
 COMMON         0x10085e6c        0x4 ../../core/dynawa/io_isr.o
                0x10085e6c                status
 COMMON         0x10085e70        0x4 ../../core/utils/time.o
                0x10085e70                timeval
 COMMON         0x10085e74        0xc ../../core/screen/screen.o
                0x10085e74                scrscrX2
                0x10085e76                scrscrY2
                0x10085e78                scrscrY1
                0x10085e7a                scrrot
                0x10085e7c                scrscrX1
                0x10085e7e                scrmirror
 COMMON         0x10085e80      0x230 ../../core/screen/font.o
                0x10085e80                fontBuf
 COMMON         0x100860b0      0x118 ../../core/dynawa/serial.o
                0x100860b0                Serial_internals
 COMMON         0x100861c8        0x8 ../../core/dynawa/main.o
                0x100861c8                toggle
                0x100861cc                taskHandles
 COMMON         0x100861d0       0x80 ../../core/dynawa/io.o
                0x100861d0                Io_isrSources
 COMMON         0x10086250       0x38 ../../core/dynawa/timer.o
                0x10086250                timer_manager
 COMMON         0x10086288      0x20c ../../core/sdcard/sdcard.o
                0x10086288                sd_blocksize
                0x1008628c                sd_size
                0x10086290                sd_sectorbuffer
                0x10086490                sd_numsectors
 COMMON         0x10086494        0x4 ../../core/dynawa/bcsp/main.o
                0x10086494                NumberOfHciCommands
 COMMON         0x10086498     0x20a4 ../../core/dynawa/bcsp/abcsp_support_functions.o
                0x10086498                AbcspInstanceData
 COMMON         0x1008853c        0x8 ../../core/dynawa/bcsp/uSched.o
                0x1008853c                bgIntFunction1
                0x10088540                bgIntFunction2
 COMMON         0x10088544        0xc ../../core/lwalkera-lwBT-f64e170/lwbt/hci.o
                0x10088544                hci_tmp_link
                0x10088548                pcb
                0x1008854c                hci_active_links
 COMMON         0x10088550       0x1c ../../core/lwalkera-lwBT-f64e170/lwbt/l2cap.o
                0x10088550                l2cap_insegs
                0x10088554                l2cap_active_pcbs
                0x10088558                sigid_nxt
                0x1008855c                l2cap_tmp_inseg
                0x10088560                l2cap_tmp_pcb
                0x10088564                l2cap_tmp_sig
                0x10088568                l2cap_listen_pcbs
 COMMON         0x1008856c        0xc ../../core/lwalkera-lwBT-f64e170/lwbt/rfcomm.o
                0x1008856c                rfcomm_active_pcbs
                0x10088570                rfcomm_tmp_pcb
                0x10088574                rfcomm_listen_pcbs
 COMMON         0x10088578       0x16 ../../core/lwalkera-lwBT-f64e170/lwbt/sdp.o
                0x10088578                sdp_pcbs
                0x1008857c                rhdl_next
                0x10088580                sdp_tmp_record
                0x10088584                sdp_tmp_pcb
                0x10088588                sdp_server_records
                0x1008858c                tid_next
 *fill*         0x1008858e        0x2 00
 COMMON         0x10088590       0xcc ../../core/lwalkera-lwBT-f64e170/lwip/stats.o
                0x10088590                lwip_stats
 COMMON         0x1008865c       0x11 ../../core/lwalkera-lwBT-f64e170/bt_spp.o
                0x1008865c                bt_spp_state
                0x1008866c                at_state
 COMMON         0x1008866d      0x100 /usr/local/arm-elf-tools/gcc-4.3.3/lib/gcc/arm-elf/4.3.3/../../../../arm-elf/lib/interwork/libc.a(lib_a-gdtoa-gethex.o)
                0x1008866d                __hexdig
 *fill*         0x1008876d        0x3 00
 COMMON         0x10088770        0x4 /usr/local/arm-elf-tools/gcc-4.3.3/lib/gcc/arm-elf/4.3.3/../../../../arm-elf/lib/interwork/libc.a(lib_a-reent.o)
                0x10088770                errno
                0x10088774                . = ALIGN (0x4)
                0x10088774                __bss_end__ = .
                0x10088774                _bss_end__ = __bss_end__
                0x10088774                __end__ = __bss_end__
                0x10088774                _end__ = __end__
                0x10088774                PROVIDE (end, __end__)
                0x10480000                __heap_end__ = 0x10480000

.heap           0x10088774   0x100000
                0x10088774                __heap_start__ = .
 *(.heap)
                0x10188774                . = ((__heap_start__ + __HEAPSIZE__) MAX .)
 *fill*         0x10088774   0x100000 00
                0x10188774                . = ALIGN (0x4)
                0x00000001                . = ASSERT ((__heap_end__ >= (__heap_start__ + 0x8)), error: insufficient free RAM to establish heap for startup code)

.stack_irq      0x00000038      0x200
                0x00000038                __stack_irq_start__ = .
 *(.stack_irq)
                0x00000238                . = ((__stack_irq_start__ + __STACKSIZE_IRQ__) MAX .)
 *fill*         0x00000038      0x200 00
                0x00000238                . = ALIGN (0x4)
                0x00000238                __stack_irq_end__ = .

.stack_fiq      0x00000238      0x200
                0x00000238                __stack_fiq_start__ = .
 *(.stack_fiq)
                0x00000438                . = ((__stack_fiq_start__ + __STACKSIZE_FIQ__) MAX .)
 *fill*         0x00000238      0x200 00
                0x00000438                . = ALIGN (0x4)
                0x00000438                __stack_fiq_end__ = .

.stack_svc      0x00000438      0x100
                0x00000438                __stack_svc_start__ = .
 *(.stack_svc)
                0x00000538                . = ((__stack_svc_start__ + __STACKSIZE_SVC__) MAX .)
 *fill*         0x00000438      0x100 00
                0x00000538                . = ALIGN (0x4)
                0x00000538                __stack_svc_end__ = .

.stack_abt      0x00000538        0x0
                0x00000538                __stack_abt_start__ = .
 *(.stack_abt)
                0x00000538                . = ((__stack_abt_start__ + __STACKSIZE_ABT__) MAX .)
                0x00000538                . = ALIGN (0x4)
                0x00000538                __stack_abt_end__ = .

.stack_und      0x00000538        0x0
                0x00000538                __stack_und_start__ = .
 *(.stack_und)
                0x00000538                . = ((__stack_und_start__ + __STACKSIZE_UND__) MAX .)
                0x00000538                . = ALIGN (0x4)
                0x00000538                __stack_und_end__ = .
OUTPUT(output/lua.elf elf32-littlearm)

.comment        0x00000000     0x18f6
 .comment       0x00000000       0x12 ../../core/freertos/portable/GCC/ARM7_AT91SAM7S/portISR.o
 .comment       0x00000012       0x12 ../../core/usb/device/core/USBD_UDP.o
 .comment       0x00000024       0x12 ../../core/usb/device/core/USBD_OTGHS.o
 .comment       0x00000036       0x12 ../../core/usb/device/core/USBD_UDPHS.o
 .comment       0x00000048       0x12 ../../core/dynawa/serial_isr.o
 .comment       0x0000005a       0x12 ../../core/dynawa/button.o
 .comment       0x0000006c       0x12 ../../core/dynawa/timer_isr.o
 .comment       0x0000007e       0x12 ../../core/dynawa/io_isr.o
 .comment       0x00000090       0x12 ../../core/startup/extras.o
 .comment       0x000000a2       0x12 ../../core/freertos/tasks.o
 .comment       0x000000b4       0x12 ../../core/freertos/queue.o
 .comment       0x000000c6       0x12 ../../core/freertos/list.o
 .comment       0x000000d8       0x12 ../../core/freertos/portable/GCC/ARM7_AT91SAM7S/port.o
 .comment       0x000000ea       0x12 ../../core/freertos/portable/MemMang/heap_3.o
 .comment       0x000000fc       0x12 ../../core/usb/common/cdc/CDCSetControlLineStateRequest.o
 .comment       0x0000010e       0x12 ../../core/usb/common/cdc/CDCLineCoding.o
 .comment       0x00000120       0x12 ../../core/usb/device/cdc-serial/CDCDSerialDriver.o
 .comment       0x00000132       0x12 ../../core/usb/device/cdc-serial/CDCDSerialDriverDescriptors.o
 .comment       0x00000144       0x12 ../../core/usb/device/core/USBDCallbacks_Resumed.o
 .comment       0x00000156       0x12 ../../core/usb/device/core/USBDCallbacks_Suspended.o
 .comment       0x00000168       0x12 ../../core/usb/device/core/USBDDriverCb_CfgChanged.o
 .comment       0x0000017a       0x12 ../../core/usb/device/core/USBDDriverCb_IfSettingChanged.o
 .comment       0x0000018c       0x12 ../../core/usb/device/core/USBDCallbacks_Initialized.o
 .comment       0x0000019e       0x12 ../../core/usb/device/core/USBDCallbacks_Reset.o
 .comment       0x000001b0       0x12 ../../core/usb/device/core/USBDDriver.o
 .comment       0x000001c2       0x12 ../../core/usb/common/core/USBSetAddressRequest.o
 .comment       0x000001d4       0x12 ../../core/usb/common/core/USBGenericDescriptor.o
 .comment       0x000001e6       0x12 ../../core/usb/common/core/USBGenericRequest.o
 .comment       0x000001f8       0x12 ../../core/usb/common/core/USBGetDescriptorRequest.o
 .comment       0x0000020a       0x12 ../../core/usb/common/core/USBSetConfigurationRequest.o
 .comment       0x0000021c       0x12 ../../core/usb/common/core/USBFeatureRequest.o
 .comment       0x0000022e       0x12 ../../core/usb/common/core/USBEndpointDescriptor.o
 .comment       0x00000240       0x12 ../../core/usb/common/core/USBConfigurationDescriptor.o
 .comment       0x00000252       0x12 ../../core/usb/common/core/USBInterfaceRequest.o
 .comment       0x00000264       0x12 ../../core/utils/rprintf.o
 .comment       0x00000276       0x12 ../../core/utils/time.o
 .comment       0x00000288       0x12 ../../core/utils/delay.o
 .comment       0x0000029a       0x12 ../../core/screen/screen.o
 .comment       0x000002ac       0x12 ../../core/screen/font.o
 .comment       0x000002be       0x12 ../../core/lua-5.1.4/src/lapi.o
 .comment       0x000002d0       0x12 ../../core/lua-5.1.4/src/lauxlib.o
 .comment       0x000002e2       0x12 ../../core/lua-5.1.4/src/lbaselib.o
 .comment       0x000002f4       0x12 ../../core/lua-5.1.4/src/lcode.o
 .comment       0x00000306       0x12 ../../core/lua-5.1.4/src/ldblib.o
 .comment       0x00000318       0x12 ../../core/lua-5.1.4/src/ldebug.o
 .comment       0x0000032a       0x12 ../../core/lua-5.1.4/src/ldo.o
 .comment       0x0000033c       0x12 ../../core/lua-5.1.4/src/ldump.o
 .comment       0x0000034e       0x12 ../../core/lua-5.1.4/src/lfunc.o
 .comment       0x00000360       0x12 ../../core/lua-5.1.4/src/lgc.o
 .comment       0x00000372       0x12 ../../core/lua-5.1.4/src/linit.o
 .comment       0x00000384       0x12 ../../core/lua-5.1.4/src/liolib.o
 .comment       0x00000396       0x12 ../../core/lua-5.1.4/src/llex.o
 .comment       0x000003a8       0x12 ../../core/lua-5.1.4/src/lmathlib.o
 .comment       0x000003ba       0x12 ../../core/lua-5.1.4/src/lmem.o
 .comment       0x000003cc       0x12 ../../core/lua-5.1.4/src/loadlib.o
 .comment       0x000003de       0x12 ../../core/lua-5.1.4/src/lobject.o
 .comment       0x000003f0       0x12 ../../core/lua-5.1.4/src/lopcodes.o
 .comment       0x00000402       0x12 ../../core/lua-5.1.4/src/loslib.o
 .comment       0x00000414       0x12 ../../core/lua-5.1.4/src/lparser.o
 .comment       0x00000426       0x12 ../../core/lua-5.1.4/src/lstate.o
 .comment       0x00000438       0x12 ../../core/lua-5.1.4/src/lstring.o
 .comment       0x0000044a       0x12 ../../core/lua-5.1.4/src/lstrlib.o
 .comment       0x0000045c       0x12 ../../core/lua-5.1.4/src/ltable.o
 .comment       0x0000046e       0x12 ../../core/lua-5.1.4/src/ltablib.o
 .comment       0x00000480       0x12 ../../core/lua-5.1.4/src/ltm.o
 .comment       0x00000492       0x12 ../../core/lua-5.1.4/src/lundump.o
 .comment       0x000004a4       0x12 ../../core/lua-5.1.4/src/lvm.o
 .comment       0x000004b6       0x12 ../../core/lua-5.1.4/src/lzio.o
 .comment       0x000004c8       0x12 ../../core/lua-5.1.4/src/print.o
 .comment       0x000004da       0x12 ../../core/dynawa/rtos.o
 .comment       0x000004ec       0x12 ../../core/dynawa/usbserial.o
 .comment       0x000004fe       0x12 ../../core/dynawa/serial.o
 .comment       0x00000510       0x12 ../../core/dynawa/main.o
 .comment       0x00000522       0x12 ../../core/dynawa/io.o
 .comment       0x00000534       0x12 ../../core/dynawa/led.o
 .comment       0x00000546       0x12 ../../core/dynawa/lua/lua.o
 .comment       0x00000558       0x12 ../../core/dynawa/lua/lua_isr.o
 .comment       0x0000056a       0x12 ../../core/dynawa/lua/lib_dynawa.o
 .comment       0x0000057c       0x12 ../../core/dynawa/lua/lib_dynawa_timer.o
 .comment       0x0000058e       0x12 ../../core/dynawa/lua/lib_dynawa_bitmap.o
 .comment       0x000005a0       0x12 ../../core/dynawa/event.o
 .comment       0x000005b2       0x12 ../../core/dynawa/timer.o
 .comment       0x000005c4       0x12 ../../core/dynawa/bitmap.o
 .comment       0x000005d6       0x12 ../../core/sdcard/sdcard.o
 .comment       0x000005e8       0x12 ../../core/dynawa/fat.o
 .comment       0x000005fa       0x12 ../../core/fatfs-0.07/src/option/ccsbcs.o
 .comment       0x0000060c       0x12 ../../core/fatfs-0.07/src/diskio.o
 .comment       0x0000061e       0x12 ../../core/fatfs-0.07/src/ff.o
 .comment       0x00000630       0x12 ../../core/monitor/args.o
 .comment       0x00000642       0x12 ../../core/monitor/argsdispatch.o
 .comment       0x00000654       0x12 ../../core/monitor/monitor.o
 .comment       0x00000666       0x12 ../../core/yabcsp/src/crc.o
 .comment       0x00000678       0x12 ../../core/yabcsp/src/init.o
 .comment       0x0000068a       0x12 ../../core/yabcsp/src/le.o
 .comment       0x0000069c       0x12 ../../core/yabcsp/src/rx.o
 .comment       0x000006ae       0x12 ../../core/yabcsp/src/txmsg.o
 .comment       0x000006c0       0x12 ../../core/yabcsp/src/txslip.o
 .comment       0x000006d2       0x12 ../../core/dynawa/bcsp/main.o
 .comment       0x000006e4       0x12 ../../core/dynawa/bcsp/abcsp_support_functions.o
 .comment       0x000006f6       0x12 ../../core/dynawa/bcsp/uSched.o
 .comment       0x00000708       0x12 ../../core/dynawa/bcsp/SerialCom.o
 .comment       0x0000071a       0x12 ../../core/peripherals/serial.o
 .comment       0x0000072c       0x12 ../../core/peripherals/oled/oled.o
 .comment       0x0000073e       0x12 ../../core/peripherals/spi.o
 .comment       0x00000750       0x12 ../../core/peripherals/pmc/pmc.o
 .comment       0x00000762       0x12 ../../core/peripherals/usart/usart.o
 .comment       0x00000774       0x12 ../../core/peripherals/aic/aic.o
 .comment       0x00000786       0x12 ../../core/peripherals/pio/pio.o
 .comment       0x00000798       0x12 ../../core/peripherals/rtc.o
 .comment       0x000007aa       0x12 ../../core/peripherals/i2c.o
 .comment       0x000007bc       0x12 ../../core/peripherals/accel.o
 .comment       0x000007ce       0x12 ../../core/peripherals/gasgauge.o
 .comment       0x000007e0       0x12 ../../core/peripherals/amblightsensor.o
 .comment       0x000007f2       0x12 ../../core/peripherals/ledrgb.o
 .comment       0x00000804       0x12 ../../core/lua-5.1.4/src/lnum.o
 .comment       0x00000816       0x12 ../../core/lwalkera-lwBT-f64e170/lwbt/fcs.o
 .comment       0x00000828       0x12 ../../core/lwalkera-lwBT-f64e170/lwbt/hci.o
 .comment       0x0000083a       0x12 ../../core/lwalkera-lwBT-f64e170/lwbt/l2cap.o
 .comment       0x0000084c       0x12 ../../core/lwalkera-lwBT-f64e170/lwbt/lwbt_memp.o
 .comment       0x0000085e       0x12 ../../core/lwalkera-lwBT-f64e170/lwbt/rfcomm.o
 .comment       0x00000870       0x12 ../../core/lwalkera-lwBT-f64e170/lwbt/sdp.o
 .comment       0x00000882       0x12 ../../core/lwalkera-lwBT-f64e170/lwip/inet.o
 .comment       0x00000894       0x12 ../../core/lwalkera-lwBT-f64e170/lwip/memp.o
 .comment       0x000008a6       0x12 ../../core/lwalkera-lwBT-f64e170/lwip/pbuf.o
 .comment       0x000008b8       0x12 ../../core/lwalkera-lwBT-f64e170/lwip/stats.o
 .comment       0x000008ca       0x12 ../../core/lwalkera-lwBT-f64e170/bt_spp.o
 .comment       0x000008dc       0x12 ../../libraries/zlib-1.2.3/adler32.o
 .comment       0x000008ee       0x12 ../../libraries/zlib-1.2.3/compress.o
 .comment       0x00000900       0x12 ../../libraries/zlib-1.2.3/crc32.o
 .comment       0x00000912       0x12 ../../libraries/zlib-1.2.3/gzio.o
 .comment       0x00000924       0x12 ../../libraries/zlib-1.2.3/uncompr.o
 .comment       0x00000936       0x12 ../../libraries/zlib-1.2.3/deflate.o
 .comment       0x00000948       0x12 ../../libraries/zlib-1.2.3/trees.o
 .comment       0x0000095a       0x12 ../../libraries/zlib-1.2.3/zutil.o
 .comment       0x0000096c       0x12 ../../libraries/zlib-1.2.3/inflate.o
 .comment       0x0000097e       0x12 ../../libraries/zlib-1.2.3/infback.o
 .comment       0x00000990       0x12 ../../libraries/zlib-1.2.3/inftrees.o
 .comment       0x000009a2       0x12 ../../libraries/zlib-1.2.3/inffast.o
 .comment       0x000009b4       0x12 ../../libraries/libpng-1.4.0/png.o
 .comment       0x000009c6       0x12 ../../libraries/libpng-1.4.0/pngerror.o
 .comment       0x000009d8       0x12 ../../libraries/libpng-1.4.0/pngget.o
 .comment       0x000009ea       0x12 ../../libraries/libpng-1.4.0/pngmem.o
 .comment       0x000009fc       0x12 ../../libraries/libpng-1.4.0/pngpread.o
 .comment       0x00000a0e       0x12 ../../libraries/libpng-1.4.0/pngread.o
 .comment       0x00000a20       0x12 ../../libraries/libpng-1.4.0/pngrio.o
 .comment       0x00000a32       0x12 ../../libraries/libpng-1.4.0/pngrtran.o
 .comment       0x00000a44       0x12 ../../libraries/libpng-1.4.0/pngrutil.o
 .comment       0x00000a56       0x12 ../../libraries/libpng-1.4.0/pngset.o
 .comment       0x00000a68       0x12 ../../libraries/libpng-1.4.0/pngtrans.o
 .comment       0x00000a7a       0x12 ../../libraries/libpng-1.4.0/pngwio.o
 .comment       0x00000a8c       0x12 ../../libraries/libpng-1.4.0/pngwrite.o
 .comment       0x00000a9e       0x12 ../../libraries/libpng-1.4.0/pngwtran.o
 .comment       0x00000ab0       0x12 ../../libraries/libpng-1.4.0/pngwutil.o
 .comment       0x00000ac2       0x12 ../../core/dynawa/png.o
 .comment       0x00000ad4       0x12 image.o
 .comment       0x00000ae6       0x12 /usr/local/arm-elf-tools/gcc-4.3.3/lib/gcc/arm-elf/4.3.3/../../../../arm-elf/lib/interwork/libm.a(lib_a-s_atan.o)
 .comment       0x00000af8       0x12 /usr/local/arm-elf-tools/gcc-4.3.3/lib/gcc/arm-elf/4.3.3/../../../../arm-elf/lib/interwork/libm.a(lib_a-s_ceil.o)
 .comment       0x00000b0a       0x12 /usr/local/arm-elf-tools/gcc-4.3.3/lib/gcc/arm-elf/4.3.3/../../../../arm-elf/lib/interwork/libm.a(lib_a-s_cos.o)
 .comment       0x00000b1c       0x12 /usr/local/arm-elf-tools/gcc-4.3.3/lib/gcc/arm-elf/4.3.3/../../../../arm-elf/lib/interwork/libm.a(lib_a-s_fabs.o)
 .comment       0x00000b2e       0x12 /usr/local/arm-elf-tools/gcc-4.3.3/lib/gcc/arm-elf/4.3.3/../../../../arm-elf/lib/interwork/libm.a(lib_a-s_floor.o)
 .comment       0x00000b40       0x12 /usr/local/arm-elf-tools/gcc-4.3.3/lib/gcc/arm-elf/4.3.3/../../../../arm-elf/lib/interwork/libm.a(lib_a-s_frexp.o)
 .comment       0x00000b52       0x12 /usr/local/arm-elf-tools/gcc-4.3.3/lib/gcc/arm-elf/4.3.3/../../../../arm-elf/lib/interwork/libm.a(lib_a-s_ldexp.o)
 .comment       0x00000b64       0x12 /usr/local/arm-elf-tools/gcc-4.3.3/lib/gcc/arm-elf/4.3.3/../../../../arm-elf/lib/interwork/libm.a(lib_a-s_modf.o)
 .comment       0x00000b76       0x12 /usr/local/arm-elf-tools/gcc-4.3.3/lib/gcc/arm-elf/4.3.3/../../../../arm-elf/lib/interwork/libm.a(lib_a-s_scalbn.o)
 .comment       0x00000b88       0x12 /usr/local/arm-elf-tools/gcc-4.3.3/lib/gcc/arm-elf/4.3.3/../../../../arm-elf/lib/interwork/libm.a(lib_a-s_sin.o)
 .comment       0x00000b9a       0x12 /usr/local/arm-elf-tools/gcc-4.3.3/lib/gcc/arm-elf/4.3.3/../../../../arm-elf/lib/interwork/libm.a(lib_a-s_tanh.o)
 .comment       0x00000bac       0x12 /usr/local/arm-elf-tools/gcc-4.3.3/lib/gcc/arm-elf/4.3.3/../../../../arm-elf/lib/interwork/libm.a(lib_a-s_tan.o)
 .comment       0x00000bbe       0x12 /usr/local/arm-elf-tools/gcc-4.3.3/lib/gcc/arm-elf/4.3.3/../../../../arm-elf/lib/interwork/libm.a(lib_a-w_acos.o)
 .comment       0x00000bd0       0x12 /usr/local/arm-elf-tools/gcc-4.3.3/lib/gcc/arm-elf/4.3.3/../../../../arm-elf/lib/interwork/libm.a(lib_a-w_asin.o)
 .comment       0x00000be2       0x12 /usr/local/arm-elf-tools/gcc-4.3.3/lib/gcc/arm-elf/4.3.3/../../../../arm-elf/lib/interwork/libm.a(lib_a-w_atan2.o)
 .comment       0x00000bf4       0x12 /usr/local/arm-elf-tools/gcc-4.3.3/lib/gcc/arm-elf/4.3.3/../../../../arm-elf/lib/interwork/libm.a(lib_a-w_cosh.o)
 .comment       0x00000c06       0x12 /usr/local/arm-elf-tools/gcc-4.3.3/lib/gcc/arm-elf/4.3.3/../../../../arm-elf/lib/interwork/libm.a(lib_a-w_exp.o)
 .comment       0x00000c18       0x12 /usr/local/arm-elf-tools/gcc-4.3.3/lib/gcc/arm-elf/4.3.3/../../../../arm-elf/lib/interwork/libm.a(lib_a-w_fmod.o)
 .comment       0x00000c2a       0x12 /usr/local/arm-elf-tools/gcc-4.3.3/lib/gcc/arm-elf/4.3.3/../../../../arm-elf/lib/interwork/libm.a(lib_a-w_log10.o)
 .comment       0x00000c3c       0x12 /usr/local/arm-elf-tools/gcc-4.3.3/lib/gcc/arm-elf/4.3.3/../../../../arm-elf/lib/interwork/libm.a(lib_a-w_log.o)
 .comment       0x00000c4e       0x12 /usr/local/arm-elf-tools/gcc-4.3.3/lib/gcc/arm-elf/4.3.3/../../../../arm-elf/lib/interwork/libm.a(lib_a-w_pow.o)
 .comment       0x00000c60       0x12 /usr/local/arm-elf-tools/gcc-4.3.3/lib/gcc/arm-elf/4.3.3/../../../../arm-elf/lib/interwork/libm.a(lib_a-w_sinh.o)
 .comment       0x00000c72       0x12 /usr/local/arm-elf-tools/gcc-4.3.3/lib/gcc/arm-elf/4.3.3/../../../../arm-elf/lib/interwork/libm.a(lib_a-w_sqrt.o)
 .comment       0x00000c84       0x12 /usr/local/arm-elf-tools/gcc-4.3.3/lib/gcc/arm-elf/4.3.3/../../../../arm-elf/lib/interwork/libm.a(lib_a-e_acos.o)
 .comment       0x00000c96       0x12 /usr/local/arm-elf-tools/gcc-4.3.3/lib/gcc/arm-elf/4.3.3/../../../../arm-elf/lib/interwork/libm.a(lib_a-e_asin.o)
 .comment       0x00000ca8       0x12 /usr/local/arm-elf-tools/gcc-4.3.3/lib/gcc/arm-elf/4.3.3/../../../../arm-elf/lib/interwork/libm.a(lib_a-e_atan2.o)
 .comment       0x00000cba       0x12 /usr/local/arm-elf-tools/gcc-4.3.3/lib/gcc/arm-elf/4.3.3/../../../../arm-elf/lib/interwork/libm.a(lib_a-e_cosh.o)
 .comment       0x00000ccc       0x12 /usr/local/arm-elf-tools/gcc-4.3.3/lib/gcc/arm-elf/4.3.3/../../../../arm-elf/lib/interwork/libm.a(lib_a-e_exp.o)
 .comment       0x00000cde       0x12 /usr/local/arm-elf-tools/gcc-4.3.3/lib/gcc/arm-elf/4.3.3/../../../../arm-elf/lib/interwork/libm.a(lib_a-e_fmod.o)
 .comment       0x00000cf0       0x12 /usr/local/arm-elf-tools/gcc-4.3.3/lib/gcc/arm-elf/4.3.3/../../../../arm-elf/lib/interwork/libm.a(lib_a-e_log10.o)
 .comment       0x00000d02       0x12 /usr/local/arm-elf-tools/gcc-4.3.3/lib/gcc/arm-elf/4.3.3/../../../../arm-elf/lib/interwork/libm.a(lib_a-e_log.o)
 .comment       0x00000d14       0x12 /usr/local/arm-elf-tools/gcc-4.3.3/lib/gcc/arm-elf/4.3.3/../../../../arm-elf/lib/interwork/libm.a(lib_a-e_pow.o)
 .comment       0x00000d26       0x12 /usr/local/arm-elf-tools/gcc-4.3.3/lib/gcc/arm-elf/4.3.3/../../../../arm-elf/lib/interwork/libm.a(lib_a-e_rem_pio2.o)
 .comment       0x00000d38       0x12 /usr/local/arm-elf-tools/gcc-4.3.3/lib/gcc/arm-elf/4.3.3/../../../../arm-elf/lib/interwork/libm.a(lib_a-e_sinh.o)
 .comment       0x00000d4a       0x12 /usr/local/arm-elf-tools/gcc-4.3.3/lib/gcc/arm-elf/4.3.3/../../../../arm-elf/lib/interwork/libm.a(lib_a-e_sqrt.o)
 .comment       0x00000d5c       0x12 /usr/local/arm-elf-tools/gcc-4.3.3/lib/gcc/arm-elf/4.3.3/../../../../arm-elf/lib/interwork/libm.a(lib_a-k_cos.o)
 .comment       0x00000d6e       0x12 /usr/local/arm-elf-tools/gcc-4.3.3/lib/gcc/arm-elf/4.3.3/../../../../arm-elf/lib/interwork/libm.a(lib_a-k_rem_pio2.o)
 .comment       0x00000d80       0x12 /usr/local/arm-elf-tools/gcc-4.3.3/lib/gcc/arm-elf/4.3.3/../../../../arm-elf/lib/interwork/libm.a(lib_a-k_sin.o)
 .comment       0x00000d92       0x12 /usr/local/arm-elf-tools/gcc-4.3.3/lib/gcc/arm-elf/4.3.3/../../../../arm-elf/lib/interwork/libm.a(lib_a-k_tan.o)
 .comment       0x00000da4       0x12 /usr/local/arm-elf-tools/gcc-4.3.3/lib/gcc/arm-elf/4.3.3/../../../../arm-elf/lib/interwork/libm.a(lib_a-s_copysign.o)
 .comment       0x00000db6       0x12 /usr/local/arm-elf-tools/gcc-4.3.3/lib/gcc/arm-elf/4.3.3/../../../../arm-elf/lib/interwork/libm.a(lib_a-s_expm1.o)
 .comment       0x00000dc8       0x12 /usr/local/arm-elf-tools/gcc-4.3.3/lib/gcc/arm-elf/4.3.3/../../../../arm-elf/lib/interwork/libm.a(lib_a-s_finite.o)
 .comment       0x00000dda       0x12 /usr/local/arm-elf-tools/gcc-4.3.3/lib/gcc/arm-elf/4.3.3/../../../../arm-elf/lib/interwork/libm.a(lib_a-s_isnand.o)
 .comment       0x00000dec       0x12 /usr/local/arm-elf-tools/gcc-4.3.3/lib/gcc/arm-elf/4.3.3/../../../../arm-elf/lib/interwork/libm.a(lib_a-s_lib_ver.o)
 .comment       0x00000dfe       0x12 /usr/local/arm-elf-tools/gcc-4.3.3/lib/gcc/arm-elf/4.3.3/../../../../arm-elf/lib/interwork/libm.a(lib_a-s_matherr.o)
 .comment       0x00000e10       0x12 /usr/local/arm-elf-tools/gcc-4.3.3/lib/gcc/arm-elf/4.3.3/../../../../arm-elf/lib/interwork/libm.a(lib_a-s_nan.o)
 .comment       0x00000e22       0x12 /usr/local/arm-elf-tools/gcc-4.3.3/lib/gcc/arm-elf/4.3.3/../../../../arm-elf/lib/interwork/libm.a(lib_a-s_rint.o)
 .comment       0x00000e34       0x12 /usr/local/arm-elf-tools/gcc-4.3.3/lib/gcc/arm-elf/4.3.3/interwork/libgcc.a(_fixunsdfsi.o)
 .comment       0x00000e46       0x12 /usr/local/arm-elf-tools/gcc-4.3.3/lib/gcc/arm-elf/4.3.3/interwork/libgcc.a(_mul_sf.o)
 .comment       0x00000e58       0x12 /usr/local/arm-elf-tools/gcc-4.3.3/lib/gcc/arm-elf/4.3.3/interwork/libgcc.a(_div_sf.o)
 .comment       0x00000e6a       0x12 /usr/local/arm-elf-tools/gcc-4.3.3/lib/gcc/arm-elf/4.3.3/interwork/libgcc.a(_eq_sf.o)
 .comment       0x00000e7c       0x12 /usr/local/arm-elf-tools/gcc-4.3.3/lib/gcc/arm-elf/4.3.3/interwork/libgcc.a(_si_to_sf.o)
 .comment       0x00000e8e       0x12 /usr/local/arm-elf-tools/gcc-4.3.3/lib/gcc/arm-elf/4.3.3/interwork/libgcc.a(_sf_to_df.o)
 .comment       0x00000ea0       0x12 /usr/local/arm-elf-tools/gcc-4.3.3/lib/gcc/arm-elf/4.3.3/interwork/libgcc.a(_thenan_sf.o)
 .comment       0x00000eb2       0x12 /usr/local/arm-elf-tools/gcc-4.3.3/lib/gcc/arm-elf/4.3.3/interwork/libgcc.a(_usi_to_sf.o)
 .comment       0x00000ec4       0x12 /usr/local/arm-elf-tools/gcc-4.3.3/lib/gcc/arm-elf/4.3.3/interwork/libgcc.a(_addsub_df.o)
 .comment       0x00000ed6       0x12 /usr/local/arm-elf-tools/gcc-4.3.3/lib/gcc/arm-elf/4.3.3/interwork/libgcc.a(_mul_df.o)
 .comment       0x00000ee8       0x12 /usr/local/arm-elf-tools/gcc-4.3.3/lib/gcc/arm-elf/4.3.3/interwork/libgcc.a(_div_df.o)
 .comment       0x00000efa       0x12 /usr/local/arm-elf-tools/gcc-4.3.3/lib/gcc/arm-elf/4.3.3/interwork/libgcc.a(_eq_df.o)
 .comment       0x00000f0c       0x12 /usr/local/arm-elf-tools/gcc-4.3.3/lib/gcc/arm-elf/4.3.3/interwork/libgcc.a(_ne_df.o)
 .comment       0x00000f1e       0x12 /usr/local/arm-elf-tools/gcc-4.3.3/lib/gcc/arm-elf/4.3.3/interwork/libgcc.a(_gt_df.o)
 .comment       0x00000f30       0x12 /usr/local/arm-elf-tools/gcc-4.3.3/lib/gcc/arm-elf/4.3.3/interwork/libgcc.a(_ge_df.o)
 .comment       0x00000f42       0x12 /usr/local/arm-elf-tools/gcc-4.3.3/lib/gcc/arm-elf/4.3.3/interwork/libgcc.a(_lt_df.o)
 .comment       0x00000f54       0x12 /usr/local/arm-elf-tools/gcc-4.3.3/lib/gcc/arm-elf/4.3.3/interwork/libgcc.a(_le_df.o)
 .comment       0x00000f66       0x12 /usr/local/arm-elf-tools/gcc-4.3.3/lib/gcc/arm-elf/4.3.3/interwork/libgcc.a(_si_to_df.o)
 .comment       0x00000f78       0x12 /usr/local/arm-elf-tools/gcc-4.3.3/lib/gcc/arm-elf/4.3.3/interwork/libgcc.a(_df_to_si.o)
 .comment       0x00000f8a       0x12 /usr/local/arm-elf-tools/gcc-4.3.3/lib/gcc/arm-elf/4.3.3/interwork/libgcc.a(_make_df.o)
 .comment       0x00000f9c       0x12 /usr/local/arm-elf-tools/gcc-4.3.3/lib/gcc/arm-elf/4.3.3/interwork/libgcc.a(_df_to_sf.o)
 .comment       0x00000fae       0x12 /usr/local/arm-elf-tools/gcc-4.3.3/lib/gcc/arm-elf/4.3.3/interwork/libgcc.a(_thenan_df.o)
 .comment       0x00000fc0       0x12 /usr/local/arm-elf-tools/gcc-4.3.3/lib/gcc/arm-elf/4.3.3/interwork/libgcc.a(_usi_to_df.o)
 .comment       0x00000fd2       0x12 /usr/local/arm-elf-tools/gcc-4.3.3/lib/gcc/arm-elf/4.3.3/interwork/libgcc.a(_ucmpdi2.o)
 .comment       0x00000fe4       0x12 /usr/local/arm-elf-tools/gcc-4.3.3/lib/gcc/arm-elf/4.3.3/interwork/libgcc.a(_clzsi2.o)
 .comment       0x00000ff6       0x12 /usr/local/arm-elf-tools/gcc-4.3.3/lib/gcc/arm-elf/4.3.3/interwork/libgcc.a(_pack_sf.o)
 .comment       0x00001008       0x12 /usr/local/arm-elf-tools/gcc-4.3.3/lib/gcc/arm-elf/4.3.3/interwork/libgcc.a(_unpack_sf.o)
 .comment       0x0000101a       0x12 /usr/local/arm-elf-tools/gcc-4.3.3/lib/gcc/arm-elf/4.3.3/interwork/libgcc.a(_fpcmp_parts_sf.o)
 .comment       0x0000102c       0x12 /usr/local/arm-elf-tools/gcc-4.3.3/lib/gcc/arm-elf/4.3.3/interwork/libgcc.a(_make_sf.o)
 .comment       0x0000103e       0x12 /usr/local/arm-elf-tools/gcc-4.3.3/lib/gcc/arm-elf/4.3.3/interwork/libgcc.a(_pack_df.o)
 .comment       0x00001050       0x12 /usr/local/arm-elf-tools/gcc-4.3.3/lib/gcc/arm-elf/4.3.3/interwork/libgcc.a(_unpack_df.o)
 .comment       0x00001062       0x12 /usr/local/arm-elf-tools/gcc-4.3.3/lib/gcc/arm-elf/4.3.3/interwork/libgcc.a(_fpcmp_parts_df.o)
 .comment       0x00001074       0x12 /usr/local/arm-elf-tools/gcc-4.3.3/lib/gcc/arm-elf/4.3.3/interwork/libgcc.a(_clz.o)
 .comment       0x00001086       0x12 /usr/local/arm-elf-tools/gcc-4.3.3/lib/gcc/arm-elf/4.3.3/../../../../arm-elf/lib/interwork/libc.a(lib_a-abort.o)
 .comment       0x00001098       0x12 /usr/local/arm-elf-tools/gcc-4.3.3/lib/gcc/arm-elf/4.3.3/../../../../arm-elf/lib/interwork/libc.a(lib_a-calloc.o)
 .comment       0x000010aa       0x12 /usr/local/arm-elf-tools/gcc-4.3.3/lib/gcc/arm-elf/4.3.3/../../../../arm-elf/lib/interwork/libc.a(lib_a-callocr.o)
 .comment       0x000010bc       0x12 /usr/local/arm-elf-tools/gcc-4.3.3/lib/gcc/arm-elf/4.3.3/../../../../arm-elf/lib/interwork/libc.a(lib_a-clock.o)
 .comment       0x000010ce       0x12 /usr/local/arm-elf-tools/gcc-4.3.3/lib/gcc/arm-elf/4.3.3/../../../../arm-elf/lib/interwork/libc.a(lib_a-ctype_.o)
 .comment       0x000010e0       0x12 /usr/local/arm-elf-tools/gcc-4.3.3/lib/gcc/arm-elf/4.3.3/../../../../arm-elf/lib/interwork/libc.a(lib_a-difftime.o)
 .comment       0x000010f2       0x12 /usr/local/arm-elf-tools/gcc-4.3.3/lib/gcc/arm-elf/4.3.3/../../../../arm-elf/lib/interwork/libc.a(lib_a-errno.o)
 .comment       0x00001104       0x12 /usr/local/arm-elf-tools/gcc-4.3.3/lib/gcc/arm-elf/4.3.3/../../../../arm-elf/lib/interwork/libc.a(lib_a-exit.o)
 .comment       0x00001116       0x12 /usr/local/arm-elf-tools/gcc-4.3.3/lib/gcc/arm-elf/4.3.3/../../../../arm-elf/lib/interwork/libc.a(lib_a-fclose.o)
 .comment       0x00001128       0x12 /usr/local/arm-elf-tools/gcc-4.3.3/lib/gcc/arm-elf/4.3.3/../../../../arm-elf/lib/interwork/libc.a(lib_a-fdopen.o)
 .comment       0x0000113a       0x12 /usr/local/arm-elf-tools/gcc-4.3.3/lib/gcc/arm-elf/4.3.3/../../../../arm-elf/lib/interwork/libc.a(lib_a-fflush.o)
 .comment       0x0000114c       0x12 /usr/local/arm-elf-tools/gcc-4.3.3/lib/gcc/arm-elf/4.3.3/../../../../arm-elf/lib/interwork/libc.a(lib_a-fgets.o)
 .comment       0x0000115e       0x12 /usr/local/arm-elf-tools/gcc-4.3.3/lib/gcc/arm-elf/4.3.3/../../../../arm-elf/lib/interwork/libc.a(lib_a-fileno.o)
 .comment       0x00001170       0x12 /usr/local/arm-elf-tools/gcc-4.3.3/lib/gcc/arm-elf/4.3.3/../../../../arm-elf/lib/interwork/libc.a(lib_a-findfp.o)
 .comment       0x00001182       0x12 /usr/local/arm-elf-tools/gcc-4.3.3/lib/gcc/arm-elf/4.3.3/../../../../arm-elf/lib/interwork/libc.a(lib_a-flags.o)
 .comment       0x00001194       0x12 /usr/local/arm-elf-tools/gcc-4.3.3/lib/gcc/arm-elf/4.3.3/../../../../arm-elf/lib/interwork/libc.a(lib_a-fopen.o)
 .comment       0x000011a6       0x12 /usr/local/arm-elf-tools/gcc-4.3.3/lib/gcc/arm-elf/4.3.3/../../../../arm-elf/lib/interwork/libc.a(lib_a-fprintf.o)
 .comment       0x000011b8       0x12 /usr/local/arm-elf-tools/gcc-4.3.3/lib/gcc/arm-elf/4.3.3/../../../../arm-elf/lib/interwork/libc.a(lib_a-fputc.o)
 .comment       0x000011ca       0x12 /usr/local/arm-elf-tools/gcc-4.3.3/lib/gcc/arm-elf/4.3.3/../../../../arm-elf/lib/interwork/libc.a(lib_a-fputs.o)
 .comment       0x000011dc       0x12 /usr/local/arm-elf-tools/gcc-4.3.3/lib/gcc/arm-elf/4.3.3/../../../../arm-elf/lib/interwork/libc.a(lib_a-fread.o)
 .comment       0x000011ee       0x12 /usr/local/arm-elf-tools/gcc-4.3.3/lib/gcc/arm-elf/4.3.3/../../../../arm-elf/lib/interwork/libc.a(lib_a-freer.o)
 .comment       0x00001200       0x12 /usr/local/arm-elf-tools/gcc-4.3.3/lib/gcc/arm-elf/4.3.3/../../../../arm-elf/lib/interwork/libc.a(lib_a-freopen.o)
 .comment       0x00001212       0x12 /usr/local/arm-elf-tools/gcc-4.3.3/lib/gcc/arm-elf/4.3.3/../../../../arm-elf/lib/interwork/libc.a(lib_a-fscanf.o)
 .comment       0x00001224       0x12 /usr/local/arm-elf-tools/gcc-4.3.3/lib/gcc/arm-elf/4.3.3/../../../../arm-elf/lib/interwork/libc.a(lib_a-fseek.o)
 .comment       0x00001236       0x12 /usr/local/arm-elf-tools/gcc-4.3.3/lib/gcc/arm-elf/4.3.3/../../../../arm-elf/lib/interwork/libc.a(lib_a-ftell.o)
 .comment       0x00001248       0x12 /usr/local/arm-elf-tools/gcc-4.3.3/lib/gcc/arm-elf/4.3.3/../../../../arm-elf/lib/interwork/libc.a(lib_a-fvwrite.o)
 .comment       0x0000125a       0x12 /usr/local/arm-elf-tools/gcc-4.3.3/lib/gcc/arm-elf/4.3.3/../../../../arm-elf/lib/interwork/libc.a(lib_a-fwalk.o)
 .comment       0x0000126c       0x12 /usr/local/arm-elf-tools/gcc-4.3.3/lib/gcc/arm-elf/4.3.3/../../../../arm-elf/lib/interwork/libc.a(lib_a-fwrite.o)
 .comment       0x0000127e       0x12 /usr/local/arm-elf-tools/gcc-4.3.3/lib/gcc/arm-elf/4.3.3/../../../../arm-elf/lib/interwork/libc.a(lib_a-getenv.o)
 .comment       0x00001290       0x12 /usr/local/arm-elf-tools/gcc-4.3.3/lib/gcc/arm-elf/4.3.3/../../../../arm-elf/lib/interwork/libc.a(lib_a-getenv_r.o)
 .comment       0x000012a2       0x12 /usr/local/arm-elf-tools/gcc-4.3.3/lib/gcc/arm-elf/4.3.3/../../../../arm-elf/lib/interwork/libc.a(lib_a-gmtime.o)
 .comment       0x000012b4       0x12 /usr/local/arm-elf-tools/gcc-4.3.3/lib/gcc/arm-elf/4.3.3/../../../../arm-elf/lib/interwork/libc.a(lib_a-gmtime_r.o)
 .comment       0x000012c6       0x12 /usr/local/arm-elf-tools/gcc-4.3.3/lib/gcc/arm-elf/4.3.3/../../../../arm-elf/lib/interwork/libc.a(lib_a-impure.o)
 .comment       0x000012d8       0x12 /usr/local/arm-elf-tools/gcc-4.3.3/lib/gcc/arm-elf/4.3.3/../../../../arm-elf/lib/interwork/libc.a(lib_a-lcltime.o)
 .comment       0x000012ea       0x12 /usr/local/arm-elf-tools/gcc-4.3.3/lib/gcc/arm-elf/4.3.3/../../../../arm-elf/lib/interwork/libc.a(lib_a-lcltime_r.o)
 .comment       0x000012fc       0x12 /usr/local/arm-elf-tools/gcc-4.3.3/lib/gcc/arm-elf/4.3.3/../../../../arm-elf/lib/interwork/libc.a(lib_a-locale.o)
 .comment       0x0000130e       0x12 /usr/local/arm-elf-tools/gcc-4.3.3/lib/gcc/arm-elf/4.3.3/../../../../arm-elf/lib/interwork/libc.a(lib_a-makebuf.o)
 .comment       0x00001320       0x12 /usr/local/arm-elf-tools/gcc-4.3.3/lib/gcc/arm-elf/4.3.3/../../../../arm-elf/lib/interwork/libc.a(lib_a-malloc.o)
 .comment       0x00001332       0x12 /usr/local/arm-elf-tools/gcc-4.3.3/lib/gcc/arm-elf/4.3.3/../../../../arm-elf/lib/interwork/libc.a(lib_a-mallocr.o)
 .comment       0x00001344       0x12 /usr/local/arm-elf-tools/gcc-4.3.3/lib/gcc/arm-elf/4.3.3/../../../../arm-elf/lib/interwork/libc.a(lib_a-memchr.o)
 .comment       0x00001356       0x12 /usr/local/arm-elf-tools/gcc-4.3.3/lib/gcc/arm-elf/4.3.3/../../../../arm-elf/lib/interwork/libc.a(lib_a-memcmp.o)
 .comment       0x00001368       0x12 /usr/local/arm-elf-tools/gcc-4.3.3/lib/gcc/arm-elf/4.3.3/../../../../arm-elf/lib/interwork/libc.a(lib_a-memcpy.o)
 .comment       0x0000137a       0x12 /usr/local/arm-elf-tools/gcc-4.3.3/lib/gcc/arm-elf/4.3.3/../../../../arm-elf/lib/interwork/libc.a(lib_a-memmove.o)
 .comment       0x0000138c       0x12 /usr/local/arm-elf-tools/gcc-4.3.3/lib/gcc/arm-elf/4.3.3/../../../../arm-elf/lib/interwork/libc.a(lib_a-memset.o)
 .comment       0x0000139e       0x12 /usr/local/arm-elf-tools/gcc-4.3.3/lib/gcc/arm-elf/4.3.3/../../../../arm-elf/lib/interwork/libc.a(lib_a-mktime.o)
 .comment       0x000013b0       0x12 /usr/local/arm-elf-tools/gcc-4.3.3/lib/gcc/arm-elf/4.3.3/../../../../arm-elf/lib/interwork/libc.a(lib_a-mktm_r.o)
 .comment       0x000013c2       0x12 /usr/local/arm-elf-tools/gcc-4.3.3/lib/gcc/arm-elf/4.3.3/../../../../arm-elf/lib/interwork/libc.a(lib_a-mlock.o)
 .comment       0x000013d4       0x12 /usr/local/arm-elf-tools/gcc-4.3.3/lib/gcc/arm-elf/4.3.3/../../../../arm-elf/lib/interwork/libc.a(lib_a-printf.o)
 .comment       0x000013e6       0x12 /usr/local/arm-elf-tools/gcc-4.3.3/lib/gcc/arm-elf/4.3.3/../../../../arm-elf/lib/interwork/libc.a(lib_a-putc.o)
 .comment       0x000013f8       0x12 /usr/local/arm-elf-tools/gcc-4.3.3/lib/gcc/arm-elf/4.3.3/../../../../arm-elf/lib/interwork/libc.a(lib_a-rand.o)
 .comment       0x0000140a       0x12 /usr/local/arm-elf-tools/gcc-4.3.3/lib/gcc/arm-elf/4.3.3/../../../../arm-elf/lib/interwork/libc.a(lib_a-realloc.o)
 .comment       0x0000141c       0x12 /usr/local/arm-elf-tools/gcc-4.3.3/lib/gcc/arm-elf/4.3.3/../../../../arm-elf/lib/interwork/libc.a(lib_a-reallocr.o)
 .comment       0x0000142e       0x12 /usr/local/arm-elf-tools/gcc-4.3.3/lib/gcc/arm-elf/4.3.3/../../../../arm-elf/lib/interwork/libc.a(lib_a-refill.o)
 .comment       0x00001440       0x12 /usr/local/arm-elf-tools/gcc-4.3.3/lib/gcc/arm-elf/4.3.3/../../../../arm-elf/lib/interwork/libc.a(lib_a-remove.o)
 .comment       0x00001452       0x12 /usr/local/arm-elf-tools/gcc-4.3.3/lib/gcc/arm-elf/4.3.3/../../../../arm-elf/lib/interwork/libc.a(lib_a-rget.o)
 .comment       0x00001464       0x12 /usr/local/arm-elf-tools/gcc-4.3.3/lib/gcc/arm-elf/4.3.3/../../../../arm-elf/lib/interwork/libc.a(lib_a-setvbuf.o)
 .comment       0x00001476       0x12 /usr/local/arm-elf-tools/gcc-4.3.3/lib/gcc/arm-elf/4.3.3/../../../../arm-elf/lib/interwork/libc.a(lib_a-signal.o)
 .comment       0x00001488       0x12 /usr/local/arm-elf-tools/gcc-4.3.3/lib/gcc/arm-elf/4.3.3/../../../../arm-elf/lib/interwork/libc.a(lib_a-snprintf.o)
 .comment       0x0000149a       0x12 /usr/local/arm-elf-tools/gcc-4.3.3/lib/gcc/arm-elf/4.3.3/../../../../arm-elf/lib/interwork/libc.a(lib_a-sprintf.o)
 .comment       0x000014ac       0x12 /usr/local/arm-elf-tools/gcc-4.3.3/lib/gcc/arm-elf/4.3.3/../../../../arm-elf/lib/interwork/libc.a(lib_a-stdio.o)
 .comment       0x000014be       0x12 /usr/local/arm-elf-tools/gcc-4.3.3/lib/gcc/arm-elf/4.3.3/../../../../arm-elf/lib/interwork/libc.a(lib_a-strcat.o)
 .comment       0x000014d0       0x12 /usr/local/arm-elf-tools/gcc-4.3.3/lib/gcc/arm-elf/4.3.3/../../../../arm-elf/lib/interwork/libc.a(lib_a-strchr.o)
 .comment       0x000014e2       0x12 /usr/local/arm-elf-tools/gcc-4.3.3/lib/gcc/arm-elf/4.3.3/../../../../arm-elf/lib/interwork/libc.a(lib_a-strcmp.o)
 .comment       0x000014f4       0x12 /usr/local/arm-elf-tools/gcc-4.3.3/lib/gcc/arm-elf/4.3.3/../../../../arm-elf/lib/interwork/libc.a(lib_a-strcoll.o)
 .comment       0x00001506       0x12 /usr/local/arm-elf-tools/gcc-4.3.3/lib/gcc/arm-elf/4.3.3/../../../../arm-elf/lib/interwork/libc.a(lib_a-strcpy.o)
 .comment       0x00001518       0x12 /usr/local/arm-elf-tools/gcc-4.3.3/lib/gcc/arm-elf/4.3.3/../../../../arm-elf/lib/interwork/libc.a(lib_a-strcspn.o)
 .comment       0x0000152a       0x12 /usr/local/arm-elf-tools/gcc-4.3.3/lib/gcc/arm-elf/4.3.3/../../../../arm-elf/lib/interwork/libc.a(lib_a-strerror.o)
 .comment       0x0000153c       0x12 /usr/local/arm-elf-tools/gcc-4.3.3/lib/gcc/arm-elf/4.3.3/../../../../arm-elf/lib/interwork/libc.a(lib_a-strftime.o)
 .comment       0x0000154e       0x12 /usr/local/arm-elf-tools/gcc-4.3.3/lib/gcc/arm-elf/4.3.3/../../../../arm-elf/lib/interwork/libc.a(lib_a-strlen.o)
 .comment       0x00001560       0x12 /usr/local/arm-elf-tools/gcc-4.3.3/lib/gcc/arm-elf/4.3.3/../../../../arm-elf/lib/interwork/libc.a(lib_a-strncat.o)
 .comment       0x00001572       0x12 /usr/local/arm-elf-tools/gcc-4.3.3/lib/gcc/arm-elf/4.3.3/../../../../arm-elf/lib/interwork/libc.a(lib_a-strncmp.o)
 .comment       0x00001584       0x12 /usr/local/arm-elf-tools/gcc-4.3.3/lib/gcc/arm-elf/4.3.3/../../../../arm-elf/lib/interwork/libc.a(lib_a-strncpy.o)
 .comment       0x00001596       0x12 /usr/local/arm-elf-tools/gcc-4.3.3/lib/gcc/arm-elf/4.3.3/../../../../arm-elf/lib/interwork/libc.a(lib_a-strnlen.o)
 .comment       0x000015a8       0x12 /usr/local/arm-elf-tools/gcc-4.3.3/lib/gcc/arm-elf/4.3.3/../../../../arm-elf/lib/interwork/libc.a(lib_a-strpbrk.o)
 .comment       0x000015ba       0x12 /usr/local/arm-elf-tools/gcc-4.3.3/lib/gcc/arm-elf/4.3.3/../../../../arm-elf/lib/interwork/libc.a(lib_a-strrchr.o)
 .comment       0x000015cc       0x12 /usr/local/arm-elf-tools/gcc-4.3.3/lib/gcc/arm-elf/4.3.3/../../../../arm-elf/lib/interwork/libc.a(lib_a-strstr.o)
 .comment       0x000015de       0x12 /usr/local/arm-elf-tools/gcc-4.3.3/lib/gcc/arm-elf/4.3.3/../../../../arm-elf/lib/interwork/libc.a(lib_a-strtod.o)
 .comment       0x000015f0       0x12 /usr/local/arm-elf-tools/gcc-4.3.3/lib/gcc/arm-elf/4.3.3/../../../../arm-elf/lib/interwork/libc.a(lib_a-strtoul.o)
 .comment       0x00001602       0x12 /usr/local/arm-elf-tools/gcc-4.3.3/lib/gcc/arm-elf/4.3.3/../../../../arm-elf/lib/interwork/libc.a(lib_a-svfprintf.o)
 .comment       0x00001614       0x12 /usr/local/arm-elf-tools/gcc-4.3.3/lib/gcc/arm-elf/4.3.3/../../../../arm-elf/lib/interwork/libc.a(lib_a-sysclose.o)
 .comment       0x00001626       0x12 /usr/local/arm-elf-tools/gcc-4.3.3/lib/gcc/arm-elf/4.3.3/../../../../arm-elf/lib/interwork/libc.a(lib_a-sysgettod.o)
 .comment       0x00001638       0x12 /usr/local/arm-elf-tools/gcc-4.3.3/lib/gcc/arm-elf/4.3.3/../../../../arm-elf/lib/interwork/libc.a(lib_a-sysopen.o)
 .comment       0x0000164a       0x12 /usr/local/arm-elf-tools/gcc-4.3.3/lib/gcc/arm-elf/4.3.3/../../../../arm-elf/lib/interwork/libc.a(lib_a-sysread.o)
 .comment       0x0000165c       0x12 /usr/local/arm-elf-tools/gcc-4.3.3/lib/gcc/arm-elf/4.3.3/../../../../arm-elf/lib/interwork/libc.a(lib_a-system.o)
 .comment       0x0000166e       0x12 /usr/local/arm-elf-tools/gcc-4.3.3/lib/gcc/arm-elf/4.3.3/../../../../arm-elf/lib/interwork/libc.a(lib_a-sysunlink.o)
 .comment       0x00001680       0x12 /usr/local/arm-elf-tools/gcc-4.3.3/lib/gcc/arm-elf/4.3.3/../../../../arm-elf/lib/interwork/libc.a(lib_a-syswrite.o)
 .comment       0x00001692       0x12 /usr/local/arm-elf-tools/gcc-4.3.3/lib/gcc/arm-elf/4.3.3/../../../../arm-elf/lib/interwork/libc.a(lib_a-time.o)
 .comment       0x000016a4       0x12 /usr/local/arm-elf-tools/gcc-4.3.3/lib/gcc/arm-elf/4.3.3/../../../../arm-elf/lib/interwork/libc.a(lib_a-timesr.o)
 .comment       0x000016b6       0x12 /usr/local/arm-elf-tools/gcc-4.3.3/lib/gcc/arm-elf/4.3.3/../../../../arm-elf/lib/interwork/libc.a(lib_a-tmpfile.o)
 .comment       0x000016c8       0x12 /usr/local/arm-elf-tools/gcc-4.3.3/lib/gcc/arm-elf/4.3.3/../../../../arm-elf/lib/interwork/libc.a(lib_a-tmpnam.o)
 .comment       0x000016da       0x12 /usr/local/arm-elf-tools/gcc-4.3.3/lib/gcc/arm-elf/4.3.3/../../../../arm-elf/lib/interwork/libc.a(lib_a-tzlock.o)
 .comment       0x000016ec       0x12 /usr/local/arm-elf-tools/gcc-4.3.3/lib/gcc/arm-elf/4.3.3/../../../../arm-elf/lib/interwork/libc.a(lib_a-tzvars.o)
 .comment       0x000016fe       0x12 /usr/local/arm-elf-tools/gcc-4.3.3/lib/gcc/arm-elf/4.3.3/../../../../arm-elf/lib/interwork/libc.a(lib_a-ungetc.o)
 .comment       0x00001710       0x12 /usr/local/arm-elf-tools/gcc-4.3.3/lib/gcc/arm-elf/4.3.3/../../../../arm-elf/lib/interwork/libc.a(lib_a-u_strerr.o)
 .comment       0x00001722       0x12 /usr/local/arm-elf-tools/gcc-4.3.3/lib/gcc/arm-elf/4.3.3/../../../../arm-elf/lib/interwork/libc.a(lib_a-vfprintf.o)
 .comment       0x00001734       0x12 /usr/local/arm-elf-tools/gcc-4.3.3/lib/gcc/arm-elf/4.3.3/../../../../arm-elf/lib/interwork/libc.a(lib_a-vfscanf.o)
 .comment       0x00001746       0x12 /usr/local/arm-elf-tools/gcc-4.3.3/lib/gcc/arm-elf/4.3.3/../../../../arm-elf/lib/interwork/libc.a(lib_a-vsnprintf.o)
 .comment       0x00001758       0x12 /usr/local/arm-elf-tools/gcc-4.3.3/lib/gcc/arm-elf/4.3.3/../../../../arm-elf/lib/interwork/libc.a(lib_a-wbuf.o)
 .comment       0x0000176a       0x12 /usr/local/arm-elf-tools/gcc-4.3.3/lib/gcc/arm-elf/4.3.3/../../../../arm-elf/lib/interwork/libc.a(lib_a-wsetup.o)
 .comment       0x0000177c       0x12 /usr/local/arm-elf-tools/gcc-4.3.3/lib/gcc/arm-elf/4.3.3/../../../../arm-elf/lib/interwork/libc.a(lib_a-abs.o)
 .comment       0x0000178e       0x12 /usr/local/arm-elf-tools/gcc-4.3.3/lib/gcc/arm-elf/4.3.3/../../../../arm-elf/lib/interwork/libc.a(lib_a-__call_atexit.o)
 .comment       0x000017a0       0x12 /usr/local/arm-elf-tools/gcc-4.3.3/lib/gcc/arm-elf/4.3.3/../../../../arm-elf/lib/interwork/libc.a(lib_a-div.o)
 .comment       0x000017b2       0x12 /usr/local/arm-elf-tools/gcc-4.3.3/lib/gcc/arm-elf/4.3.3/../../../../arm-elf/lib/interwork/libc.a(lib_a-dtoa.o)
 .comment       0x000017c4       0x12 /usr/local/arm-elf-tools/gcc-4.3.3/lib/gcc/arm-elf/4.3.3/../../../../arm-elf/lib/interwork/libc.a(lib_a-environ.o)
 .comment       0x000017d6       0x12 /usr/local/arm-elf-tools/gcc-4.3.3/lib/gcc/arm-elf/4.3.3/../../../../arm-elf/lib/interwork/libc.a(lib_a-envlock.o)
 .comment       0x000017e8       0x12 /usr/local/arm-elf-tools/gcc-4.3.3/lib/gcc/arm-elf/4.3.3/../../../../arm-elf/lib/interwork/libc.a(lib_a-gdtoa-gethex.o)
 .comment       0x000017fa       0x12 /usr/local/arm-elf-tools/gcc-4.3.3/lib/gcc/arm-elf/4.3.3/../../../../arm-elf/lib/interwork/libc.a(lib_a-gdtoa-hexnan.o)
 .comment       0x0000180c       0x12 /usr/local/arm-elf-tools/gcc-4.3.3/lib/gcc/arm-elf/4.3.3/../../../../arm-elf/lib/interwork/libc.a(lib_a-gettimeofdayr.o)
 .comment       0x0000181e       0x12 /usr/local/arm-elf-tools/gcc-4.3.3/lib/gcc/arm-elf/4.3.3/../../../../arm-elf/lib/interwork/libc.a(lib_a-gettzinfo.o)
 .comment       0x00001830       0x12 /usr/local/arm-elf-tools/gcc-4.3.3/lib/gcc/arm-elf/4.3.3/../../../../arm-elf/lib/interwork/libc.a(lib_a-isattyr.o)
 .comment       0x00001842       0x12 /usr/local/arm-elf-tools/gcc-4.3.3/lib/gcc/arm-elf/4.3.3/../../../../arm-elf/lib/interwork/libc.a(lib_a-iswspace.o)
 .comment       0x00001854       0x12 /usr/local/arm-elf-tools/gcc-4.3.3/lib/gcc/arm-elf/4.3.3/../../../../arm-elf/lib/interwork/libc.a(lib_a-labs.o)
 .comment       0x00001866       0x12 /usr/local/arm-elf-tools/gcc-4.3.3/lib/gcc/arm-elf/4.3.3/../../../../arm-elf/lib/interwork/libc.a(lib_a-mbrtowc.o)
 .comment       0x00001878       0x12 /usr/local/arm-elf-tools/gcc-4.3.3/lib/gcc/arm-elf/4.3.3/../../../../arm-elf/lib/interwork/libc.a(lib_a-mbtowc_r.o)
 .comment       0x0000188a       0x12 /usr/local/arm-elf-tools/gcc-4.3.3/lib/gcc/arm-elf/4.3.3/../../../../arm-elf/lib/interwork/libc.a(lib_a-mprec.o)
 .comment       0x0000189c       0x12 /usr/local/arm-elf-tools/gcc-4.3.3/lib/gcc/arm-elf/4.3.3/../../../../arm-elf/lib/interwork/libc.a(lib_a-reent.o)
 .comment       0x000018ae       0x12 /usr/local/arm-elf-tools/gcc-4.3.3/lib/gcc/arm-elf/4.3.3/../../../../arm-elf/lib/interwork/libc.a(lib_a-sccl.o)
 .comment       0x000018c0       0x12 /usr/local/arm-elf-tools/gcc-4.3.3/lib/gcc/arm-elf/4.3.3/../../../../arm-elf/lib/interwork/libc.a(lib_a-sf_nan.o)
 .comment       0x000018d2       0x12 /usr/local/arm-elf-tools/gcc-4.3.3/lib/gcc/arm-elf/4.3.3/../../../../arm-elf/lib/interwork/libc.a(lib_a-s_isinfd.o)
 .comment       0x000018e4       0x12 /usr/local/arm-elf-tools/gcc-4.3.3/lib/gcc/arm-elf/4.3.3/../../../../arm-elf/lib/interwork/libc.a(lib_a-strtol.o)

.ARM.attributes
                0x00000000       0x10
 .ARM.attributes
                0x00000000       0x10 ../../core/freertos/portable/GCC/ARM7_AT91SAM7S/portISR.o
 .ARM.attributes
                0x00000010       0x10 ../../core/usb/device/core/USBD_UDP.o
 .ARM.attributes
                0x00000020       0x10 ../../core/usb/device/core/USBD_OTGHS.o
 .ARM.attributes
                0x00000030       0x10 ../../core/usb/device/core/USBD_UDPHS.o
 .ARM.attributes
                0x00000040       0x10 ../../core/dynawa/serial_isr.o
 .ARM.attributes
                0x00000050       0x10 ../../core/dynawa/button.o
 .ARM.attributes
                0x00000060       0x10 ../../core/dynawa/timer_isr.o
 .ARM.attributes
                0x00000070       0x10 ../../core/dynawa/io_isr.o
 .ARM.attributes
                0x00000080       0x10 ../../core/startup/extras.o
 .ARM.attributes
                0x00000090       0x10 ../../core/freertos/tasks.o
 .ARM.attributes
                0x000000a0       0x10 ../../core/freertos/queue.o
 .ARM.attributes
                0x000000b0       0x10 ../../core/freertos/list.o
 .ARM.attributes
                0x000000c0       0x10 ../../core/freertos/portable/GCC/ARM7_AT91SAM7S/port.o
 .ARM.attributes
                0x000000d0       0x10 ../../core/freertos/portable/MemMang/heap_3.o
 .ARM.attributes
                0x000000e0       0x10 ../../core/usb/common/cdc/CDCSetControlLineStateRequest.o
 .ARM.attributes
                0x000000f0       0x10 ../../core/usb/common/cdc/CDCLineCoding.o
 .ARM.attributes
                0x00000100       0x10 ../../core/usb/device/cdc-serial/CDCDSerialDriver.o
 .ARM.attributes
                0x00000110       0x10 ../../core/usb/device/cdc-serial/CDCDSerialDriverDescriptors.o
 .ARM.attributes
                0x00000120       0x10 ../../core/usb/device/core/USBDCallbacks_Resumed.o
 .ARM.attributes
                0x00000130       0x10 ../../core/usb/device/core/USBDCallbacks_Suspended.o
 .ARM.attributes
                0x00000140       0x10 ../../core/usb/device/core/USBDDriverCb_CfgChanged.o
 .ARM.attributes
                0x00000150       0x10 ../../core/usb/device/core/USBDDriverCb_IfSettingChanged.o
 .ARM.attributes
                0x00000160       0x10 ../../core/usb/device/core/USBDCallbacks_Initialized.o
 .ARM.attributes
                0x00000170       0x10 ../../core/usb/device/core/USBDCallbacks_Reset.o
 .ARM.attributes
                0x00000180       0x10 ../../core/usb/device/core/USBDDriver.o
 .ARM.attributes
                0x00000190       0x10 ../../core/usb/common/core/USBSetAddressRequest.o
 .ARM.attributes
                0x000001a0       0x10 ../../core/usb/common/core/USBGenericDescriptor.o
 .ARM.attributes
                0x000001b0       0x10 ../../core/usb/common/core/USBGenericRequest.o
 .ARM.attributes
                0x000001c0       0x10 ../../core/usb/common/core/USBGetDescriptorRequest.o
 .ARM.attributes
                0x000001d0       0x10 ../../core/usb/common/core/USBSetConfigurationRequest.o
 .ARM.attributes
                0x000001e0       0x10 ../../core/usb/common/core/USBFeatureRequest.o
 .ARM.attributes
                0x000001f0       0x10 ../../core/usb/common/core/USBEndpointDescriptor.o
 .ARM.attributes
                0x00000200       0x10 ../../core/usb/common/core/USBConfigurationDescriptor.o
 .ARM.attributes
                0x00000210       0x10 ../../core/usb/common/core/USBInterfaceRequest.o
 .ARM.attributes
                0x00000220       0x10 ../../core/utils/rprintf.o
 .ARM.attributes
                0x00000230       0x10 ../../core/utils/time.o
 .ARM.attributes
                0x00000240       0x10 ../../core/utils/delay.o
 .ARM.attributes
                0x00000250       0x10 ../../core/screen/screen.o
 .ARM.attributes
                0x00000260       0x10 ../../core/screen/font.o
 .ARM.attributes
                0x00000270       0x10 ../../core/lua-5.1.4/src/lapi.o
 .ARM.attributes
                0x00000280       0x10 ../../core/lua-5.1.4/src/lauxlib.o
 .ARM.attributes
                0x00000290       0x10 ../../core/lua-5.1.4/src/lbaselib.o
 .ARM.attributes
                0x000002a0       0x10 ../../core/lua-5.1.4/src/lcode.o
 .ARM.attributes
                0x000002b0       0x10 ../../core/lua-5.1.4/src/ldblib.o
 .ARM.attributes
                0x000002c0       0x10 ../../core/lua-5.1.4/src/ldebug.o
 .ARM.attributes
                0x000002d0       0x10 ../../core/lua-5.1.4/src/ldo.o
 .ARM.attributes
                0x000002e0       0x10 ../../core/lua-5.1.4/src/ldump.o
 .ARM.attributes
                0x000002f0       0x10 ../../core/lua-5.1.4/src/lfunc.o
 .ARM.attributes
                0x00000300       0x10 ../../core/lua-5.1.4/src/lgc.o
 .ARM.attributes
                0x00000310       0x10 ../../core/lua-5.1.4/src/linit.o
 .ARM.attributes
                0x00000320       0x10 ../../core/lua-5.1.4/src/liolib.o
 .ARM.attributes
                0x00000330       0x10 ../../core/lua-5.1.4/src/llex.o
 .ARM.attributes
                0x00000340       0x10 ../../core/lua-5.1.4/src/lmathlib.o
 .ARM.attributes
                0x00000350       0x10 ../../core/lua-5.1.4/src/lmem.o
 .ARM.attributes
                0x00000360       0x10 ../../core/lua-5.1.4/src/loadlib.o
 .ARM.attributes
                0x00000370       0x10 ../../core/lua-5.1.4/src/lobject.o
 .ARM.attributes
                0x00000380       0x10 ../../core/lua-5.1.4/src/lopcodes.o
 .ARM.attributes
                0x00000390       0x10 ../../core/lua-5.1.4/src/loslib.o
 .ARM.attributes
                0x000003a0       0x10 ../../core/lua-5.1.4/src/lparser.o
 .ARM.attributes
                0x000003b0       0x10 ../../core/lua-5.1.4/src/lstate.o
 .ARM.attributes
                0x000003c0       0x10 ../../core/lua-5.1.4/src/lstring.o
 .ARM.attributes
                0x000003d0       0x10 ../../core/lua-5.1.4/src/lstrlib.o
 .ARM.attributes
                0x000003e0       0x10 ../../core/lua-5.1.4/src/ltable.o
 .ARM.attributes
                0x000003f0       0x10 ../../core/lua-5.1.4/src/ltablib.o
 .ARM.attributes
                0x00000400       0x10 ../../core/lua-5.1.4/src/ltm.o
 .ARM.attributes
                0x00000410       0x10 ../../core/lua-5.1.4/src/lundump.o
 .ARM.attributes
                0x00000420       0x10 ../../core/lua-5.1.4/src/lvm.o
 .ARM.attributes
                0x00000430       0x10 ../../core/lua-5.1.4/src/lzio.o
 .ARM.attributes
                0x00000440       0x10 ../../core/lua-5.1.4/src/print.o
 .ARM.attributes
                0x00000450       0x10 ../../core/dynawa/rtos.o
 .ARM.attributes
                0x00000460       0x10 ../../core/dynawa/usbserial.o
 .ARM.attributes
                0x00000470       0x10 ../../core/dynawa/serial.o
 .ARM.attributes
                0x00000480       0x10 ../../core/dynawa/main.o
 .ARM.attributes
                0x00000490       0x10 ../../core/dynawa/io.o
 .ARM.attributes
                0x000004a0       0x10 ../../core/dynawa/led.o
 .ARM.attributes
                0x000004b0       0x10 ../../core/dynawa/lua/lua.o
 .ARM.attributes
                0x000004c0       0x10 ../../core/dynawa/lua/lua_isr.o
 .ARM.attributes
                0x000004d0       0x10 ../../core/dynawa/lua/lib_dynawa.o
 .ARM.attributes
                0x000004e0       0x10 ../../core/dynawa/lua/lib_dynawa_timer.o
 .ARM.attributes
                0x000004f0       0x10 ../../core/dynawa/lua/lib_dynawa_bitmap.o
 .ARM.attributes
                0x00000500       0x10 ../../core/dynawa/event.o
 .ARM.attributes
                0x00000510       0x10 ../../core/dynawa/timer.o
 .ARM.attributes
                0x00000520       0x10 ../../core/dynawa/bitmap.o
 .ARM.attributes
                0x00000530       0x10 ../../core/sdcard/sdcard.o
 .ARM.attributes
                0x00000540       0x10 ../../core/dynawa/fat.o
 .ARM.attributes
                0x00000550       0x10 ../../core/fatfs-0.07/src/option/ccsbcs.o
 .ARM.attributes
                0x00000560       0x10 ../../core/fatfs-0.07/src/diskio.o
 .ARM.attributes
                0x00000570       0x10 ../../core/fatfs-0.07/src/ff.o
 .ARM.attributes
                0x00000580       0x10 ../../core/monitor/args.o
 .ARM.attributes
                0x00000590       0x10 ../../core/monitor/argsdispatch.o
 .ARM.attributes
                0x000005a0       0x10 ../../core/monitor/monitor.o
 .ARM.attributes
                0x000005b0       0x10 ../../core/yabcsp/src/crc.o
 .ARM.attributes
                0x000005c0       0x10 ../../core/yabcsp/src/init.o
 .ARM.attributes
                0x000005d0       0x10 ../../core/yabcsp/src/le.o
 .ARM.attributes
                0x000005e0       0x10 ../../core/yabcsp/src/rx.o
 .ARM.attributes
                0x000005f0       0x10 ../../core/yabcsp/src/txmsg.o
 .ARM.attributes
                0x00000600       0x10 ../../core/yabcsp/src/txslip.o
 .ARM.attributes
                0x00000610       0x10 ../../core/dynawa/bcsp/main.o
 .ARM.attributes
                0x00000620       0x10 ../../core/dynawa/bcsp/abcsp_support_functions.o
 .ARM.attributes
                0x00000630       0x10 ../../core/dynawa/bcsp/uSched.o
 .ARM.attributes
                0x00000640       0x10 ../../core/dynawa/bcsp/SerialCom.o
 .ARM.attributes
                0x00000650       0x10 ../../core/peripherals/serial.o
 .ARM.attributes
                0x00000660       0x10 ../../core/peripherals/oled/oled.o
 .ARM.attributes
                0x00000670       0x10 ../../core/peripherals/spi.o
 .ARM.attributes
                0x00000680       0x10 ../../core/peripherals/pmc/pmc.o
 .ARM.attributes
                0x00000690       0x10 ../../core/peripherals/usart/usart.o
 .ARM.attributes
                0x000006a0       0x10 ../../core/peripherals/aic/aic.o
 .ARM.attributes
                0x000006b0       0x10 ../../core/peripherals/pio/pio.o
 .ARM.attributes
                0x000006c0       0x10 ../../core/peripherals/rtc.o
 .ARM.attributes
                0x000006d0       0x10 ../../core/peripherals/i2c.o
 .ARM.attributes
                0x000006e0       0x10 ../../core/peripherals/accel.o
 .ARM.attributes
                0x000006f0       0x10 ../../core/peripherals/gasgauge.o
 .ARM.attributes
                0x00000700       0x10 ../../core/peripherals/amblightsensor.o
 .ARM.attributes
                0x00000710       0x10 ../../core/peripherals/ledrgb.o
 .ARM.attributes
                0x00000720       0x10 ../../core/lua-5.1.4/src/lnum.o
 .ARM.attributes
                0x00000730       0x10 ../../core/lwalkera-lwBT-f64e170/lwbt/fcs.o
 .ARM.attributes
                0x00000740       0x10 ../../core/lwalkera-lwBT-f64e170/lwbt/hci.o
 .ARM.attributes
                0x00000750       0x10 ../../core/lwalkera-lwBT-f64e170/lwbt/l2cap.o
 .ARM.attributes
                0x00000760       0x10 ../../core/lwalkera-lwBT-f64e170/lwbt/lwbt_memp.o
 .ARM.attributes
                0x00000770       0x10 ../../core/lwalkera-lwBT-f64e170/lwbt/rfcomm.o
 .ARM.attributes
                0x00000780       0x10 ../../core/lwalkera-lwBT-f64e170/lwbt/sdp.o
 .ARM.attributes
                0x00000790       0x10 ../../core/lwalkera-lwBT-f64e170/lwip/inet.o
 .ARM.attributes
                0x000007a0       0x10 ../../core/lwalkera-lwBT-f64e170/lwip/memp.o
 .ARM.attributes
                0x000007b0       0x10 ../../core/lwalkera-lwBT-f64e170/lwip/pbuf.o
 .ARM.attributes
                0x000007c0       0x10 ../../core/lwalkera-lwBT-f64e170/lwip/stats.o
 .ARM.attributes
                0x000007d0       0x10 ../../core/lwalkera-lwBT-f64e170/bt_spp.o
 .ARM.attributes
                0x000007e0       0x10 ../../libraries/zlib-1.2.3/adler32.o
 .ARM.attributes
                0x000007f0       0x10 ../../libraries/zlib-1.2.3/compress.o
 .ARM.attributes
                0x00000800       0x10 ../../libraries/zlib-1.2.3/crc32.o
 .ARM.attributes
                0x00000810       0x10 ../../libraries/zlib-1.2.3/gzio.o
 .ARM.attributes
                0x00000820       0x10 ../../libraries/zlib-1.2.3/uncompr.o
 .ARM.attributes
                0x00000830       0x10 ../../libraries/zlib-1.2.3/deflate.o
 .ARM.attributes
                0x00000840       0x10 ../../libraries/zlib-1.2.3/trees.o
 .ARM.attributes
                0x00000850       0x10 ../../libraries/zlib-1.2.3/zutil.o
 .ARM.attributes
                0x00000860       0x10 ../../libraries/zlib-1.2.3/inflate.o
 .ARM.attributes
                0x00000870       0x10 ../../libraries/zlib-1.2.3/infback.o
 .ARM.attributes
                0x00000880       0x10 ../../libraries/zlib-1.2.3/inftrees.o
 .ARM.attributes
                0x00000890       0x10 ../../libraries/zlib-1.2.3/inffast.o
 .ARM.attributes
                0x000008a0       0x10 ../../libraries/libpng-1.4.0/png.o
 .ARM.attributes
                0x000008b0       0x10 ../../libraries/libpng-1.4.0/pngerror.o
 .ARM.attributes
                0x000008c0       0x10 ../../libraries/libpng-1.4.0/pngget.o
 .ARM.attributes
                0x000008d0       0x10 ../../libraries/libpng-1.4.0/pngmem.o
 .ARM.attributes
                0x000008e0       0x10 ../../libraries/libpng-1.4.0/pngpread.o
 .ARM.attributes
                0x000008f0       0x10 ../../libraries/libpng-1.4.0/pngread.o
 .ARM.attributes
                0x00000900       0x10 ../../libraries/libpng-1.4.0/pngrio.o
 .ARM.attributes
                0x00000910       0x10 ../../libraries/libpng-1.4.0/pngrtran.o
 .ARM.attributes
                0x00000920       0x10 ../../libraries/libpng-1.4.0/pngrutil.o
 .ARM.attributes
                0x00000930       0x10 ../../libraries/libpng-1.4.0/pngset.o
 .ARM.attributes
                0x00000940       0x10 ../../libraries/libpng-1.4.0/pngtrans.o
 .ARM.attributes
                0x00000950       0x10 ../../libraries/libpng-1.4.0/pngwio.o
 .ARM.attributes
                0x00000960       0x10 ../../libraries/libpng-1.4.0/pngwrite.o
 .ARM.attributes
                0x00000970       0x10 ../../libraries/libpng-1.4.0/pngwtran.o
 .ARM.attributes
                0x00000980       0x10 ../../libraries/libpng-1.4.0/pngwutil.o
 .ARM.attributes
                0x00000990       0x10 ../../core/dynawa/png.o
 .ARM.attributes
                0x000009a0       0x10 image.o
 .ARM.attributes
                0x000009b0       0x10 /tmp/ccIBIrH5.o
 .ARM.attributes
                0x000009c0       0x10 /tmp/ccAJfFnu.o
 .ARM.attributes
                0x000009d0       0x10 /usr/local/arm-elf-tools/gcc-4.3.3/lib/gcc/arm-elf/4.3.3/../../../../arm-elf/lib/interwork/libm.a(lib_a-s_atan.o)
 .ARM.attributes
                0x000009e0       0x10 /usr/local/arm-elf-tools/gcc-4.3.3/lib/gcc/arm-elf/4.3.3/../../../../arm-elf/lib/interwork/libm.a(lib_a-s_ceil.o)
 .ARM.attributes
                0x000009f0       0x10 /usr/local/arm-elf-tools/gcc-4.3.3/lib/gcc/arm-elf/4.3.3/../../../../arm-elf/lib/interwork/libm.a(lib_a-s_cos.o)
 .ARM.attributes
                0x00000a00       0x10 /usr/local/arm-elf-tools/gcc-4.3.3/lib/gcc/arm-elf/4.3.3/../../../../arm-elf/lib/interwork/libm.a(lib_a-s_fabs.o)
 .ARM.attributes
                0x00000a10       0x10 /usr/local/arm-elf-tools/gcc-4.3.3/lib/gcc/arm-elf/4.3.3/../../../../arm-elf/lib/interwork/libm.a(lib_a-s_floor.o)
 .ARM.attributes
                0x00000a20       0x10 /usr/local/arm-elf-tools/gcc-4.3.3/lib/gcc/arm-elf/4.3.3/../../../../arm-elf/lib/interwork/libm.a(lib_a-s_frexp.o)
 .ARM.attributes
                0x00000a30       0x10 /usr/local/arm-elf-tools/gcc-4.3.3/lib/gcc/arm-elf/4.3.3/../../../../arm-elf/lib/interwork/libm.a(lib_a-s_ldexp.o)
 .ARM.attributes
                0x00000a40       0x10 /usr/local/arm-elf-tools/gcc-4.3.3/lib/gcc/arm-elf/4.3.3/../../../../arm-elf/lib/interwork/libm.a(lib_a-s_modf.o)
 .ARM.attributes
                0x00000a50       0x10 /usr/local/arm-elf-tools/gcc-4.3.3/lib/gcc/arm-elf/4.3.3/../../../../arm-elf/lib/interwork/libm.a(lib_a-s_scalbn.o)
 .ARM.attributes
                0x00000a60       0x10 /usr/local/arm-elf-tools/gcc-4.3.3/lib/gcc/arm-elf/4.3.3/../../../../arm-elf/lib/interwork/libm.a(lib_a-s_sin.o)
 .ARM.attributes
                0x00000a70       0x10 /usr/local/arm-elf-tools/gcc-4.3.3/lib/gcc/arm-elf/4.3.3/../../../../arm-elf/lib/interwork/libm.a(lib_a-s_tanh.o)
 .ARM.attributes
                0x00000a80       0x10 /usr/local/arm-elf-tools/gcc-4.3.3/lib/gcc/arm-elf/4.3.3/../../../../arm-elf/lib/interwork/libm.a(lib_a-s_tan.o)
 .ARM.attributes
                0x00000a90       0x10 /usr/local/arm-elf-tools/gcc-4.3.3/lib/gcc/arm-elf/4.3.3/../../../../arm-elf/lib/interwork/libm.a(lib_a-w_acos.o)
 .ARM.attributes
                0x00000aa0       0x10 /usr/local/arm-elf-tools/gcc-4.3.3/lib/gcc/arm-elf/4.3.3/../../../../arm-elf/lib/interwork/libm.a(lib_a-w_asin.o)
 .ARM.attributes
                0x00000ab0       0x10 /usr/local/arm-elf-tools/gcc-4.3.3/lib/gcc/arm-elf/4.3.3/../../../../arm-elf/lib/interwork/libm.a(lib_a-w_atan2.o)
 .ARM.attributes
                0x00000ac0       0x10 /usr/local/arm-elf-tools/gcc-4.3.3/lib/gcc/arm-elf/4.3.3/../../../../arm-elf/lib/interwork/libm.a(lib_a-w_cosh.o)
 .ARM.attributes
                0x00000ad0       0x10 /usr/local/arm-elf-tools/gcc-4.3.3/lib/gcc/arm-elf/4.3.3/../../../../arm-elf/lib/interwork/libm.a(lib_a-w_exp.o)
 .ARM.attributes
                0x00000ae0       0x10 /usr/local/arm-elf-tools/gcc-4.3.3/lib/gcc/arm-elf/4.3.3/../../../../arm-elf/lib/interwork/libm.a(lib_a-w_fmod.o)
 .ARM.attributes
                0x00000af0       0x10 /usr/local/arm-elf-tools/gcc-4.3.3/lib/gcc/arm-elf/4.3.3/../../../../arm-elf/lib/interwork/libm.a(lib_a-w_log10.o)
 .ARM.attributes
                0x00000b00       0x10 /usr/local/arm-elf-tools/gcc-4.3.3/lib/gcc/arm-elf/4.3.3/../../../../arm-elf/lib/interwork/libm.a(lib_a-w_log.o)
 .ARM.attributes
                0x00000b10       0x10 /usr/local/arm-elf-tools/gcc-4.3.3/lib/gcc/arm-elf/4.3.3/../../../../arm-elf/lib/interwork/libm.a(lib_a-w_pow.o)
 .ARM.attributes
                0x00000b20       0x10 /usr/local/arm-elf-tools/gcc-4.3.3/lib/gcc/arm-elf/4.3.3/../../../../arm-elf/lib/interwork/libm.a(lib_a-w_sinh.o)
 .ARM.attributes
                0x00000b30       0x10 /usr/local/arm-elf-tools/gcc-4.3.3/lib/gcc/arm-elf/4.3.3/../../../../arm-elf/lib/interwork/libm.a(lib_a-w_sqrt.o)
 .ARM.attributes
                0x00000b40       0x10 /usr/local/arm-elf-tools/gcc-4.3.3/lib/gcc/arm-elf/4.3.3/../../../../arm-elf/lib/interwork/libm.a(lib_a-e_acos.o)
 .ARM.attributes
                0x00000b50       0x10 /usr/local/arm-elf-tools/gcc-4.3.3/lib/gcc/arm-elf/4.3.3/../../../../arm-elf/lib/interwork/libm.a(lib_a-e_asin.o)
 .ARM.attributes
                0x00000b60       0x10 /usr/local/arm-elf-tools/gcc-4.3.3/lib/gcc/arm-elf/4.3.3/../../../../arm-elf/lib/interwork/libm.a(lib_a-e_atan2.o)
 .ARM.attributes
                0x00000b70       0x10 /usr/local/arm-elf-tools/gcc-4.3.3/lib/gcc/arm-elf/4.3.3/../../../../arm-elf/lib/interwork/libm.a(lib_a-e_cosh.o)
 .ARM.attributes
                0x00000b80       0x10 /usr/local/arm-elf-tools/gcc-4.3.3/lib/gcc/arm-elf/4.3.3/../../../../arm-elf/lib/interwork/libm.a(lib_a-e_exp.o)
 .ARM.attributes
                0x00000b90       0x10 /usr/local/arm-elf-tools/gcc-4.3.3/lib/gcc/arm-elf/4.3.3/../../../../arm-elf/lib/interwork/libm.a(lib_a-e_fmod.o)
 .ARM.attributes
                0x00000ba0       0x10 /usr/local/arm-elf-tools/gcc-4.3.3/lib/gcc/arm-elf/4.3.3/../../../../arm-elf/lib/interwork/libm.a(lib_a-e_log10.o)
 .ARM.attributes
                0x00000bb0       0x10 /usr/local/arm-elf-tools/gcc-4.3.3/lib/gcc/arm-elf/4.3.3/../../../../arm-elf/lib/interwork/libm.a(lib_a-e_log.o)
 .ARM.attributes
                0x00000bc0       0x10 /usr/local/arm-elf-tools/gcc-4.3.3/lib/gcc/arm-elf/4.3.3/../../../../arm-elf/lib/interwork/libm.a(lib_a-e_pow.o)
 .ARM.attributes
                0x00000bd0       0x10 /usr/local/arm-elf-tools/gcc-4.3.3/lib/gcc/arm-elf/4.3.3/../../../../arm-elf/lib/interwork/libm.a(lib_a-e_rem_pio2.o)
 .ARM.attributes
                0x00000be0       0x10 /usr/local/arm-elf-tools/gcc-4.3.3/lib/gcc/arm-elf/4.3.3/../../../../arm-elf/lib/interwork/libm.a(lib_a-e_sinh.o)
 .ARM.attributes
                0x00000bf0       0x10 /usr/local/arm-elf-tools/gcc-4.3.3/lib/gcc/arm-elf/4.3.3/../../../../arm-elf/lib/interwork/libm.a(lib_a-e_sqrt.o)
 .ARM.attributes
                0x00000c00       0x10 /usr/local/arm-elf-tools/gcc-4.3.3/lib/gcc/arm-elf/4.3.3/../../../../arm-elf/lib/interwork/libm.a(lib_a-k_cos.o)
 .ARM.attributes
                0x00000c10       0x10 /usr/local/arm-elf-tools/gcc-4.3.3/lib/gcc/arm-elf/4.3.3/../../../../arm-elf/lib/interwork/libm.a(lib_a-k_rem_pio2.o)
 .ARM.attributes
                0x00000c20       0x10 /usr/local/arm-elf-tools/gcc-4.3.3/lib/gcc/arm-elf/4.3.3/../../../../arm-elf/lib/interwork/libm.a(lib_a-k_sin.o)
 .ARM.attributes
                0x00000c30       0x10 /usr/local/arm-elf-tools/gcc-4.3.3/lib/gcc/arm-elf/4.3.3/../../../../arm-elf/lib/interwork/libm.a(lib_a-k_tan.o)
 .ARM.attributes
                0x00000c40       0x10 /usr/local/arm-elf-tools/gcc-4.3.3/lib/gcc/arm-elf/4.3.3/../../../../arm-elf/lib/interwork/libm.a(lib_a-s_copysign.o)
 .ARM.attributes
                0x00000c50       0x10 /usr/local/arm-elf-tools/gcc-4.3.3/lib/gcc/arm-elf/4.3.3/../../../../arm-elf/lib/interwork/libm.a(lib_a-s_expm1.o)
 .ARM.attributes
                0x00000c60       0x10 /usr/local/arm-elf-tools/gcc-4.3.3/lib/gcc/arm-elf/4.3.3/../../../../arm-elf/lib/interwork/libm.a(lib_a-s_finite.o)
 .ARM.attributes
                0x00000c70       0x10 /usr/local/arm-elf-tools/gcc-4.3.3/lib/gcc/arm-elf/4.3.3/../../../../arm-elf/lib/interwork/libm.a(lib_a-s_isnand.o)
 .ARM.attributes
                0x00000c80       0x10 /usr/local/arm-elf-tools/gcc-4.3.3/lib/gcc/arm-elf/4.3.3/../../../../arm-elf/lib/interwork/libm.a(lib_a-s_lib_ver.o)
 .ARM.attributes
                0x00000c90       0x10 /usr/local/arm-elf-tools/gcc-4.3.3/lib/gcc/arm-elf/4.3.3/../../../../arm-elf/lib/interwork/libm.a(lib_a-s_matherr.o)
 .ARM.attributes
                0x00000ca0       0x10 /usr/local/arm-elf-tools/gcc-4.3.3/lib/gcc/arm-elf/4.3.3/../../../../arm-elf/lib/interwork/libm.a(lib_a-s_nan.o)
 .ARM.attributes
                0x00000cb0       0x10 /usr/local/arm-elf-tools/gcc-4.3.3/lib/gcc/arm-elf/4.3.3/../../../../arm-elf/lib/interwork/libm.a(lib_a-s_rint.o)
 .ARM.attributes
                0x00000cc0       0x10 /usr/local/arm-elf-tools/gcc-4.3.3/lib/gcc/arm-elf/4.3.3/interwork/libgcc.a(_udivsi3.o)
 .ARM.attributes
                0x00000cd0       0x10 /usr/local/arm-elf-tools/gcc-4.3.3/lib/gcc/arm-elf/4.3.3/interwork/libgcc.a(_divsi3.o)
 .ARM.attributes
                0x00000ce0       0x10 /usr/local/arm-elf-tools/gcc-4.3.3/lib/gcc/arm-elf/4.3.3/interwork/libgcc.a(_umodsi3.o)
 .ARM.attributes
                0x00000cf0       0x10 /usr/local/arm-elf-tools/gcc-4.3.3/lib/gcc/arm-elf/4.3.3/interwork/libgcc.a(_modsi3.o)
 .ARM.attributes
                0x00000d00       0x10 /usr/local/arm-elf-tools/gcc-4.3.3/lib/gcc/arm-elf/4.3.3/interwork/libgcc.a(_dvmd_tls.o)
 .ARM.attributes
                0x00000d10       0x10 /usr/local/arm-elf-tools/gcc-4.3.3/lib/gcc/arm-elf/4.3.3/interwork/libgcc.a(_fixunsdfsi.o)
 .ARM.attributes
                0x00000d20       0x10 /usr/local/arm-elf-tools/gcc-4.3.3/lib/gcc/arm-elf/4.3.3/interwork/libgcc.a(_mul_sf.o)
 .ARM.attributes
                0x00000d30       0x10 /usr/local/arm-elf-tools/gcc-4.3.3/lib/gcc/arm-elf/4.3.3/interwork/libgcc.a(_div_sf.o)
 .ARM.attributes
                0x00000d40       0x10 /usr/local/arm-elf-tools/gcc-4.3.3/lib/gcc/arm-elf/4.3.3/interwork/libgcc.a(_eq_sf.o)
 .ARM.attributes
                0x00000d50       0x10 /usr/local/arm-elf-tools/gcc-4.3.3/lib/gcc/arm-elf/4.3.3/interwork/libgcc.a(_si_to_sf.o)
 .ARM.attributes
                0x00000d60       0x10 /usr/local/arm-elf-tools/gcc-4.3.3/lib/gcc/arm-elf/4.3.3/interwork/libgcc.a(_sf_to_df.o)
 .ARM.attributes
                0x00000d70       0x10 /usr/local/arm-elf-tools/gcc-4.3.3/lib/gcc/arm-elf/4.3.3/interwork/libgcc.a(_thenan_sf.o)
 .ARM.attributes
                0x00000d80       0x10 /usr/local/arm-elf-tools/gcc-4.3.3/lib/gcc/arm-elf/4.3.3/interwork/libgcc.a(_usi_to_sf.o)
 .ARM.attributes
                0x00000d90       0x10 /usr/local/arm-elf-tools/gcc-4.3.3/lib/gcc/arm-elf/4.3.3/interwork/libgcc.a(_addsub_df.o)
 .ARM.attributes
                0x00000da0       0x10 /usr/local/arm-elf-tools/gcc-4.3.3/lib/gcc/arm-elf/4.3.3/interwork/libgcc.a(_mul_df.o)
 .ARM.attributes
                0x00000db0       0x10 /usr/local/arm-elf-tools/gcc-4.3.3/lib/gcc/arm-elf/4.3.3/interwork/libgcc.a(_div_df.o)
 .ARM.attributes
                0x00000dc0       0x10 /usr/local/arm-elf-tools/gcc-4.3.3/lib/gcc/arm-elf/4.3.3/interwork/libgcc.a(_eq_df.o)
 .ARM.attributes
                0x00000dd0       0x10 /usr/local/arm-elf-tools/gcc-4.3.3/lib/gcc/arm-elf/4.3.3/interwork/libgcc.a(_ne_df.o)
 .ARM.attributes
                0x00000de0       0x10 /usr/local/arm-elf-tools/gcc-4.3.3/lib/gcc/arm-elf/4.3.3/interwork/libgcc.a(_gt_df.o)
 .ARM.attributes
                0x00000df0       0x10 /usr/local/arm-elf-tools/gcc-4.3.3/lib/gcc/arm-elf/4.3.3/interwork/libgcc.a(_ge_df.o)
 .ARM.attributes
                0x00000e00       0x10 /usr/local/arm-elf-tools/gcc-4.3.3/lib/gcc/arm-elf/4.3.3/interwork/libgcc.a(_lt_df.o)
 .ARM.attributes
                0x00000e10       0x10 /usr/local/arm-elf-tools/gcc-4.3.3/lib/gcc/arm-elf/4.3.3/interwork/libgcc.a(_le_df.o)
 .ARM.attributes
                0x00000e20       0x10 /usr/local/arm-elf-tools/gcc-4.3.3/lib/gcc/arm-elf/4.3.3/interwork/libgcc.a(_si_to_df.o)
 .ARM.attributes
                0x00000e30       0x10 /usr/local/arm-elf-tools/gcc-4.3.3/lib/gcc/arm-elf/4.3.3/interwork/libgcc.a(_df_to_si.o)
 .ARM.attributes
                0x00000e40       0x10 /usr/local/arm-elf-tools/gcc-4.3.3/lib/gcc/arm-elf/4.3.3/interwork/libgcc.a(_make_df.o)
 .ARM.attributes
                0x00000e50       0x10 /usr/local/arm-elf-tools/gcc-4.3.3/lib/gcc/arm-elf/4.3.3/interwork/libgcc.a(_df_to_sf.o)
 .ARM.attributes
                0x00000e60       0x10 /usr/local/arm-elf-tools/gcc-4.3.3/lib/gcc/arm-elf/4.3.3/interwork/libgcc.a(_thenan_df.o)
 .ARM.attributes
                0x00000e70       0x10 /usr/local/arm-elf-tools/gcc-4.3.3/lib/gcc/arm-elf/4.3.3/interwork/libgcc.a(_usi_to_df.o)
 .ARM.attributes
                0x00000e80       0x10 /usr/local/arm-elf-tools/gcc-4.3.3/lib/gcc/arm-elf/4.3.3/interwork/libgcc.a(_ucmpdi2.o)
 .ARM.attributes
                0x00000e90       0x10 /usr/local/arm-elf-tools/gcc-4.3.3/lib/gcc/arm-elf/4.3.3/interwork/libgcc.a(_clzsi2.o)
 .ARM.attributes
                0x00000ea0       0x10 /usr/local/arm-elf-tools/gcc-4.3.3/lib/gcc/arm-elf/4.3.3/interwork/libgcc.a(_pack_sf.o)
 .ARM.attributes
                0x00000eb0       0x10 /usr/local/arm-elf-tools/gcc-4.3.3/lib/gcc/arm-elf/4.3.3/interwork/libgcc.a(_unpack_sf.o)
 .ARM.attributes
                0x00000ec0       0x10 /usr/local/arm-elf-tools/gcc-4.3.3/lib/gcc/arm-elf/4.3.3/interwork/libgcc.a(_fpcmp_parts_sf.o)
 .ARM.attributes
                0x00000ed0       0x10 /usr/local/arm-elf-tools/gcc-4.3.3/lib/gcc/arm-elf/4.3.3/interwork/libgcc.a(_make_sf.o)
 .ARM.attributes
                0x00000ee0       0x10 /usr/local/arm-elf-tools/gcc-4.3.3/lib/gcc/arm-elf/4.3.3/interwork/libgcc.a(_pack_df.o)
 .ARM.attributes
                0x00000ef0       0x10 /usr/local/arm-elf-tools/gcc-4.3.3/lib/gcc/arm-elf/4.3.3/interwork/libgcc.a(_unpack_df.o)
 .ARM.attributes
                0x00000f00       0x10 /usr/local/arm-elf-tools/gcc-4.3.3/lib/gcc/arm-elf/4.3.3/interwork/libgcc.a(_fpcmp_parts_df.o)
 .ARM.attributes
                0x00000f10       0x10 /usr/local/arm-elf-tools/gcc-4.3.3/lib/gcc/arm-elf/4.3.3/interwork/libgcc.a(_clz.o)
 .ARM.attributes
                0x00000f20       0x10 /usr/local/arm-elf-tools/gcc-4.3.3/lib/gcc/arm-elf/4.3.3/../../../../arm-elf/lib/interwork/libc.a(lib_a-abort.o)
 .ARM.attributes
                0x00000f30       0x10 /usr/local/arm-elf-tools/gcc-4.3.3/lib/gcc/arm-elf/4.3.3/../../../../arm-elf/lib/interwork/libc.a(lib_a-calloc.o)
 .ARM.attributes
                0x00000f40       0x10 /usr/local/arm-elf-tools/gcc-4.3.3/lib/gcc/arm-elf/4.3.3/../../../../arm-elf/lib/interwork/libc.a(lib_a-callocr.o)
 .ARM.attributes
                0x00000f50       0x10 /usr/local/arm-elf-tools/gcc-4.3.3/lib/gcc/arm-elf/4.3.3/../../../../arm-elf/lib/interwork/libc.a(lib_a-clock.o)
 .ARM.attributes
                0x00000f60       0x10 /usr/local/arm-elf-tools/gcc-4.3.3/lib/gcc/arm-elf/4.3.3/../../../../arm-elf/lib/interwork/libc.a(lib_a-ctype_.o)
 .ARM.attributes
                0x00000f70       0x10 /usr/local/arm-elf-tools/gcc-4.3.3/lib/gcc/arm-elf/4.3.3/../../../../arm-elf/lib/interwork/libc.a(lib_a-difftime.o)
 .ARM.attributes
                0x00000f80       0x10 /usr/local/arm-elf-tools/gcc-4.3.3/lib/gcc/arm-elf/4.3.3/../../../../arm-elf/lib/interwork/libc.a(lib_a-errno.o)
 .ARM.attributes
                0x00000f90       0x10 /usr/local/arm-elf-tools/gcc-4.3.3/lib/gcc/arm-elf/4.3.3/../../../../arm-elf/lib/interwork/libc.a(lib_a-exit.o)
 .ARM.attributes
                0x00000fa0       0x10 /usr/local/arm-elf-tools/gcc-4.3.3/lib/gcc/arm-elf/4.3.3/../../../../arm-elf/lib/interwork/libc.a(lib_a-fclose.o)
 .ARM.attributes
                0x00000fb0       0x10 /usr/local/arm-elf-tools/gcc-4.3.3/lib/gcc/arm-elf/4.3.3/../../../../arm-elf/lib/interwork/libc.a(lib_a-fdopen.o)
 .ARM.attributes
                0x00000fc0       0x10 /usr/local/arm-elf-tools/gcc-4.3.3/lib/gcc/arm-elf/4.3.3/../../../../arm-elf/lib/interwork/libc.a(lib_a-fflush.o)
 .ARM.attributes
                0x00000fd0       0x10 /usr/local/arm-elf-tools/gcc-4.3.3/lib/gcc/arm-elf/4.3.3/../../../../arm-elf/lib/interwork/libc.a(lib_a-fgets.o)
 .ARM.attributes
                0x00000fe0       0x10 /usr/local/arm-elf-tools/gcc-4.3.3/lib/gcc/arm-elf/4.3.3/../../../../arm-elf/lib/interwork/libc.a(lib_a-fileno.o)
 .ARM.attributes
                0x00000ff0       0x10 /usr/local/arm-elf-tools/gcc-4.3.3/lib/gcc/arm-elf/4.3.3/../../../../arm-elf/lib/interwork/libc.a(lib_a-findfp.o)
 .ARM.attributes
                0x00001000       0x10 /usr/local/arm-elf-tools/gcc-4.3.3/lib/gcc/arm-elf/4.3.3/../../../../arm-elf/lib/interwork/libc.a(lib_a-flags.o)
 .ARM.attributes
                0x00001010       0x10 /usr/local/arm-elf-tools/gcc-4.3.3/lib/gcc/arm-elf/4.3.3/../../../../arm-elf/lib/interwork/libc.a(lib_a-fopen.o)
 .ARM.attributes
                0x00001020       0x10 /usr/local/arm-elf-tools/gcc-4.3.3/lib/gcc/arm-elf/4.3.3/../../../../arm-elf/lib/interwork/libc.a(lib_a-fprintf.o)
 .ARM.attributes
                0x00001030       0x10 /usr/local/arm-elf-tools/gcc-4.3.3/lib/gcc/arm-elf/4.3.3/../../../../arm-elf/lib/interwork/libc.a(lib_a-fputc.o)
 .ARM.attributes
                0x00001040       0x10 /usr/local/arm-elf-tools/gcc-4.3.3/lib/gcc/arm-elf/4.3.3/../../../../arm-elf/lib/interwork/libc.a(lib_a-fputs.o)
 .ARM.attributes
                0x00001050       0x10 /usr/local/arm-elf-tools/gcc-4.3.3/lib/gcc/arm-elf/4.3.3/../../../../arm-elf/lib/interwork/libc.a(lib_a-fread.o)
 .ARM.attributes
                0x00001060       0x10 /usr/local/arm-elf-tools/gcc-4.3.3/lib/gcc/arm-elf/4.3.3/../../../../arm-elf/lib/interwork/libc.a(lib_a-freer.o)
 .ARM.attributes
                0x00001070       0x10 /usr/local/arm-elf-tools/gcc-4.3.3/lib/gcc/arm-elf/4.3.3/../../../../arm-elf/lib/interwork/libc.a(lib_a-freopen.o)
 .ARM.attributes
                0x00001080       0x10 /usr/local/arm-elf-tools/gcc-4.3.3/lib/gcc/arm-elf/4.3.3/../../../../arm-elf/lib/interwork/libc.a(lib_a-fscanf.o)
 .ARM.attributes
                0x00001090       0x10 /usr/local/arm-elf-tools/gcc-4.3.3/lib/gcc/arm-elf/4.3.3/../../../../arm-elf/lib/interwork/libc.a(lib_a-fseek.o)
 .ARM.attributes
                0x000010a0       0x10 /usr/local/arm-elf-tools/gcc-4.3.3/lib/gcc/arm-elf/4.3.3/../../../../arm-elf/lib/interwork/libc.a(lib_a-ftell.o)
 .ARM.attributes
                0x000010b0       0x10 /usr/local/arm-elf-tools/gcc-4.3.3/lib/gcc/arm-elf/4.3.3/../../../../arm-elf/lib/interwork/libc.a(lib_a-fvwrite.o)
 .ARM.attributes
                0x000010c0       0x10 /usr/local/arm-elf-tools/gcc-4.3.3/lib/gcc/arm-elf/4.3.3/../../../../arm-elf/lib/interwork/libc.a(lib_a-fwalk.o)
 .ARM.attributes
                0x000010d0       0x10 /usr/local/arm-elf-tools/gcc-4.3.3/lib/gcc/arm-elf/4.3.3/../../../../arm-elf/lib/interwork/libc.a(lib_a-fwrite.o)
 .ARM.attributes
                0x000010e0       0x10 /usr/local/arm-elf-tools/gcc-4.3.3/lib/gcc/arm-elf/4.3.3/../../../../arm-elf/lib/interwork/libc.a(lib_a-getenv.o)
 .ARM.attributes
                0x000010f0       0x10 /usr/local/arm-elf-tools/gcc-4.3.3/lib/gcc/arm-elf/4.3.3/../../../../arm-elf/lib/interwork/libc.a(lib_a-getenv_r.o)
 .ARM.attributes
                0x00001100       0x10 /usr/local/arm-elf-tools/gcc-4.3.3/lib/gcc/arm-elf/4.3.3/../../../../arm-elf/lib/interwork/libc.a(lib_a-gmtime.o)
 .ARM.attributes
                0x00001110       0x10 /usr/local/arm-elf-tools/gcc-4.3.3/lib/gcc/arm-elf/4.3.3/../../../../arm-elf/lib/interwork/libc.a(lib_a-gmtime_r.o)
 .ARM.attributes
                0x00001120       0x10 /usr/local/arm-elf-tools/gcc-4.3.3/lib/gcc/arm-elf/4.3.3/../../../../arm-elf/lib/interwork/libc.a(lib_a-impure.o)
 .ARM.attributes
                0x00001130       0x10 /usr/local/arm-elf-tools/gcc-4.3.3/lib/gcc/arm-elf/4.3.3/../../../../arm-elf/lib/interwork/libc.a(lib_a-lcltime.o)
 .ARM.attributes
                0x00001140       0x10 /usr/local/arm-elf-tools/gcc-4.3.3/lib/gcc/arm-elf/4.3.3/../../../../arm-elf/lib/interwork/libc.a(lib_a-lcltime_r.o)
 .ARM.attributes
                0x00001150       0x10 /usr/local/arm-elf-tools/gcc-4.3.3/lib/gcc/arm-elf/4.3.3/../../../../arm-elf/lib/interwork/libc.a(lib_a-locale.o)
 .ARM.attributes
                0x00001160       0x10 /usr/local/arm-elf-tools/gcc-4.3.3/lib/gcc/arm-elf/4.3.3/../../../../arm-elf/lib/interwork/libc.a(lib_a-makebuf.o)
 .ARM.attributes
                0x00001170       0x10 /usr/local/arm-elf-tools/gcc-4.3.3/lib/gcc/arm-elf/4.3.3/../../../../arm-elf/lib/interwork/libc.a(lib_a-malloc.o)
 .ARM.attributes
                0x00001180       0x10 /usr/local/arm-elf-tools/gcc-4.3.3/lib/gcc/arm-elf/4.3.3/../../../../arm-elf/lib/interwork/libc.a(lib_a-mallocr.o)
 .ARM.attributes
                0x00001190       0x10 /usr/local/arm-elf-tools/gcc-4.3.3/lib/gcc/arm-elf/4.3.3/../../../../arm-elf/lib/interwork/libc.a(lib_a-memchr.o)
 .ARM.attributes
                0x000011a0       0x10 /usr/local/arm-elf-tools/gcc-4.3.3/lib/gcc/arm-elf/4.3.3/../../../../arm-elf/lib/interwork/libc.a(lib_a-memcmp.o)
 .ARM.attributes
                0x000011b0       0x10 /usr/local/arm-elf-tools/gcc-4.3.3/lib/gcc/arm-elf/4.3.3/../../../../arm-elf/lib/interwork/libc.a(lib_a-memcpy.o)
 .ARM.attributes
                0x000011c0       0x10 /usr/local/arm-elf-tools/gcc-4.3.3/lib/gcc/arm-elf/4.3.3/../../../../arm-elf/lib/interwork/libc.a(lib_a-memmove.o)
 .ARM.attributes
                0x000011d0       0x10 /usr/local/arm-elf-tools/gcc-4.3.3/lib/gcc/arm-elf/4.3.3/../../../../arm-elf/lib/interwork/libc.a(lib_a-memset.o)
 .ARM.attributes
                0x000011e0       0x10 /usr/local/arm-elf-tools/gcc-4.3.3/lib/gcc/arm-elf/4.3.3/../../../../arm-elf/lib/interwork/libc.a(lib_a-mktime.o)
 .ARM.attributes
                0x000011f0       0x10 /usr/local/arm-elf-tools/gcc-4.3.3/lib/gcc/arm-elf/4.3.3/../../../../arm-elf/lib/interwork/libc.a(lib_a-mktm_r.o)
 .ARM.attributes
                0x00001200       0x10 /usr/local/arm-elf-tools/gcc-4.3.3/lib/gcc/arm-elf/4.3.3/../../../../arm-elf/lib/interwork/libc.a(lib_a-mlock.o)
 .ARM.attributes
                0x00001210       0x10 /usr/local/arm-elf-tools/gcc-4.3.3/lib/gcc/arm-elf/4.3.3/../../../../arm-elf/lib/interwork/libc.a(lib_a-printf.o)
 .ARM.attributes
                0x00001220       0x10 /usr/local/arm-elf-tools/gcc-4.3.3/lib/gcc/arm-elf/4.3.3/../../../../arm-elf/lib/interwork/libc.a(lib_a-putc.o)
 .ARM.attributes
                0x00001230       0x10 /usr/local/arm-elf-tools/gcc-4.3.3/lib/gcc/arm-elf/4.3.3/../../../../arm-elf/lib/interwork/libc.a(lib_a-rand.o)
 .ARM.attributes
                0x00001240       0x10 /usr/local/arm-elf-tools/gcc-4.3.3/lib/gcc/arm-elf/4.3.3/../../../../arm-elf/lib/interwork/libc.a(lib_a-realloc.o)
 .ARM.attributes
                0x00001250       0x10 /usr/local/arm-elf-tools/gcc-4.3.3/lib/gcc/arm-elf/4.3.3/../../../../arm-elf/lib/interwork/libc.a(lib_a-reallocr.o)
 .ARM.attributes
                0x00001260       0x10 /usr/local/arm-elf-tools/gcc-4.3.3/lib/gcc/arm-elf/4.3.3/../../../../arm-elf/lib/interwork/libc.a(lib_a-refill.o)
 .ARM.attributes
                0x00001270       0x10 /usr/local/arm-elf-tools/gcc-4.3.3/lib/gcc/arm-elf/4.3.3/../../../../arm-elf/lib/interwork/libc.a(lib_a-remove.o)
 .ARM.attributes
                0x00001280       0x10 /usr/local/arm-elf-tools/gcc-4.3.3/lib/gcc/arm-elf/4.3.3/../../../../arm-elf/lib/interwork/libc.a(lib_a-rget.o)
 .ARM.attributes
                0x00001290       0x10 /usr/local/arm-elf-tools/gcc-4.3.3/lib/gcc/arm-elf/4.3.3/../../../../arm-elf/lib/interwork/libc.a(lib_a-setjmp.o)
 .ARM.attributes
                0x000012a0       0x10 /usr/local/arm-elf-tools/gcc-4.3.3/lib/gcc/arm-elf/4.3.3/../../../../arm-elf/lib/interwork/libc.a(lib_a-setvbuf.o)
 .ARM.attributes
                0x000012b0       0x10 /usr/local/arm-elf-tools/gcc-4.3.3/lib/gcc/arm-elf/4.3.3/../../../../arm-elf/lib/interwork/libc.a(lib_a-signal.o)
 .ARM.attributes
                0x000012c0       0x10 /usr/local/arm-elf-tools/gcc-4.3.3/lib/gcc/arm-elf/4.3.3/../../../../arm-elf/lib/interwork/libc.a(lib_a-snprintf.o)
 .ARM.attributes
                0x000012d0       0x10 /usr/local/arm-elf-tools/gcc-4.3.3/lib/gcc/arm-elf/4.3.3/../../../../arm-elf/lib/interwork/libc.a(lib_a-sprintf.o)
 .ARM.attributes
                0x000012e0       0x10 /usr/local/arm-elf-tools/gcc-4.3.3/lib/gcc/arm-elf/4.3.3/../../../../arm-elf/lib/interwork/libc.a(lib_a-stdio.o)
 .ARM.attributes
                0x000012f0       0x10 /usr/local/arm-elf-tools/gcc-4.3.3/lib/gcc/arm-elf/4.3.3/../../../../arm-elf/lib/interwork/libc.a(lib_a-strcat.o)
 .ARM.attributes
                0x00001300       0x10 /usr/local/arm-elf-tools/gcc-4.3.3/lib/gcc/arm-elf/4.3.3/../../../../arm-elf/lib/interwork/libc.a(lib_a-strchr.o)
 .ARM.attributes
                0x00001310       0x10 /usr/local/arm-elf-tools/gcc-4.3.3/lib/gcc/arm-elf/4.3.3/../../../../arm-elf/lib/interwork/libc.a(lib_a-strcmp.o)
 .ARM.attributes
                0x00001320       0x10 /usr/local/arm-elf-tools/gcc-4.3.3/lib/gcc/arm-elf/4.3.3/../../../../arm-elf/lib/interwork/libc.a(lib_a-strcoll.o)
 .ARM.attributes
                0x00001330       0x10 /usr/local/arm-elf-tools/gcc-4.3.3/lib/gcc/arm-elf/4.3.3/../../../../arm-elf/lib/interwork/libc.a(lib_a-strcpy.o)
 .ARM.attributes
                0x00001340       0x10 /usr/local/arm-elf-tools/gcc-4.3.3/lib/gcc/arm-elf/4.3.3/../../../../arm-elf/lib/interwork/libc.a(lib_a-strcspn.o)
 .ARM.attributes
                0x00001350       0x10 /usr/local/arm-elf-tools/gcc-4.3.3/lib/gcc/arm-elf/4.3.3/../../../../arm-elf/lib/interwork/libc.a(lib_a-strerror.o)
 .ARM.attributes
                0x00001360       0x10 /usr/local/arm-elf-tools/gcc-4.3.3/lib/gcc/arm-elf/4.3.3/../../../../arm-elf/lib/interwork/libc.a(lib_a-strftime.o)
 .ARM.attributes
                0x00001370       0x10 /usr/local/arm-elf-tools/gcc-4.3.3/lib/gcc/arm-elf/4.3.3/../../../../arm-elf/lib/interwork/libc.a(lib_a-strlen.o)
 .ARM.attributes
                0x00001380       0x10 /usr/local/arm-elf-tools/gcc-4.3.3/lib/gcc/arm-elf/4.3.3/../../../../arm-elf/lib/interwork/libc.a(lib_a-strncat.o)
 .ARM.attributes
                0x00001390       0x10 /usr/local/arm-elf-tools/gcc-4.3.3/lib/gcc/arm-elf/4.3.3/../../../../arm-elf/lib/interwork/libc.a(lib_a-strncmp.o)
 .ARM.attributes
                0x000013a0       0x10 /usr/local/arm-elf-tools/gcc-4.3.3/lib/gcc/arm-elf/4.3.3/../../../../arm-elf/lib/interwork/libc.a(lib_a-strncpy.o)
 .ARM.attributes
                0x000013b0       0x10 /usr/local/arm-elf-tools/gcc-4.3.3/lib/gcc/arm-elf/4.3.3/../../../../arm-elf/lib/interwork/libc.a(lib_a-strnlen.o)
 .ARM.attributes
                0x000013c0       0x10 /usr/local/arm-elf-tools/gcc-4.3.3/lib/gcc/arm-elf/4.3.3/../../../../arm-elf/lib/interwork/libc.a(lib_a-strpbrk.o)
 .ARM.attributes
                0x000013d0       0x10 /usr/local/arm-elf-tools/gcc-4.3.3/lib/gcc/arm-elf/4.3.3/../../../../arm-elf/lib/interwork/libc.a(lib_a-strrchr.o)
 .ARM.attributes
                0x000013e0       0x10 /usr/local/arm-elf-tools/gcc-4.3.3/lib/gcc/arm-elf/4.3.3/../../../../arm-elf/lib/interwork/libc.a(lib_a-strstr.o)
 .ARM.attributes
                0x000013f0       0x10 /usr/local/arm-elf-tools/gcc-4.3.3/lib/gcc/arm-elf/4.3.3/../../../../arm-elf/lib/interwork/libc.a(lib_a-strtod.o)
 .ARM.attributes
                0x00001400       0x10 /usr/local/arm-elf-tools/gcc-4.3.3/lib/gcc/arm-elf/4.3.3/../../../../arm-elf/lib/interwork/libc.a(lib_a-strtoul.o)
 .ARM.attributes
                0x00001410       0x10 /usr/local/arm-elf-tools/gcc-4.3.3/lib/gcc/arm-elf/4.3.3/../../../../arm-elf/lib/interwork/libc.a(lib_a-svfprintf.o)
 .ARM.attributes
                0x00001420       0x10 /usr/local/arm-elf-tools/gcc-4.3.3/lib/gcc/arm-elf/4.3.3/../../../../arm-elf/lib/interwork/libc.a(lib_a-sysclose.o)
 .ARM.attributes
                0x00001430       0x10 /usr/local/arm-elf-tools/gcc-4.3.3/lib/gcc/arm-elf/4.3.3/../../../../arm-elf/lib/interwork/libc.a(lib_a-sysgettod.o)
 .ARM.attributes
                0x00001440       0x10 /usr/local/arm-elf-tools/gcc-4.3.3/lib/gcc/arm-elf/4.3.3/../../../../arm-elf/lib/interwork/libc.a(lib_a-sysopen.o)
 .ARM.attributes
                0x00001450       0x10 /usr/local/arm-elf-tools/gcc-4.3.3/lib/gcc/arm-elf/4.3.3/../../../../arm-elf/lib/interwork/libc.a(lib_a-sysread.o)
 .ARM.attributes
                0x00001460       0x10 /usr/local/arm-elf-tools/gcc-4.3.3/lib/gcc/arm-elf/4.3.3/../../../../arm-elf/lib/interwork/libc.a(lib_a-system.o)
 .ARM.attributes
                0x00001470       0x10 /usr/local/arm-elf-tools/gcc-4.3.3/lib/gcc/arm-elf/4.3.3/../../../../arm-elf/lib/interwork/libc.a(lib_a-sysunlink.o)
 .ARM.attributes
                0x00001480       0x10 /usr/local/arm-elf-tools/gcc-4.3.3/lib/gcc/arm-elf/4.3.3/../../../../arm-elf/lib/interwork/libc.a(lib_a-syswrite.o)
 .ARM.attributes
                0x00001490       0x10 /usr/local/arm-elf-tools/gcc-4.3.3/lib/gcc/arm-elf/4.3.3/../../../../arm-elf/lib/interwork/libc.a(lib_a-time.o)
 .ARM.attributes
                0x000014a0       0x10 /usr/local/arm-elf-tools/gcc-4.3.3/lib/gcc/arm-elf/4.3.3/../../../../arm-elf/lib/interwork/libc.a(lib_a-timesr.o)
 .ARM.attributes
                0x000014b0       0x10 /usr/local/arm-elf-tools/gcc-4.3.3/lib/gcc/arm-elf/4.3.3/../../../../arm-elf/lib/interwork/libc.a(lib_a-tmpfile.o)
 .ARM.attributes
                0x000014c0       0x10 /usr/local/arm-elf-tools/gcc-4.3.3/lib/gcc/arm-elf/4.3.3/../../../../arm-elf/lib/interwork/libc.a(lib_a-tmpnam.o)
 .ARM.attributes
                0x000014d0       0x10 /usr/local/arm-elf-tools/gcc-4.3.3/lib/gcc/arm-elf/4.3.3/../../../../arm-elf/lib/interwork/libc.a(lib_a-tzlock.o)
 .ARM.attributes
                0x000014e0       0x10 /usr/local/arm-elf-tools/gcc-4.3.3/lib/gcc/arm-elf/4.3.3/../../../../arm-elf/lib/interwork/libc.a(lib_a-tzvars.o)
 .ARM.attributes
                0x000014f0       0x10 /usr/local/arm-elf-tools/gcc-4.3.3/lib/gcc/arm-elf/4.3.3/../../../../arm-elf/lib/interwork/libc.a(lib_a-ungetc.o)
 .ARM.attributes
                0x00001500       0x10 /usr/local/arm-elf-tools/gcc-4.3.3/lib/gcc/arm-elf/4.3.3/../../../../arm-elf/lib/interwork/libc.a(lib_a-u_strerr.o)
 .ARM.attributes
                0x00001510       0x10 /usr/local/arm-elf-tools/gcc-4.3.3/lib/gcc/arm-elf/4.3.3/../../../../arm-elf/lib/interwork/libc.a(lib_a-vfprintf.o)
 .ARM.attributes
                0x00001520       0x10 /usr/local/arm-elf-tools/gcc-4.3.3/lib/gcc/arm-elf/4.3.3/../../../../arm-elf/lib/interwork/libc.a(lib_a-vfscanf.o)
 .ARM.attributes
                0x00001530       0x10 /usr/local/arm-elf-tools/gcc-4.3.3/lib/gcc/arm-elf/4.3.3/../../../../arm-elf/lib/interwork/libc.a(lib_a-vsnprintf.o)
 .ARM.attributes
                0x00001540       0x10 /usr/local/arm-elf-tools/gcc-4.3.3/lib/gcc/arm-elf/4.3.3/../../../../arm-elf/lib/interwork/libc.a(lib_a-wbuf.o)
 .ARM.attributes
                0x00001550       0x10 /usr/local/arm-elf-tools/gcc-4.3.3/lib/gcc/arm-elf/4.3.3/../../../../arm-elf/lib/interwork/libc.a(lib_a-wsetup.o)
 .ARM.attributes
                0x00001560       0x10 /usr/local/arm-elf-tools/gcc-4.3.3/lib/gcc/arm-elf/4.3.3/../../../../arm-elf/lib/interwork/libc.a(lib_a-abs.o)
 .ARM.attributes
                0x00001570       0x10 /usr/local/arm-elf-tools/gcc-4.3.3/lib/gcc/arm-elf/4.3.3/../../../../arm-elf/lib/interwork/libc.a(lib_a-__call_atexit.o)
 .ARM.attributes
                0x00001580       0x10 /usr/local/arm-elf-tools/gcc-4.3.3/lib/gcc/arm-elf/4.3.3/../../../../arm-elf/lib/interwork/libc.a(lib_a-div.o)
 .ARM.attributes
                0x00001590       0x10 /usr/local/arm-elf-tools/gcc-4.3.3/lib/gcc/arm-elf/4.3.3/../../../../arm-elf/lib/interwork/libc.a(lib_a-dtoa.o)
 .ARM.attributes
                0x000015a0       0x10 /usr/local/arm-elf-tools/gcc-4.3.3/lib/gcc/arm-elf/4.3.3/../../../../arm-elf/lib/interwork/libc.a(lib_a-environ.o)
 .ARM.attributes
                0x000015b0       0x10 /usr/local/arm-elf-tools/gcc-4.3.3/lib/gcc/arm-elf/4.3.3/../../../../arm-elf/lib/interwork/libc.a(lib_a-envlock.o)
 .ARM.attributes
                0x000015c0       0x10 /usr/local/arm-elf-tools/gcc-4.3.3/lib/gcc/arm-elf/4.3.3/../../../../arm-elf/lib/interwork/libc.a(lib_a-gdtoa-gethex.o)
 .ARM.attributes
                0x000015d0       0x10 /usr/local/arm-elf-tools/gcc-4.3.3/lib/gcc/arm-elf/4.3.3/../../../../arm-elf/lib/interwork/libc.a(lib_a-gdtoa-hexnan.o)
 .ARM.attributes
                0x000015e0       0x10 /usr/local/arm-elf-tools/gcc-4.3.3/lib/gcc/arm-elf/4.3.3/../../../../arm-elf/lib/interwork/libc.a(lib_a-gettimeofdayr.o)
 .ARM.attributes
                0x000015f0       0x10 /usr/local/arm-elf-tools/gcc-4.3.3/lib/gcc/arm-elf/4.3.3/../../../../arm-elf/lib/interwork/libc.a(lib_a-gettzinfo.o)
 .ARM.attributes
                0x00001600       0x10 /usr/local/arm-elf-tools/gcc-4.3.3/lib/gcc/arm-elf/4.3.3/../../../../arm-elf/lib/interwork/libc.a(lib_a-isattyr.o)
 .ARM.attributes
                0x00001610       0x10 /usr/local/arm-elf-tools/gcc-4.3.3/lib/gcc/arm-elf/4.3.3/../../../../arm-elf/lib/interwork/libc.a(lib_a-iswspace.o)
 .ARM.attributes
                0x00001620       0x10 /usr/local/arm-elf-tools/gcc-4.3.3/lib/gcc/arm-elf/4.3.3/../../../../arm-elf/lib/interwork/libc.a(lib_a-labs.o)
 .ARM.attributes
                0x00001630       0x10 /usr/local/arm-elf-tools/gcc-4.3.3/lib/gcc/arm-elf/4.3.3/../../../../arm-elf/lib/interwork/libc.a(lib_a-mbrtowc.o)
 .ARM.attributes
                0x00001640       0x10 /usr/local/arm-elf-tools/gcc-4.3.3/lib/gcc/arm-elf/4.3.3/../../../../arm-elf/lib/interwork/libc.a(lib_a-mbtowc_r.o)
 .ARM.attributes
                0x00001650       0x10 /usr/local/arm-elf-tools/gcc-4.3.3/lib/gcc/arm-elf/4.3.3/../../../../arm-elf/lib/interwork/libc.a(lib_a-mprec.o)
 .ARM.attributes
                0x00001660       0x10 /usr/local/arm-elf-tools/gcc-4.3.3/lib/gcc/arm-elf/4.3.3/../../../../arm-elf/lib/interwork/libc.a(lib_a-reent.o)
 .ARM.attributes
                0x00001670       0x10 /usr/local/arm-elf-tools/gcc-4.3.3/lib/gcc/arm-elf/4.3.3/../../../../arm-elf/lib/interwork/libc.a(lib_a-sccl.o)
 .ARM.attributes
                0x00001680       0x10 /usr/local/arm-elf-tools/gcc-4.3.3/lib/gcc/arm-elf/4.3.3/../../../../arm-elf/lib/interwork/libc.a(lib_a-sf_nan.o)
 .ARM.attributes
                0x00001690       0x10 /usr/local/arm-elf-tools/gcc-4.3.3/lib/gcc/arm-elf/4.3.3/../../../../arm-elf/lib/interwork/libc.a(lib_a-s_isinfd.o)
 .ARM.attributes
                0x000016a0       0x10 /usr/local/arm-elf-tools/gcc-4.3.3/lib/gcc/arm-elf/4.3.3/../../../../arm-elf/lib/interwork/libc.a(lib_a-strtol.o)

.debug_abbrev   0x00000000     0xfd14
 .debug_abbrev  0x00000000      0x11d /usr/local/arm-elf-tools/gcc-4.3.3/lib/gcc/arm-elf/4.3.3/../../../../arm-elf/lib/interwork/libm.a(lib_a-s_atan.o)
 .debug_abbrev  0x0000011d      0x10d /usr/local/arm-elf-tools/gcc-4.3.3/lib/gcc/arm-elf/4.3.3/../../../../arm-elf/lib/interwork/libm.a(lib_a-s_ceil.o)
 .debug_abbrev  0x0000022a       0xa1 /usr/local/arm-elf-tools/gcc-4.3.3/lib/gcc/arm-elf/4.3.3/../../../../arm-elf/lib/interwork/libm.a(lib_a-s_cos.o)
 .debug_abbrev  0x000002cb       0xd3 /usr/local/arm-elf-tools/gcc-4.3.3/lib/gcc/arm-elf/4.3.3/../../../../arm-elf/lib/interwork/libm.a(lib_a-s_fabs.o)
 .debug_abbrev  0x0000039e      0x10d /usr/local/arm-elf-tools/gcc-4.3.3/lib/gcc/arm-elf/4.3.3/../../../../arm-elf/lib/interwork/libm.a(lib_a-s_floor.o)
 .debug_abbrev  0x000004ab      0x123 /usr/local/arm-elf-tools/gcc-4.3.3/lib/gcc/arm-elf/4.3.3/../../../../arm-elf/lib/interwork/libm.a(lib_a-s_frexp.o)
 .debug_abbrev  0x000005ce       0x66 /usr/local/arm-elf-tools/gcc-4.3.3/lib/gcc/arm-elf/4.3.3/../../../../arm-elf/lib/interwork/libm.a(lib_a-s_ldexp.o)
 .debug_abbrev  0x00000634      0x133 /usr/local/arm-elf-tools/gcc-4.3.3/lib/gcc/arm-elf/4.3.3/../../../../arm-elf/lib/interwork/libm.a(lib_a-s_modf.o)
 .debug_abbrev  0x00000767      0x114 /usr/local/arm-elf-tools/gcc-4.3.3/lib/gcc/arm-elf/4.3.3/../../../../arm-elf/lib/interwork/libm.a(lib_a-s_scalbn.o)
 .debug_abbrev  0x0000087b       0xa1 /usr/local/arm-elf-tools/gcc-4.3.3/lib/gcc/arm-elf/4.3.3/../../../../arm-elf/lib/interwork/libm.a(lib_a-s_sin.o)
 .debug_abbrev  0x0000091c       0xf5 /usr/local/arm-elf-tools/gcc-4.3.3/lib/gcc/arm-elf/4.3.3/../../../../arm-elf/lib/interwork/libm.a(lib_a-s_tanh.o)
 .debug_abbrev  0x00000a11       0xfc /usr/local/arm-elf-tools/gcc-4.3.3/lib/gcc/arm-elf/4.3.3/../../../../arm-elf/lib/interwork/libm.a(lib_a-s_tan.o)
 .debug_abbrev  0x00000b0d       0xec /usr/local/arm-elf-tools/gcc-4.3.3/lib/gcc/arm-elf/4.3.3/../../../../arm-elf/lib/interwork/libm.a(lib_a-w_acos.o)
 .debug_abbrev  0x00000bf9       0xec /usr/local/arm-elf-tools/gcc-4.3.3/lib/gcc/arm-elf/4.3.3/../../../../arm-elf/lib/interwork/libm.a(lib_a-w_asin.o)
 .debug_abbrev  0x00000ce5       0x57 /usr/local/arm-elf-tools/gcc-4.3.3/lib/gcc/arm-elf/4.3.3/../../../../arm-elf/lib/interwork/libm.a(lib_a-w_atan2.o)
 .debug_abbrev  0x00000d3c       0xec /usr/local/arm-elf-tools/gcc-4.3.3/lib/gcc/arm-elf/4.3.3/../../../../arm-elf/lib/interwork/libm.a(lib_a-w_cosh.o)
 .debug_abbrev  0x00000e28       0xec /usr/local/arm-elf-tools/gcc-4.3.3/lib/gcc/arm-elf/4.3.3/../../../../arm-elf/lib/interwork/libm.a(lib_a-w_exp.o)
 .debug_abbrev  0x00000f14       0xf7 /usr/local/arm-elf-tools/gcc-4.3.3/lib/gcc/arm-elf/4.3.3/../../../../arm-elf/lib/interwork/libm.a(lib_a-w_fmod.o)
 .debug_abbrev  0x0000100b       0xec /usr/local/arm-elf-tools/gcc-4.3.3/lib/gcc/arm-elf/4.3.3/../../../../arm-elf/lib/interwork/libm.a(lib_a-w_log10.o)
 .debug_abbrev  0x000010f7       0xec /usr/local/arm-elf-tools/gcc-4.3.3/lib/gcc/arm-elf/4.3.3/../../../../arm-elf/lib/interwork/libm.a(lib_a-w_log.o)
 .debug_abbrev  0x000011e3       0xf7 /usr/local/arm-elf-tools/gcc-4.3.3/lib/gcc/arm-elf/4.3.3/../../../../arm-elf/lib/interwork/libm.a(lib_a-w_pow.o)
 .debug_abbrev  0x000012da       0xd6 /usr/local/arm-elf-tools/gcc-4.3.3/lib/gcc/arm-elf/4.3.3/../../../../arm-elf/lib/interwork/libm.a(lib_a-w_sinh.o)
 .debug_abbrev  0x000013b0       0xec /usr/local/arm-elf-tools/gcc-4.3.3/lib/gcc/arm-elf/4.3.3/../../../../arm-elf/lib/interwork/libm.a(lib_a-w_sqrt.o)
 .debug_abbrev  0x0000149c      0x123 /usr/local/arm-elf-tools/gcc-4.3.3/lib/gcc/arm-elf/4.3.3/../../../../arm-elf/lib/interwork/libm.a(lib_a-e_acos.o)
 .debug_abbrev  0x000015bf      0x134 /usr/local/arm-elf-tools/gcc-4.3.3/lib/gcc/arm-elf/4.3.3/../../../../arm-elf/lib/interwork/libm.a(lib_a-e_asin.o)
 .debug_abbrev  0x000016f3      0x11a /usr/local/arm-elf-tools/gcc-4.3.3/lib/gcc/arm-elf/4.3.3/../../../../arm-elf/lib/interwork/libm.a(lib_a-e_atan2.o)
 .debug_abbrev  0x0000180d       0xf5 /usr/local/arm-elf-tools/gcc-4.3.3/lib/gcc/arm-elf/4.3.3/../../../../arm-elf/lib/interwork/libm.a(lib_a-e_cosh.o)
 .debug_abbrev  0x00001902      0x137 /usr/local/arm-elf-tools/gcc-4.3.3/lib/gcc/arm-elf/4.3.3/../../../../arm-elf/lib/interwork/libm.a(lib_a-e_exp.o)
 .debug_abbrev  0x00001a39      0x119 /usr/local/arm-elf-tools/gcc-4.3.3/lib/gcc/arm-elf/4.3.3/../../../../arm-elf/lib/interwork/libm.a(lib_a-e_fmod.o)
 .debug_abbrev  0x00001b52       0xfa /usr/local/arm-elf-tools/gcc-4.3.3/lib/gcc/arm-elf/4.3.3/../../../../arm-elf/lib/interwork/libm.a(lib_a-e_log10.o)
 .debug_abbrev  0x00001c4c      0x125 /usr/local/arm-elf-tools/gcc-4.3.3/lib/gcc/arm-elf/4.3.3/../../../../arm-elf/lib/interwork/libm.a(lib_a-e_log.o)
 .debug_abbrev  0x00001d71      0x155 /usr/local/arm-elf-tools/gcc-4.3.3/lib/gcc/arm-elf/4.3.3/../../../../arm-elf/lib/interwork/libm.a(lib_a-e_pow.o)
 .debug_abbrev  0x00001ec6      0x154 /usr/local/arm-elf-tools/gcc-4.3.3/lib/gcc/arm-elf/4.3.3/../../../../arm-elf/lib/interwork/libm.a(lib_a-e_rem_pio2.o)
 .debug_abbrev  0x0000201a       0x9a /usr/local/arm-elf-tools/gcc-4.3.3/lib/gcc/arm-elf/4.3.3/../../../../arm-elf/lib/interwork/libm.a(lib_a-e_sinh.o)
 .debug_abbrev  0x000020b4      0x118 /usr/local/arm-elf-tools/gcc-4.3.3/lib/gcc/arm-elf/4.3.3/../../../../arm-elf/lib/interwork/libm.a(lib_a-e_sqrt.o)
 .debug_abbrev  0x000021cc      0x10d /usr/local/arm-elf-tools/gcc-4.3.3/lib/gcc/arm-elf/4.3.3/../../../../arm-elf/lib/interwork/libm.a(lib_a-k_cos.o)
 .debug_abbrev  0x000022d9      0x109 /usr/local/arm-elf-tools/gcc-4.3.3/lib/gcc/arm-elf/4.3.3/../../../../arm-elf/lib/interwork/libm.a(lib_a-k_rem_pio2.o)
 .debug_abbrev  0x000023e2       0xf3 /usr/local/arm-elf-tools/gcc-4.3.3/lib/gcc/arm-elf/4.3.3/../../../../arm-elf/lib/interwork/libm.a(lib_a-k_sin.o)
 .debug_abbrev  0x000024d5      0x13e /usr/local/arm-elf-tools/gcc-4.3.3/lib/gcc/arm-elf/4.3.3/../../../../arm-elf/lib/interwork/libm.a(lib_a-k_tan.o)
 .debug_abbrev  0x00002613       0xe4 /usr/local/arm-elf-tools/gcc-4.3.3/lib/gcc/arm-elf/4.3.3/../../../../arm-elf/lib/interwork/libm.a(lib_a-s_copysign.o)
 .debug_abbrev  0x000026f7      0x155 /usr/local/arm-elf-tools/gcc-4.3.3/lib/gcc/arm-elf/4.3.3/../../../../arm-elf/lib/interwork/libm.a(lib_a-s_expm1.o)
 .debug_abbrev  0x0000284c       0xca /usr/local/arm-elf-tools/gcc-4.3.3/lib/gcc/arm-elf/4.3.3/../../../../arm-elf/lib/interwork/libm.a(lib_a-s_finite.o)
 .debug_abbrev  0x00002916       0xcc /usr/local/arm-elf-tools/gcc-4.3.3/lib/gcc/arm-elf/4.3.3/../../../../arm-elf/lib/interwork/libm.a(lib_a-s_isnand.o)
 .debug_abbrev  0x000029e2       0x5a /usr/local/arm-elf-tools/gcc-4.3.3/lib/gcc/arm-elf/4.3.3/../../../../arm-elf/lib/interwork/libm.a(lib_a-s_lib_ver.o)
 .debug_abbrev  0x00002a3c       0x9c /usr/local/arm-elf-tools/gcc-4.3.3/lib/gcc/arm-elf/4.3.3/../../../../arm-elf/lib/interwork/libm.a(lib_a-s_matherr.o)
 .debug_abbrev  0x00002ad8       0xda /usr/local/arm-elf-tools/gcc-4.3.3/lib/gcc/arm-elf/4.3.3/../../../../arm-elf/lib/interwork/libm.a(lib_a-s_nan.o)
 .debug_abbrev  0x00002bb2      0x12f /usr/local/arm-elf-tools/gcc-4.3.3/lib/gcc/arm-elf/4.3.3/../../../../arm-elf/lib/interwork/libm.a(lib_a-s_rint.o)
 .debug_abbrev  0x00002ce1       0x14 /usr/local/arm-elf-tools/gcc-4.3.3/lib/gcc/arm-elf/4.3.3/interwork/libgcc.a(_udivsi3.o)
 .debug_abbrev  0x00002cf5       0x14 /usr/local/arm-elf-tools/gcc-4.3.3/lib/gcc/arm-elf/4.3.3/interwork/libgcc.a(_divsi3.o)
 .debug_abbrev  0x00002d09       0x14 /usr/local/arm-elf-tools/gcc-4.3.3/lib/gcc/arm-elf/4.3.3/interwork/libgcc.a(_umodsi3.o)
 .debug_abbrev  0x00002d1d       0x14 /usr/local/arm-elf-tools/gcc-4.3.3/lib/gcc/arm-elf/4.3.3/interwork/libgcc.a(_modsi3.o)
 .debug_abbrev  0x00002d31       0x14 /usr/local/arm-elf-tools/gcc-4.3.3/lib/gcc/arm-elf/4.3.3/interwork/libgcc.a(_dvmd_tls.o)
 .debug_abbrev  0x00002d45       0x66 /usr/local/arm-elf-tools/gcc-4.3.3/lib/gcc/arm-elf/4.3.3/interwork/libgcc.a(_fixunsdfsi.o)
 .debug_abbrev  0x00002dab      0x1e7 /usr/local/arm-elf-tools/gcc-4.3.3/lib/gcc/arm-elf/4.3.3/interwork/libgcc.a(_mul_sf.o)
 .debug_abbrev  0x00002f92      0x1e2 /usr/local/arm-elf-tools/gcc-4.3.3/lib/gcc/arm-elf/4.3.3/interwork/libgcc.a(_div_sf.o)
 .debug_abbrev  0x00003174      0x160 /usr/local/arm-elf-tools/gcc-4.3.3/lib/gcc/arm-elf/4.3.3/interwork/libgcc.a(_eq_sf.o)
 .debug_abbrev  0x000032d4      0x136 /usr/local/arm-elf-tools/gcc-4.3.3/lib/gcc/arm-elf/4.3.3/interwork/libgcc.a(_si_to_sf.o)
 .debug_abbrev  0x0000340a      0x131 /usr/local/arm-elf-tools/gcc-4.3.3/lib/gcc/arm-elf/4.3.3/interwork/libgcc.a(_sf_to_df.o)
 .debug_abbrev  0x0000353b       0xc3 /usr/local/arm-elf-tools/gcc-4.3.3/lib/gcc/arm-elf/4.3.3/interwork/libgcc.a(_thenan_sf.o)
 .debug_abbrev  0x000035fe      0x145 /usr/local/arm-elf-tools/gcc-4.3.3/lib/gcc/arm-elf/4.3.3/interwork/libgcc.a(_usi_to_sf.o)
 .debug_abbrev  0x00003743      0x1cb /usr/local/arm-elf-tools/gcc-4.3.3/lib/gcc/arm-elf/4.3.3/interwork/libgcc.a(_addsub_df.o)
 .debug_abbrev  0x0000390e      0x1ee /usr/local/arm-elf-tools/gcc-4.3.3/lib/gcc/arm-elf/4.3.3/interwork/libgcc.a(_mul_df.o)
 .debug_abbrev  0x00003afc      0x1e2 /usr/local/arm-elf-tools/gcc-4.3.3/lib/gcc/arm-elf/4.3.3/interwork/libgcc.a(_div_df.o)
 .debug_abbrev  0x00003cde      0x160 /usr/local/arm-elf-tools/gcc-4.3.3/lib/gcc/arm-elf/4.3.3/interwork/libgcc.a(_eq_df.o)
 .debug_abbrev  0x00003e3e      0x160 /usr/local/arm-elf-tools/gcc-4.3.3/lib/gcc/arm-elf/4.3.3/interwork/libgcc.a(_ne_df.o)
 .debug_abbrev  0x00003f9e      0x160 /usr/local/arm-elf-tools/gcc-4.3.3/lib/gcc/arm-elf/4.3.3/interwork/libgcc.a(_gt_df.o)
 .debug_abbrev  0x000040fe      0x160 /usr/local/arm-elf-tools/gcc-4.3.3/lib/gcc/arm-elf/4.3.3/interwork/libgcc.a(_ge_df.o)
 .debug_abbrev  0x0000425e      0x160 /usr/local/arm-elf-tools/gcc-4.3.3/lib/gcc/arm-elf/4.3.3/interwork/libgcc.a(_lt_df.o)
 .debug_abbrev  0x000043be      0x160 /usr/local/arm-elf-tools/gcc-4.3.3/lib/gcc/arm-elf/4.3.3/interwork/libgcc.a(_le_df.o)
 .debug_abbrev  0x0000451e      0x136 /usr/local/arm-elf-tools/gcc-4.3.3/lib/gcc/arm-elf/4.3.3/interwork/libgcc.a(_si_to_df.o)
 .debug_abbrev  0x00004654      0x16f /usr/local/arm-elf-tools/gcc-4.3.3/lib/gcc/arm-elf/4.3.3/interwork/libgcc.a(_df_to_si.o)
 .debug_abbrev  0x000047c3      0x109 /usr/local/arm-elf-tools/gcc-4.3.3/lib/gcc/arm-elf/4.3.3/interwork/libgcc.a(_make_df.o)
 .debug_abbrev  0x000048cc      0x140 /usr/local/arm-elf-tools/gcc-4.3.3/lib/gcc/arm-elf/4.3.3/interwork/libgcc.a(_df_to_sf.o)
 .debug_abbrev  0x00004a0c       0xc3 /usr/local/arm-elf-tools/gcc-4.3.3/lib/gcc/arm-elf/4.3.3/interwork/libgcc.a(_thenan_df.o)
 .debug_abbrev  0x00004acf      0x145 /usr/local/arm-elf-tools/gcc-4.3.3/lib/gcc/arm-elf/4.3.3/interwork/libgcc.a(_usi_to_df.o)
 .debug_abbrev  0x00004c14       0xdf /usr/local/arm-elf-tools/gcc-4.3.3/lib/gcc/arm-elf/4.3.3/interwork/libgcc.a(_ucmpdi2.o)
 .debug_abbrev  0x00004cf3       0xb3 /usr/local/arm-elf-tools/gcc-4.3.3/lib/gcc/arm-elf/4.3.3/interwork/libgcc.a(_clzsi2.o)
 .debug_abbrev  0x00004da6      0x19f /usr/local/arm-elf-tools/gcc-4.3.3/lib/gcc/arm-elf/4.3.3/interwork/libgcc.a(_pack_sf.o)
 .debug_abbrev  0x00004f45      0x163 /usr/local/arm-elf-tools/gcc-4.3.3/lib/gcc/arm-elf/4.3.3/interwork/libgcc.a(_unpack_sf.o)
 .debug_abbrev  0x000050a8      0x11a /usr/local/arm-elf-tools/gcc-4.3.3/lib/gcc/arm-elf/4.3.3/interwork/libgcc.a(_fpcmp_parts_sf.o)
 .debug_abbrev  0x000051c2      0x109 /usr/local/arm-elf-tools/gcc-4.3.3/lib/gcc/arm-elf/4.3.3/interwork/libgcc.a(_make_sf.o)
 .debug_abbrev  0x000052cb      0x1b3 /usr/local/arm-elf-tools/gcc-4.3.3/lib/gcc/arm-elf/4.3.3/interwork/libgcc.a(_pack_df.o)
 .debug_abbrev  0x0000547e      0x154 /usr/local/arm-elf-tools/gcc-4.3.3/lib/gcc/arm-elf/4.3.3/interwork/libgcc.a(_unpack_df.o)
 .debug_abbrev  0x000055d2      0x11a /usr/local/arm-elf-tools/gcc-4.3.3/lib/gcc/arm-elf/4.3.3/interwork/libgcc.a(_fpcmp_parts_df.o)
 .debug_abbrev  0x000056ec       0x6a /usr/local/arm-elf-tools/gcc-4.3.3/lib/gcc/arm-elf/4.3.3/interwork/libgcc.a(_clz.o)
 .debug_abbrev  0x00005756       0x46 /usr/local/arm-elf-tools/gcc-4.3.3/lib/gcc/arm-elf/4.3.3/../../../../arm-elf/lib/interwork/libc.a(lib_a-abort.o)
 .debug_abbrev  0x0000579c      0x186 /usr/local/arm-elf-tools/gcc-4.3.3/lib/gcc/arm-elf/4.3.3/../../../../arm-elf/lib/interwork/libc.a(lib_a-calloc.o)
 .debug_abbrev  0x00005922      0x1ce /usr/local/arm-elf-tools/gcc-4.3.3/lib/gcc/arm-elf/4.3.3/../../../../arm-elf/lib/interwork/libc.a(lib_a-callocr.o)
 .debug_abbrev  0x00005af0      0x195 /usr/local/arm-elf-tools/gcc-4.3.3/lib/gcc/arm-elf/4.3.3/../../../../arm-elf/lib/interwork/libc.a(lib_a-clock.o)
 .debug_abbrev  0x00005c85       0x59 /usr/local/arm-elf-tools/gcc-4.3.3/lib/gcc/arm-elf/4.3.3/../../../../arm-elf/lib/interwork/libc.a(lib_a-ctype_.o)
 .debug_abbrev  0x00005cde       0x66 /usr/local/arm-elf-tools/gcc-4.3.3/lib/gcc/arm-elf/4.3.3/../../../../arm-elf/lib/interwork/libc.a(lib_a-difftime.o)
 .debug_abbrev  0x00005d44      0x166 /usr/local/arm-elf-tools/gcc-4.3.3/lib/gcc/arm-elf/4.3.3/../../../../arm-elf/lib/interwork/libc.a(lib_a-errno.o)
 .debug_abbrev  0x00005eaa      0x175 /usr/local/arm-elf-tools/gcc-4.3.3/lib/gcc/arm-elf/4.3.3/../../../../arm-elf/lib/interwork/libc.a(lib_a-exit.o)
 .debug_abbrev  0x0000601f      0x1ae /usr/local/arm-elf-tools/gcc-4.3.3/lib/gcc/arm-elf/4.3.3/../../../../arm-elf/lib/interwork/libc.a(lib_a-fclose.o)
 .debug_abbrev  0x000061cd      0x1bd /usr/local/arm-elf-tools/gcc-4.3.3/lib/gcc/arm-elf/4.3.3/../../../../arm-elf/lib/interwork/libc.a(lib_a-fdopen.o)
 .debug_abbrev  0x0000638a      0x1a9 /usr/local/arm-elf-tools/gcc-4.3.3/lib/gcc/arm-elf/4.3.3/../../../../arm-elf/lib/interwork/libc.a(lib_a-fflush.o)
 .debug_abbrev  0x00006533      0x186 /usr/local/arm-elf-tools/gcc-4.3.3/lib/gcc/arm-elf/4.3.3/../../../../arm-elf/lib/interwork/libc.a(lib_a-fgets.o)
 .debug_abbrev  0x000066b9      0x184 /usr/local/arm-elf-tools/gcc-4.3.3/lib/gcc/arm-elf/4.3.3/../../../../arm-elf/lib/interwork/libc.a(lib_a-fileno.o)
 .debug_abbrev  0x0000683d      0x291 /usr/local/arm-elf-tools/gcc-4.3.3/lib/gcc/arm-elf/4.3.3/../../../../arm-elf/lib/interwork/libc.a(lib_a-findfp.o)
 .debug_abbrev  0x00006ace      0x193 /usr/local/arm-elf-tools/gcc-4.3.3/lib/gcc/arm-elf/4.3.3/../../../../arm-elf/lib/interwork/libc.a(lib_a-flags.o)
 .debug_abbrev  0x00006c61      0x1db /usr/local/arm-elf-tools/gcc-4.3.3/lib/gcc/arm-elf/4.3.3/../../../../arm-elf/lib/interwork/libc.a(lib_a-fopen.o)
 .debug_abbrev  0x00006e3c      0x1a1 /usr/local/arm-elf-tools/gcc-4.3.3/lib/gcc/arm-elf/4.3.3/../../../../arm-elf/lib/interwork/libc.a(lib_a-fprintf.o)
 .debug_abbrev  0x00006fdd      0x193 /usr/local/arm-elf-tools/gcc-4.3.3/lib/gcc/arm-elf/4.3.3/../../../../arm-elf/lib/interwork/libc.a(lib_a-fputc.o)
 .debug_abbrev  0x00007170      0x1b1 /usr/local/arm-elf-tools/gcc-4.3.3/lib/gcc/arm-elf/4.3.3/../../../../arm-elf/lib/interwork/libc.a(lib_a-fputs.o)
 .debug_abbrev  0x00007321      0x1c7 /usr/local/arm-elf-tools/gcc-4.3.3/lib/gcc/arm-elf/4.3.3/../../../../arm-elf/lib/interwork/libc.a(lib_a-fread.o)
 .debug_abbrev  0x000074e8      0x1fe /usr/local/arm-elf-tools/gcc-4.3.3/lib/gcc/arm-elf/4.3.3/../../../../arm-elf/lib/interwork/libc.a(lib_a-freer.o)
 .debug_abbrev  0x000076e6      0x1a4 /usr/local/arm-elf-tools/gcc-4.3.3/lib/gcc/arm-elf/4.3.3/../../../../arm-elf/lib/interwork/libc.a(lib_a-freopen.o)
 .debug_abbrev  0x0000788a      0x1a1 /usr/local/arm-elf-tools/gcc-4.3.3/lib/gcc/arm-elf/4.3.3/../../../../arm-elf/lib/interwork/libc.a(lib_a-fscanf.o)
 .debug_abbrev  0x00007a2b      0x20d /usr/local/arm-elf-tools/gcc-4.3.3/lib/gcc/arm-elf/4.3.3/../../../../arm-elf/lib/interwork/libc.a(lib_a-fseek.o)
 .debug_abbrev  0x00007c38      0x19f /usr/local/arm-elf-tools/gcc-4.3.3/lib/gcc/arm-elf/4.3.3/../../../../arm-elf/lib/interwork/libc.a(lib_a-ftell.o)
 .debug_abbrev  0x00007dd7      0x1aa /usr/local/arm-elf-tools/gcc-4.3.3/lib/gcc/arm-elf/4.3.3/../../../../arm-elf/lib/interwork/libc.a(lib_a-fvwrite.o)
 .debug_abbrev  0x00007f81      0x1ec /usr/local/arm-elf-tools/gcc-4.3.3/lib/gcc/arm-elf/4.3.3/../../../../arm-elf/lib/interwork/libc.a(lib_a-fwalk.o)
 .debug_abbrev  0x0000816d      0x19a /usr/local/arm-elf-tools/gcc-4.3.3/lib/gcc/arm-elf/4.3.3/../../../../arm-elf/lib/interwork/libc.a(lib_a-fwrite.o)
 .debug_abbrev  0x00008307      0x186 /usr/local/arm-elf-tools/gcc-4.3.3/lib/gcc/arm-elf/4.3.3/../../../../arm-elf/lib/interwork/libc.a(lib_a-getenv.o)
 .debug_abbrev  0x0000848d      0x1b1 /usr/local/arm-elf-tools/gcc-4.3.3/lib/gcc/arm-elf/4.3.3/../../../../arm-elf/lib/interwork/libc.a(lib_a-getenv_r.o)
 .debug_abbrev  0x0000863e      0x186 /usr/local/arm-elf-tools/gcc-4.3.3/lib/gcc/arm-elf/4.3.3/../../../../arm-elf/lib/interwork/libc.a(lib_a-gmtime.o)
 .debug_abbrev  0x000087c4       0xa3 /usr/local/arm-elf-tools/gcc-4.3.3/lib/gcc/arm-elf/4.3.3/../../../../arm-elf/lib/interwork/libc.a(lib_a-gmtime_r.o)
 .debug_abbrev  0x00008867      0x15e /usr/local/arm-elf-tools/gcc-4.3.3/lib/gcc/arm-elf/4.3.3/../../../../arm-elf/lib/interwork/libc.a(lib_a-impure.o)
 .debug_abbrev  0x000089c5      0x186 /usr/local/arm-elf-tools/gcc-4.3.3/lib/gcc/arm-elf/4.3.3/../../../../arm-elf/lib/interwork/libc.a(lib_a-lcltime.o)
 .debug_abbrev  0x00008b4b       0xa3 /usr/local/arm-elf-tools/gcc-4.3.3/lib/gcc/arm-elf/4.3.3/../../../../arm-elf/lib/interwork/libc.a(lib_a-lcltime_r.o)
 .debug_abbrev  0x00008bee      0x228 /usr/local/arm-elf-tools/gcc-4.3.3/lib/gcc/arm-elf/4.3.3/../../../../arm-elf/lib/interwork/libc.a(lib_a-locale.o)
 .debug_abbrev  0x00008e16      0x191 /usr/local/arm-elf-tools/gcc-4.3.3/lib/gcc/arm-elf/4.3.3/../../../../arm-elf/lib/interwork/libc.a(lib_a-makebuf.o)
 .debug_abbrev  0x00008fa7      0x18e /usr/local/arm-elf-tools/gcc-4.3.3/lib/gcc/arm-elf/4.3.3/../../../../arm-elf/lib/interwork/libc.a(lib_a-malloc.o)
 .debug_abbrev  0x00009135      0x22c /usr/local/arm-elf-tools/gcc-4.3.3/lib/gcc/arm-elf/4.3.3/../../../../arm-elf/lib/interwork/libc.a(lib_a-mallocr.o)
 .debug_abbrev  0x00009361       0xcb /usr/local/arm-elf-tools/gcc-4.3.3/lib/gcc/arm-elf/4.3.3/../../../../arm-elf/lib/interwork/libc.a(lib_a-memchr.o)
 .debug_abbrev  0x0000942c       0x92 /usr/local/arm-elf-tools/gcc-4.3.3/lib/gcc/arm-elf/4.3.3/../../../../arm-elf/lib/interwork/libc.a(lib_a-memcmp.o)
 .debug_abbrev  0x000094be       0xa0 /usr/local/arm-elf-tools/gcc-4.3.3/lib/gcc/arm-elf/4.3.3/../../../../arm-elf/lib/interwork/libc.a(lib_a-memcpy.o)
 .debug_abbrev  0x0000955e       0xa0 /usr/local/arm-elf-tools/gcc-4.3.3/lib/gcc/arm-elf/4.3.3/../../../../arm-elf/lib/interwork/libc.a(lib_a-memmove.o)
 .debug_abbrev  0x000095fe       0xa1 /usr/local/arm-elf-tools/gcc-4.3.3/lib/gcc/arm-elf/4.3.3/../../../../arm-elf/lib/interwork/libc.a(lib_a-memset.o)
 .debug_abbrev  0x0000969f      0x147 /usr/local/arm-elf-tools/gcc-4.3.3/lib/gcc/arm-elf/4.3.3/../../../../arm-elf/lib/interwork/libc.a(lib_a-mktime.o)
 .debug_abbrev  0x000097e6      0x134 /usr/local/arm-elf-tools/gcc-4.3.3/lib/gcc/arm-elf/4.3.3/../../../../arm-elf/lib/interwork/libc.a(lib_a-mktm_r.o)
 .debug_abbrev  0x0000991a      0x171 /usr/local/arm-elf-tools/gcc-4.3.3/lib/gcc/arm-elf/4.3.3/../../../../arm-elf/lib/interwork/libc.a(lib_a-mlock.o)
 .debug_abbrev  0x00009a8b      0x1b0 /usr/local/arm-elf-tools/gcc-4.3.3/lib/gcc/arm-elf/4.3.3/../../../../arm-elf/lib/interwork/libc.a(lib_a-printf.o)
 .debug_abbrev  0x00009c3b      0x186 /usr/local/arm-elf-tools/gcc-4.3.3/lib/gcc/arm-elf/4.3.3/../../../../arm-elf/lib/interwork/libc.a(lib_a-putc.o)
 .debug_abbrev  0x00009dc1      0x18c /usr/local/arm-elf-tools/gcc-4.3.3/lib/gcc/arm-elf/4.3.3/../../../../arm-elf/lib/interwork/libc.a(lib_a-rand.o)
 .debug_abbrev  0x00009f4d      0x186 /usr/local/arm-elf-tools/gcc-4.3.3/lib/gcc/arm-elf/4.3.3/../../../../arm-elf/lib/interwork/libc.a(lib_a-realloc.o)
 .debug_abbrev  0x0000a0d3      0x1ed /usr/local/arm-elf-tools/gcc-4.3.3/lib/gcc/arm-elf/4.3.3/../../../../arm-elf/lib/interwork/libc.a(lib_a-reallocr.o)
 .debug_abbrev  0x0000a2c0      0x18e /usr/local/arm-elf-tools/gcc-4.3.3/lib/gcc/arm-elf/4.3.3/../../../../arm-elf/lib/interwork/libc.a(lib_a-refill.o)
 .debug_abbrev  0x0000a44e      0x1d2 /usr/local/arm-elf-tools/gcc-4.3.3/lib/gcc/arm-elf/4.3.3/../../../../arm-elf/lib/interwork/libc.a(lib_a-remove.o)
 .debug_abbrev  0x0000a620      0x190 /usr/local/arm-elf-tools/gcc-4.3.3/lib/gcc/arm-elf/4.3.3/../../../../arm-elf/lib/interwork/libc.a(lib_a-rget.o)
 .debug_abbrev  0x0000a7b0       0x14 /usr/local/arm-elf-tools/gcc-4.3.3/lib/gcc/arm-elf/4.3.3/../../../../arm-elf/lib/interwork/libc.a(lib_a-setjmp.o)
 .debug_abbrev  0x0000a7c4      0x1a2 /usr/local/arm-elf-tools/gcc-4.3.3/lib/gcc/arm-elf/4.3.3/../../../../arm-elf/lib/interwork/libc.a(lib_a-setvbuf.o)
 .debug_abbrev  0x0000a966      0x1d2 /usr/local/arm-elf-tools/gcc-4.3.3/lib/gcc/arm-elf/4.3.3/../../../../arm-elf/lib/interwork/libc.a(lib_a-signal.o)
 .debug_abbrev  0x0000ab38      0x1ce /usr/local/arm-elf-tools/gcc-4.3.3/lib/gcc/arm-elf/4.3.3/../../../../arm-elf/lib/interwork/libc.a(lib_a-snprintf.o)
 .debug_abbrev  0x0000ad06      0x1b0 /usr/local/arm-elf-tools/gcc-4.3.3/lib/gcc/arm-elf/4.3.3/../../../../arm-elf/lib/interwork/libc.a(lib_a-sprintf.o)
 .debug_abbrev  0x0000aeb6      0x1a8 /usr/local/arm-elf-tools/gcc-4.3.3/lib/gcc/arm-elf/4.3.3/../../../../arm-elf/lib/interwork/libc.a(lib_a-stdio.o)
 .debug_abbrev  0x0000b05e       0x8e /usr/local/arm-elf-tools/gcc-4.3.3/lib/gcc/arm-elf/4.3.3/../../../../arm-elf/lib/interwork/libc.a(lib_a-strcat.o)
 .debug_abbrev  0x0000b0ec       0xa3 /usr/local/arm-elf-tools/gcc-4.3.3/lib/gcc/arm-elf/4.3.3/../../../../arm-elf/lib/interwork/libc.a(lib_a-strchr.o)
 .debug_abbrev  0x0000b18f       0x78 /usr/local/arm-elf-tools/gcc-4.3.3/lib/gcc/arm-elf/4.3.3/../../../../arm-elf/lib/interwork/libc.a(lib_a-strcmp.o)
 .debug_abbrev  0x0000b207       0x67 /usr/local/arm-elf-tools/gcc-4.3.3/lib/gcc/arm-elf/4.3.3/../../../../arm-elf/lib/interwork/libc.a(lib_a-strcoll.o)
 .debug_abbrev  0x0000b26e       0x96 /usr/local/arm-elf-tools/gcc-4.3.3/lib/gcc/arm-elf/4.3.3/../../../../arm-elf/lib/interwork/libc.a(lib_a-strcpy.o)
 .debug_abbrev  0x0000b304       0x81 /usr/local/arm-elf-tools/gcc-4.3.3/lib/gcc/arm-elf/4.3.3/../../../../arm-elf/lib/interwork/libc.a(lib_a-strcspn.o)
 .debug_abbrev  0x0000b385       0x6f /usr/local/arm-elf-tools/gcc-4.3.3/lib/gcc/arm-elf/4.3.3/../../../../arm-elf/lib/interwork/libc.a(lib_a-strerror.o)
 .debug_abbrev  0x0000b3f4      0x14e /usr/local/arm-elf-tools/gcc-4.3.3/lib/gcc/arm-elf/4.3.3/../../../../arm-elf/lib/interwork/libc.a(lib_a-strftime.o)
 .debug_abbrev  0x0000b542       0x92 /usr/local/arm-elf-tools/gcc-4.3.3/lib/gcc/arm-elf/4.3.3/../../../../arm-elf/lib/interwork/libc.a(lib_a-strlen.o)
 .debug_abbrev  0x0000b5d4       0x9b /usr/local/arm-elf-tools/gcc-4.3.3/lib/gcc/arm-elf/4.3.3/../../../../arm-elf/lib/interwork/libc.a(lib_a-strncat.o)
 .debug_abbrev  0x0000b66f       0x94 /usr/local/arm-elf-tools/gcc-4.3.3/lib/gcc/arm-elf/4.3.3/../../../../arm-elf/lib/interwork/libc.a(lib_a-strncmp.o)
 .debug_abbrev  0x0000b703       0x94 /usr/local/arm-elf-tools/gcc-4.3.3/lib/gcc/arm-elf/4.3.3/../../../../arm-elf/lib/interwork/libc.a(lib_a-strncpy.o)
 .debug_abbrev  0x0000b797       0x90 /usr/local/arm-elf-tools/gcc-4.3.3/lib/gcc/arm-elf/4.3.3/../../../../arm-elf/lib/interwork/libc.a(lib_a-strnlen.o)
 .debug_abbrev  0x0000b827       0x85 /usr/local/arm-elf-tools/gcc-4.3.3/lib/gcc/arm-elf/4.3.3/../../../../arm-elf/lib/interwork/libc.a(lib_a-strpbrk.o)
 .debug_abbrev  0x0000b8ac       0x76 /usr/local/arm-elf-tools/gcc-4.3.3/lib/gcc/arm-elf/4.3.3/../../../../arm-elf/lib/interwork/libc.a(lib_a-strrchr.o)
 .debug_abbrev  0x0000b922      0x19f /usr/local/arm-elf-tools/gcc-4.3.3/lib/gcc/arm-elf/4.3.3/../../../../arm-elf/lib/interwork/libc.a(lib_a-strstr.o)
 .debug_abbrev  0x0000bac1      0x343 /usr/local/arm-elf-tools/gcc-4.3.3/lib/gcc/arm-elf/4.3.3/../../../../arm-elf/lib/interwork/libc.a(lib_a-strtod.o)
 .debug_abbrev  0x0000be04      0x1c2 /usr/local/arm-elf-tools/gcc-4.3.3/lib/gcc/arm-elf/4.3.3/../../../../arm-elf/lib/interwork/libc.a(lib_a-strtoul.o)
 .debug_abbrev  0x0000bfc6      0x332 /usr/local/arm-elf-tools/gcc-4.3.3/lib/gcc/arm-elf/4.3.3/../../../../arm-elf/lib/interwork/libc.a(lib_a-svfprintf.o)
 .debug_abbrev  0x0000c2f8      0x177 /usr/local/arm-elf-tools/gcc-4.3.3/lib/gcc/arm-elf/4.3.3/../../../../arm-elf/lib/interwork/libc.a(lib_a-sysclose.o)
 .debug_abbrev  0x0000c46f      0x177 /usr/local/arm-elf-tools/gcc-4.3.3/lib/gcc/arm-elf/4.3.3/../../../../arm-elf/lib/interwork/libc.a(lib_a-sysgettod.o)
 .debug_abbrev  0x0000c5e6      0x1a1 /usr/local/arm-elf-tools/gcc-4.3.3/lib/gcc/arm-elf/4.3.3/../../../../arm-elf/lib/interwork/libc.a(lib_a-sysopen.o)
 .debug_abbrev  0x0000c787      0x177 /usr/local/arm-elf-tools/gcc-4.3.3/lib/gcc/arm-elf/4.3.3/../../../../arm-elf/lib/interwork/libc.a(lib_a-sysread.o)
 .debug_abbrev  0x0000c8fe      0x190 /usr/local/arm-elf-tools/gcc-4.3.3/lib/gcc/arm-elf/4.3.3/../../../../arm-elf/lib/interwork/libc.a(lib_a-system.o)
 .debug_abbrev  0x0000ca8e      0x177 /usr/local/arm-elf-tools/gcc-4.3.3/lib/gcc/arm-elf/4.3.3/../../../../arm-elf/lib/interwork/libc.a(lib_a-sysunlink.o)
 .debug_abbrev  0x0000cc05      0x17c /usr/local/arm-elf-tools/gcc-4.3.3/lib/gcc/arm-elf/4.3.3/../../../../arm-elf/lib/interwork/libc.a(lib_a-syswrite.o)
 .debug_abbrev  0x0000cd81      0x186 /usr/local/arm-elf-tools/gcc-4.3.3/lib/gcc/arm-elf/4.3.3/../../../../arm-elf/lib/interwork/libc.a(lib_a-time.o)
 .debug_abbrev  0x0000cf07      0x191 /usr/local/arm-elf-tools/gcc-4.3.3/lib/gcc/arm-elf/4.3.3/../../../../arm-elf/lib/interwork/libc.a(lib_a-timesr.o)
 .debug_abbrev  0x0000d098      0x1b5 /usr/local/arm-elf-tools/gcc-4.3.3/lib/gcc/arm-elf/4.3.3/../../../../arm-elf/lib/interwork/libc.a(lib_a-tmpfile.o)
 .debug_abbrev  0x0000d24d      0x206 /usr/local/arm-elf-tools/gcc-4.3.3/lib/gcc/arm-elf/4.3.3/../../../../arm-elf/lib/interwork/libc.a(lib_a-tmpnam.o)
 .debug_abbrev  0x0000d453       0x55 /usr/local/arm-elf-tools/gcc-4.3.3/lib/gcc/arm-elf/4.3.3/../../../../arm-elf/lib/interwork/libc.a(lib_a-tzlock.o)
 .debug_abbrev  0x0000d4a8       0x5d /usr/local/arm-elf-tools/gcc-4.3.3/lib/gcc/arm-elf/4.3.3/../../../../arm-elf/lib/interwork/libc.a(lib_a-tzvars.o)
 .debug_abbrev  0x0000d505      0x1ae /usr/local/arm-elf-tools/gcc-4.3.3/lib/gcc/arm-elf/4.3.3/../../../../arm-elf/lib/interwork/libc.a(lib_a-ungetc.o)
 .debug_abbrev  0x0000d6b3       0x59 /usr/local/arm-elf-tools/gcc-4.3.3/lib/gcc/arm-elf/4.3.3/../../../../arm-elf/lib/interwork/libc.a(lib_a-u_strerr.o)
 .debug_abbrev  0x0000d70c      0x312 /usr/local/arm-elf-tools/gcc-4.3.3/lib/gcc/arm-elf/4.3.3/../../../../arm-elf/lib/interwork/libc.a(lib_a-vfprintf.o)
 .debug_abbrev  0x0000da1e      0x248 /usr/local/arm-elf-tools/gcc-4.3.3/lib/gcc/arm-elf/4.3.3/../../../../arm-elf/lib/interwork/libc.a(lib_a-vfscanf.o)
 .debug_abbrev  0x0000dc66      0x1bc /usr/local/arm-elf-tools/gcc-4.3.3/lib/gcc/arm-elf/4.3.3/../../../../arm-elf/lib/interwork/libc.a(lib_a-vsnprintf.o)
 .debug_abbrev  0x0000de22      0x19f /usr/local/arm-elf-tools/gcc-4.3.3/lib/gcc/arm-elf/4.3.3/../../../../arm-elf/lib/interwork/libc.a(lib_a-wbuf.o)
 .debug_abbrev  0x0000dfc1      0x177 /usr/local/arm-elf-tools/gcc-4.3.3/lib/gcc/arm-elf/4.3.3/../../../../arm-elf/lib/interwork/libc.a(lib_a-wsetup.o)
 .debug_abbrev  0x0000e138       0x57 /usr/local/arm-elf-tools/gcc-4.3.3/lib/gcc/arm-elf/4.3.3/../../../../arm-elf/lib/interwork/libc.a(lib_a-abs.o)
 .debug_abbrev  0x0000e18f      0x1dd /usr/local/arm-elf-tools/gcc-4.3.3/lib/gcc/arm-elf/4.3.3/../../../../arm-elf/lib/interwork/libc.a(lib_a-__call_atexit.o)
 .debug_abbrev  0x0000e36c       0xab /usr/local/arm-elf-tools/gcc-4.3.3/lib/gcc/arm-elf/4.3.3/../../../../arm-elf/lib/interwork/libc.a(lib_a-div.o)
 .debug_abbrev  0x0000e417      0x22a /usr/local/arm-elf-tools/gcc-4.3.3/lib/gcc/arm-elf/4.3.3/../../../../arm-elf/lib/interwork/libc.a(lib_a-dtoa.o)
 .debug_abbrev  0x0000e641       0x61 /usr/local/arm-elf-tools/gcc-4.3.3/lib/gcc/arm-elf/4.3.3/../../../../arm-elf/lib/interwork/libc.a(lib_a-environ.o)
 .debug_abbrev  0x0000e6a2      0x173 /usr/local/arm-elf-tools/gcc-4.3.3/lib/gcc/arm-elf/4.3.3/../../../../arm-elf/lib/interwork/libc.a(lib_a-envlock.o)
 .debug_abbrev  0x0000e815      0x2d5 /usr/local/arm-elf-tools/gcc-4.3.3/lib/gcc/arm-elf/4.3.3/../../../../arm-elf/lib/interwork/libc.a(lib_a-gdtoa-gethex.o)
 .debug_abbrev  0x0000eaea      0x161 /usr/local/arm-elf-tools/gcc-4.3.3/lib/gcc/arm-elf/4.3.3/../../../../arm-elf/lib/interwork/libc.a(lib_a-gdtoa-hexnan.o)
 .debug_abbrev  0x0000ec4b      0x195 /usr/local/arm-elf-tools/gcc-4.3.3/lib/gcc/arm-elf/4.3.3/../../../../arm-elf/lib/interwork/libc.a(lib_a-gettimeofdayr.o)
 .debug_abbrev  0x0000ede0       0xac /usr/local/arm-elf-tools/gcc-4.3.3/lib/gcc/arm-elf/4.3.3/../../../../arm-elf/lib/interwork/libc.a(lib_a-gettzinfo.o)
 .debug_abbrev  0x0000ee8c      0x186 /usr/local/arm-elf-tools/gcc-4.3.3/lib/gcc/arm-elf/4.3.3/../../../../arm-elf/lib/interwork/libc.a(lib_a-isattyr.o)
 .debug_abbrev  0x0000f012       0xa6 /usr/local/arm-elf-tools/gcc-4.3.3/lib/gcc/arm-elf/4.3.3/../../../../arm-elf/lib/interwork/libc.a(lib_a-iswspace.o)
 .debug_abbrev  0x0000f0b8       0x57 /usr/local/arm-elf-tools/gcc-4.3.3/lib/gcc/arm-elf/4.3.3/../../../../arm-elf/lib/interwork/libc.a(lib_a-labs.o)
 .debug_abbrev  0x0000f10f      0x186 /usr/local/arm-elf-tools/gcc-4.3.3/lib/gcc/arm-elf/4.3.3/../../../../arm-elf/lib/interwork/libc.a(lib_a-mbrtowc.o)
 .debug_abbrev  0x0000f295      0x1a0 /usr/local/arm-elf-tools/gcc-4.3.3/lib/gcc/arm-elf/4.3.3/../../../../arm-elf/lib/interwork/libc.a(lib_a-mbtowc_r.o)
 .debug_abbrev  0x0000f435      0x342 /usr/local/arm-elf-tools/gcc-4.3.3/lib/gcc/arm-elf/4.3.3/../../../../arm-elf/lib/interwork/libc.a(lib_a-mprec.o)
 .debug_abbrev  0x0000f777      0x1f0 /usr/local/arm-elf-tools/gcc-4.3.3/lib/gcc/arm-elf/4.3.3/../../../../arm-elf/lib/interwork/libc.a(lib_a-reent.o)
 .debug_abbrev  0x0000f967       0x9a /usr/local/arm-elf-tools/gcc-4.3.3/lib/gcc/arm-elf/4.3.3/../../../../arm-elf/lib/interwork/libc.a(lib_a-sccl.o)
 .debug_abbrev  0x0000fa01       0x74 /usr/local/arm-elf-tools/gcc-4.3.3/lib/gcc/arm-elf/4.3.3/../../../../arm-elf/lib/interwork/libc.a(lib_a-sf_nan.o)
 .debug_abbrev  0x0000fa75       0xdb /usr/local/arm-elf-tools/gcc-4.3.3/lib/gcc/arm-elf/4.3.3/../../../../arm-elf/lib/interwork/libc.a(lib_a-s_isinfd.o)
 .debug_abbrev  0x0000fb50      0x1c4 /usr/local/arm-elf-tools/gcc-4.3.3/lib/gcc/arm-elf/4.3.3/../../../../arm-elf/lib/interwork/libc.a(lib_a-strtol.o)

.debug_info     0x00000000    0x42be0
 .debug_info    0x00000000      0x22f /usr/local/arm-elf-tools/gcc-4.3.3/lib/gcc/arm-elf/4.3.3/../../../../arm-elf/lib/interwork/libm.a(lib_a-s_atan.o)
 .debug_info    0x0000022f      0x1ab /usr/local/arm-elf-tools/gcc-4.3.3/lib/gcc/arm-elf/4.3.3/../../../../arm-elf/lib/interwork/libm.a(lib_a-s_ceil.o)
 .debug_info    0x000003da       0xf5 /usr/local/arm-elf-tools/gcc-4.3.3/lib/gcc/arm-elf/4.3.3/../../../../arm-elf/lib/interwork/libm.a(lib_a-s_cos.o)
 .debug_info    0x000004cf      0x14e /usr/local/arm-elf-tools/gcc-4.3.3/lib/gcc/arm-elf/4.3.3/../../../../arm-elf/lib/interwork/libm.a(lib_a-s_fabs.o)
 .debug_info    0x0000061d      0x1ab /usr/local/arm-elf-tools/gcc-4.3.3/lib/gcc/arm-elf/4.3.3/../../../../arm-elf/lib/interwork/libm.a(lib_a-s_floor.o)
 .debug_info    0x000007c8      0x1c4 /usr/local/arm-elf-tools/gcc-4.3.3/lib/gcc/arm-elf/4.3.3/../../../../arm-elf/lib/interwork/libm.a(lib_a-s_frexp.o)
 .debug_info    0x0000098c       0xbf /usr/local/arm-elf-tools/gcc-4.3.3/lib/gcc/arm-elf/4.3.3/../../../../arm-elf/lib/interwork/libm.a(lib_a-s_ldexp.o)
 .debug_info    0x00000a4b      0x23f /usr/local/arm-elf-tools/gcc-4.3.3/lib/gcc/arm-elf/4.3.3/../../../../arm-elf/lib/interwork/libm.a(lib_a-s_modf.o)
 .debug_info    0x00000c8a      0x20c /usr/local/arm-elf-tools/gcc-4.3.3/lib/gcc/arm-elf/4.3.3/../../../../arm-elf/lib/interwork/libm.a(lib_a-s_scalbn.o)
 .debug_info    0x00000e96       0xf5 /usr/local/arm-elf-tools/gcc-4.3.3/lib/gcc/arm-elf/4.3.3/../../../../arm-elf/lib/interwork/libm.a(lib_a-s_sin.o)
 .debug_info    0x00000f8b      0x1b1 /usr/local/arm-elf-tools/gcc-4.3.3/lib/gcc/arm-elf/4.3.3/../../../../arm-elf/lib/interwork/libm.a(lib_a-s_tanh.o)
 .debug_info    0x0000113c      0x16f /usr/local/arm-elf-tools/gcc-4.3.3/lib/gcc/arm-elf/4.3.3/../../../../arm-elf/lib/interwork/libm.a(lib_a-s_tan.o)
 .debug_info    0x000012ab      0x184 /usr/local/arm-elf-tools/gcc-4.3.3/lib/gcc/arm-elf/4.3.3/../../../../arm-elf/lib/interwork/libm.a(lib_a-w_acos.o)
 .debug_info    0x0000142f      0x184 /usr/local/arm-elf-tools/gcc-4.3.3/lib/gcc/arm-elf/4.3.3/../../../../arm-elf/lib/interwork/libm.a(lib_a-w_asin.o)
 .debug_info    0x000015b3       0xbb /usr/local/arm-elf-tools/gcc-4.3.3/lib/gcc/arm-elf/4.3.3/../../../../arm-elf/lib/interwork/libm.a(lib_a-w_atan2.o)
 .debug_info    0x0000166e      0x184 /usr/local/arm-elf-tools/gcc-4.3.3/lib/gcc/arm-elf/4.3.3/../../../../arm-elf/lib/interwork/libm.a(lib_a-w_cosh.o)
 .debug_info    0x000017f2      0x19c /usr/local/arm-elf-tools/gcc-4.3.3/lib/gcc/arm-elf/4.3.3/../../../../arm-elf/lib/interwork/libm.a(lib_a-w_exp.o)
 .debug_info    0x0000198e      0x1ab /usr/local/arm-elf-tools/gcc-4.3.3/lib/gcc/arm-elf/4.3.3/../../../../arm-elf/lib/interwork/libm.a(lib_a-w_fmod.o)
 .debug_info    0x00001b39      0x184 /usr/local/arm-elf-tools/gcc-4.3.3/lib/gcc/arm-elf/4.3.3/../../../../arm-elf/lib/interwork/libm.a(lib_a-w_log10.o)
 .debug_info    0x00001cbd      0x184 /usr/local/arm-elf-tools/gcc-4.3.3/lib/gcc/arm-elf/4.3.3/../../../../arm-elf/lib/interwork/libm.a(lib_a-w_log.o)
 .debug_info    0x00001e41      0x1c4 /usr/local/arm-elf-tools/gcc-4.3.3/lib/gcc/arm-elf/4.3.3/../../../../arm-elf/lib/interwork/libm.a(lib_a-w_pow.o)
 .debug_info    0x00002005      0x16f /usr/local/arm-elf-tools/gcc-4.3.3/lib/gcc/arm-elf/4.3.3/../../../../arm-elf/lib/interwork/libm.a(lib_a-w_sinh.o)
 .debug_info    0x00002174      0x184 /usr/local/arm-elf-tools/gcc-4.3.3/lib/gcc/arm-elf/4.3.3/../../../../arm-elf/lib/interwork/libm.a(lib_a-w_sqrt.o)
 .debug_info    0x000022f8      0x2f0 /usr/local/arm-elf-tools/gcc-4.3.3/lib/gcc/arm-elf/4.3.3/../../../../arm-elf/lib/interwork/libm.a(lib_a-e_acos.o)
 .debug_info    0x000025e8      0x31e /usr/local/arm-elf-tools/gcc-4.3.3/lib/gcc/arm-elf/4.3.3/../../../../arm-elf/lib/interwork/libm.a(lib_a-e_asin.o)
 .debug_info    0x00002906      0x27f /usr/local/arm-elf-tools/gcc-4.3.3/lib/gcc/arm-elf/4.3.3/../../../../arm-elf/lib/interwork/libm.a(lib_a-e_atan2.o)
 .debug_info    0x00002b85      0x1ae /usr/local/arm-elf-tools/gcc-4.3.3/lib/gcc/arm-elf/4.3.3/../../../../arm-elf/lib/interwork/libm.a(lib_a-e_cosh.o)
 .debug_info    0x00002d33      0x358 /usr/local/arm-elf-tools/gcc-4.3.3/lib/gcc/arm-elf/4.3.3/../../../../arm-elf/lib/interwork/libm.a(lib_a-e_exp.o)
 .debug_info    0x0000308b      0x26d /usr/local/arm-elf-tools/gcc-4.3.3/lib/gcc/arm-elf/4.3.3/../../../../arm-elf/lib/interwork/libm.a(lib_a-e_fmod.o)
 .debug_info    0x000032f8      0x216 /usr/local/arm-elf-tools/gcc-4.3.3/lib/gcc/arm-elf/4.3.3/../../../../arm-elf/lib/interwork/libm.a(lib_a-e_log10.o)
 .debug_info    0x0000350e      0x2de /usr/local/arm-elf-tools/gcc-4.3.3/lib/gcc/arm-elf/4.3.3/../../../../arm-elf/lib/interwork/libm.a(lib_a-e_log.o)
 .debug_info    0x000037ec      0x6d3 /usr/local/arm-elf-tools/gcc-4.3.3/lib/gcc/arm-elf/4.3.3/../../../../arm-elf/lib/interwork/libm.a(lib_a-e_pow.o)
 .debug_info    0x00003ebf      0x36a /usr/local/arm-elf-tools/gcc-4.3.3/lib/gcc/arm-elf/4.3.3/../../../../arm-elf/lib/interwork/libm.a(lib_a-e_rem_pio2.o)
 .debug_info    0x00004229      0x146 /usr/local/arm-elf-tools/gcc-4.3.3/lib/gcc/arm-elf/4.3.3/../../../../arm-elf/lib/interwork/libm.a(lib_a-e_sinh.o)
 .debug_info    0x0000436f      0x224 /usr/local/arm-elf-tools/gcc-4.3.3/lib/gcc/arm-elf/4.3.3/../../../../arm-elf/lib/interwork/libm.a(lib_a-e_sqrt.o)
 .debug_info    0x00004593      0x238 /usr/local/arm-elf-tools/gcc-4.3.3/lib/gcc/arm-elf/4.3.3/../../../../arm-elf/lib/interwork/libm.a(lib_a-k_cos.o)
 .debug_info    0x000047cb      0x2db /usr/local/arm-elf-tools/gcc-4.3.3/lib/gcc/arm-elf/4.3.3/../../../../arm-elf/lib/interwork/libm.a(lib_a-k_rem_pio2.o)
 .debug_info    0x00004aa6      0x202 /usr/local/arm-elf-tools/gcc-4.3.3/lib/gcc/arm-elf/4.3.3/../../../../arm-elf/lib/interwork/libm.a(lib_a-k_sin.o)
 .debug_info    0x00004ca8      0x287 /usr/local/arm-elf-tools/gcc-4.3.3/lib/gcc/arm-elf/4.3.3/../../../../arm-elf/lib/interwork/libm.a(lib_a-k_tan.o)
 .debug_info    0x00004f2f      0x165 /usr/local/arm-elf-tools/gcc-4.3.3/lib/gcc/arm-elf/4.3.3/../../../../arm-elf/lib/interwork/libm.a(lib_a-s_copysign.o)
 .debug_info    0x00005094      0x3ce /usr/local/arm-elf-tools/gcc-4.3.3/lib/gcc/arm-elf/4.3.3/../../../../arm-elf/lib/interwork/libm.a(lib_a-s_expm1.o)
 .debug_info    0x00005462      0x137 /usr/local/arm-elf-tools/gcc-4.3.3/lib/gcc/arm-elf/4.3.3/../../../../arm-elf/lib/interwork/libm.a(lib_a-s_finite.o)
 .debug_info    0x00005599      0x147 /usr/local/arm-elf-tools/gcc-4.3.3/lib/gcc/arm-elf/4.3.3/../../../../arm-elf/lib/interwork/libm.a(lib_a-s_isnand.o)
 .debug_info    0x000056e0       0xbf /usr/local/arm-elf-tools/gcc-4.3.3/lib/gcc/arm-elf/4.3.3/../../../../arm-elf/lib/interwork/libm.a(lib_a-s_lib_ver.o)
 .debug_info    0x0000579f      0x12d /usr/local/arm-elf-tools/gcc-4.3.3/lib/gcc/arm-elf/4.3.3/../../../../arm-elf/lib/interwork/libm.a(lib_a-s_matherr.o)
 .debug_info    0x000058cc      0x13d /usr/local/arm-elf-tools/gcc-4.3.3/lib/gcc/arm-elf/4.3.3/../../../../arm-elf/lib/interwork/libm.a(lib_a-s_nan.o)
 .debug_info    0x00005a09      0x20a /usr/local/arm-elf-tools/gcc-4.3.3/lib/gcc/arm-elf/4.3.3/../../../../arm-elf/lib/interwork/libm.a(lib_a-s_rint.o)
 .debug_info    0x00005c13       0xb0 /usr/local/arm-elf-tools/gcc-4.3.3/lib/gcc/arm-elf/4.3.3/interwork/libgcc.a(_udivsi3.o)
 .debug_info    0x00005cc3       0xb0 /usr/local/arm-elf-tools/gcc-4.3.3/lib/gcc/arm-elf/4.3.3/interwork/libgcc.a(_divsi3.o)
 .debug_info    0x00005d73       0xb0 /usr/local/arm-elf-tools/gcc-4.3.3/lib/gcc/arm-elf/4.3.3/interwork/libgcc.a(_umodsi3.o)
 .debug_info    0x00005e23       0xb0 /usr/local/arm-elf-tools/gcc-4.3.3/lib/gcc/arm-elf/4.3.3/interwork/libgcc.a(_modsi3.o)
 .debug_info    0x00005ed3       0xb0 /usr/local/arm-elf-tools/gcc-4.3.3/lib/gcc/arm-elf/4.3.3/interwork/libgcc.a(_dvmd_tls.o)
 .debug_info    0x00005f83       0xca /usr/local/arm-elf-tools/gcc-4.3.3/lib/gcc/arm-elf/4.3.3/interwork/libgcc.a(_fixunsdfsi.o)
 .debug_info    0x0000604d      0x3bb /usr/local/arm-elf-tools/gcc-4.3.3/lib/gcc/arm-elf/4.3.3/interwork/libgcc.a(_mul_sf.o)
 .debug_info    0x00006408      0x39c /usr/local/arm-elf-tools/gcc-4.3.3/lib/gcc/arm-elf/4.3.3/interwork/libgcc.a(_div_sf.o)
 .debug_info    0x000067a4      0x299 /usr/local/arm-elf-tools/gcc-4.3.3/lib/gcc/arm-elf/4.3.3/interwork/libgcc.a(_eq_sf.o)
 .debug_info    0x00006a3d      0x209 /usr/local/arm-elf-tools/gcc-4.3.3/lib/gcc/arm-elf/4.3.3/interwork/libgcc.a(_si_to_sf.o)
 .debug_info    0x00006c46      0x241 /usr/local/arm-elf-tools/gcc-4.3.3/lib/gcc/arm-elf/4.3.3/interwork/libgcc.a(_sf_to_df.o)
 .debug_info    0x00006e87      0x160 /usr/local/arm-elf-tools/gcc-4.3.3/lib/gcc/arm-elf/4.3.3/interwork/libgcc.a(_thenan_sf.o)
 .debug_info    0x00006fe7      0x208 /usr/local/arm-elf-tools/gcc-4.3.3/lib/gcc/arm-elf/4.3.3/interwork/libgcc.a(_usi_to_sf.o)
 .debug_info    0x000071ef      0x481 /usr/local/arm-elf-tools/gcc-4.3.3/lib/gcc/arm-elf/4.3.3/interwork/libgcc.a(_addsub_df.o)
 .debug_info    0x00007670      0x470 /usr/local/arm-elf-tools/gcc-4.3.3/lib/gcc/arm-elf/4.3.3/interwork/libgcc.a(_mul_df.o)
 .debug_info    0x00007ae0      0x3a9 /usr/local/arm-elf-tools/gcc-4.3.3/lib/gcc/arm-elf/4.3.3/interwork/libgcc.a(_div_df.o)
 .debug_info    0x00007e89      0x2a6 /usr/local/arm-elf-tools/gcc-4.3.3/lib/gcc/arm-elf/4.3.3/interwork/libgcc.a(_eq_df.o)
 .debug_info    0x0000812f      0x2a6 /usr/local/arm-elf-tools/gcc-4.3.3/lib/gcc/arm-elf/4.3.3/interwork/libgcc.a(_ne_df.o)
 .debug_info    0x000083d5      0x2a6 /usr/local/arm-elf-tools/gcc-4.3.3/lib/gcc/arm-elf/4.3.3/interwork/libgcc.a(_gt_df.o)
 .debug_info    0x0000867b      0x2a6 /usr/local/arm-elf-tools/gcc-4.3.3/lib/gcc/arm-elf/4.3.3/interwork/libgcc.a(_ge_df.o)
 .debug_info    0x00008921      0x2a6 /usr/local/arm-elf-tools/gcc-4.3.3/lib/gcc/arm-elf/4.3.3/interwork/libgcc.a(_lt_df.o)
 .debug_info    0x00008bc7      0x2a6 /usr/local/arm-elf-tools/gcc-4.3.3/lib/gcc/arm-elf/4.3.3/interwork/libgcc.a(_le_df.o)
 .debug_info    0x00008e6d      0x209 /usr/local/arm-elf-tools/gcc-4.3.3/lib/gcc/arm-elf/4.3.3/interwork/libgcc.a(_si_to_df.o)
 .debug_info    0x00009076      0x2da /usr/local/arm-elf-tools/gcc-4.3.3/lib/gcc/arm-elf/4.3.3/interwork/libgcc.a(_df_to_si.o)
 .debug_info    0x00009350      0x1d3 /usr/local/arm-elf-tools/gcc-4.3.3/lib/gcc/arm-elf/4.3.3/interwork/libgcc.a(_make_df.o)
 .debug_info    0x00009523      0x25d /usr/local/arm-elf-tools/gcc-4.3.3/lib/gcc/arm-elf/4.3.3/interwork/libgcc.a(_df_to_sf.o)
 .debug_info    0x00009780      0x160 /usr/local/arm-elf-tools/gcc-4.3.3/lib/gcc/arm-elf/4.3.3/interwork/libgcc.a(_thenan_df.o)
 .debug_info    0x000098e0      0x208 /usr/local/arm-elf-tools/gcc-4.3.3/lib/gcc/arm-elf/4.3.3/interwork/libgcc.a(_usi_to_df.o)
 .debug_info    0x00009ae8      0x15a /usr/local/arm-elf-tools/gcc-4.3.3/lib/gcc/arm-elf/4.3.3/interwork/libgcc.a(_ucmpdi2.o)
 .debug_info    0x00009c42      0x123 /usr/local/arm-elf-tools/gcc-4.3.3/lib/gcc/arm-elf/4.3.3/interwork/libgcc.a(_clzsi2.o)
 .debug_info    0x00009d65      0x2fa /usr/local/arm-elf-tools/gcc-4.3.3/lib/gcc/arm-elf/4.3.3/interwork/libgcc.a(_pack_sf.o)
 .debug_info    0x0000a05f      0x25a /usr/local/arm-elf-tools/gcc-4.3.3/lib/gcc/arm-elf/4.3.3/interwork/libgcc.a(_unpack_sf.o)
 .debug_info    0x0000a2b9      0x214 /usr/local/arm-elf-tools/gcc-4.3.3/lib/gcc/arm-elf/4.3.3/interwork/libgcc.a(_fpcmp_parts_sf.o)
 .debug_info    0x0000a4cd      0x1d3 /usr/local/arm-elf-tools/gcc-4.3.3/lib/gcc/arm-elf/4.3.3/interwork/libgcc.a(_make_sf.o)
 .debug_info    0x0000a6a0      0x324 /usr/local/arm-elf-tools/gcc-4.3.3/lib/gcc/arm-elf/4.3.3/interwork/libgcc.a(_pack_df.o)
 .debug_info    0x0000a9c4      0x276 /usr/local/arm-elf-tools/gcc-4.3.3/lib/gcc/arm-elf/4.3.3/interwork/libgcc.a(_unpack_df.o)
 .debug_info    0x0000ac3a      0x214 /usr/local/arm-elf-tools/gcc-4.3.3/lib/gcc/arm-elf/4.3.3/interwork/libgcc.a(_fpcmp_parts_df.o)
 .debug_info    0x0000ae4e       0xbe /usr/local/arm-elf-tools/gcc-4.3.3/lib/gcc/arm-elf/4.3.3/interwork/libgcc.a(_clz.o)
 .debug_info    0x0000af0c       0x85 /usr/local/arm-elf-tools/gcc-4.3.3/lib/gcc/arm-elf/4.3.3/../../../../arm-elf/lib/interwork/libc.a(lib_a-abort.o)
 .debug_info    0x0000af91      0x97a /usr/local/arm-elf-tools/gcc-4.3.3/lib/gcc/arm-elf/4.3.3/../../../../arm-elf/lib/interwork/libc.a(lib_a-calloc.o)
 .debug_info    0x0000b90b      0xa3d /usr/local/arm-elf-tools/gcc-4.3.3/lib/gcc/arm-elf/4.3.3/../../../../arm-elf/lib/interwork/libc.a(lib_a-callocr.o)
 .debug_info    0x0000c348      0x9c0 /usr/local/arm-elf-tools/gcc-4.3.3/lib/gcc/arm-elf/4.3.3/../../../../arm-elf/lib/interwork/libc.a(lib_a-clock.o)
 .debug_info    0x0000cd08       0x83 /usr/local/arm-elf-tools/gcc-4.3.3/lib/gcc/arm-elf/4.3.3/../../../../arm-elf/lib/interwork/libc.a(lib_a-ctype_.o)
 .debug_info    0x0000cd8b       0xc0 /usr/local/arm-elf-tools/gcc-4.3.3/lib/gcc/arm-elf/4.3.3/../../../../arm-elf/lib/interwork/libc.a(lib_a-difftime.o)
 .debug_info    0x0000ce4b      0x952 /usr/local/arm-elf-tools/gcc-4.3.3/lib/gcc/arm-elf/4.3.3/../../../../arm-elf/lib/interwork/libc.a(lib_a-errno.o)
 .debug_info    0x0000d79d      0x961 /usr/local/arm-elf-tools/gcc-4.3.3/lib/gcc/arm-elf/4.3.3/../../../../arm-elf/lib/interwork/libc.a(lib_a-exit.o)
 .debug_info    0x0000e0fe      0x9b6 /usr/local/arm-elf-tools/gcc-4.3.3/lib/gcc/arm-elf/4.3.3/../../../../arm-elf/lib/interwork/libc.a(lib_a-fclose.o)
 .debug_info    0x0000eab4      0x9f2 /usr/local/arm-elf-tools/gcc-4.3.3/lib/gcc/arm-elf/4.3.3/../../../../arm-elf/lib/interwork/libc.a(lib_a-fdopen.o)
 .debug_info    0x0000f4a6      0xa1c /usr/local/arm-elf-tools/gcc-4.3.3/lib/gcc/arm-elf/4.3.3/../../../../arm-elf/lib/interwork/libc.a(lib_a-fflush.o)
 .debug_info    0x0000fec2      0xa26 /usr/local/arm-elf-tools/gcc-4.3.3/lib/gcc/arm-elf/4.3.3/../../../../arm-elf/lib/interwork/libc.a(lib_a-fgets.o)
 .debug_info    0x000108e8      0x97c /usr/local/arm-elf-tools/gcc-4.3.3/lib/gcc/arm-elf/4.3.3/../../../../arm-elf/lib/interwork/libc.a(lib_a-fileno.o)
 .debug_info    0x00011264      0xbe7 /usr/local/arm-elf-tools/gcc-4.3.3/lib/gcc/arm-elf/4.3.3/../../../../arm-elf/lib/interwork/libc.a(lib_a-findfp.o)
 .debug_info    0x00011e4b      0x99f /usr/local/arm-elf-tools/gcc-4.3.3/lib/gcc/arm-elf/4.3.3/../../../../arm-elf/lib/interwork/libc.a(lib_a-flags.o)
 .debug_info    0x000127ea      0xa00 /usr/local/arm-elf-tools/gcc-4.3.3/lib/gcc/arm-elf/4.3.3/../../../../arm-elf/lib/interwork/libc.a(lib_a-fopen.o)
 .debug_info    0x000131ea      0xa11 /usr/local/arm-elf-tools/gcc-4.3.3/lib/gcc/arm-elf/4.3.3/../../../../arm-elf/lib/interwork/libc.a(lib_a-fprintf.o)
 .debug_info    0x00013bfb      0x9e1 /usr/local/arm-elf-tools/gcc-4.3.3/lib/gcc/arm-elf/4.3.3/../../../../arm-elf/lib/interwork/libc.a(lib_a-fputc.o)
 .debug_info    0x000145dc      0xa64 /usr/local/arm-elf-tools/gcc-4.3.3/lib/gcc/arm-elf/4.3.3/../../../../arm-elf/lib/interwork/libc.a(lib_a-fputs.o)
 .debug_info    0x00015040      0xa98 /usr/local/arm-elf-tools/gcc-4.3.3/lib/gcc/arm-elf/4.3.3/../../../../arm-elf/lib/interwork/libc.a(lib_a-fread.o)
 .debug_info    0x00015ad8      0xbe7 /usr/local/arm-elf-tools/gcc-4.3.3/lib/gcc/arm-elf/4.3.3/../../../../arm-elf/lib/interwork/libc.a(lib_a-freer.o)
 .debug_info    0x000166bf      0xa21 /usr/local/arm-elf-tools/gcc-4.3.3/lib/gcc/arm-elf/4.3.3/../../../../arm-elf/lib/interwork/libc.a(lib_a-freopen.o)
 .debug_info    0x000170e0      0xa11 /usr/local/arm-elf-tools/gcc-4.3.3/lib/gcc/arm-elf/4.3.3/../../../../arm-elf/lib/interwork/libc.a(lib_a-fscanf.o)
 .debug_info    0x00017af1      0xbfe /usr/local/arm-elf-tools/gcc-4.3.3/lib/gcc/arm-elf/4.3.3/../../../../arm-elf/lib/interwork/libc.a(lib_a-fseek.o)
 .debug_info    0x000186ef      0x9ba /usr/local/arm-elf-tools/gcc-4.3.3/lib/gcc/arm-elf/4.3.3/../../../../arm-elf/lib/interwork/libc.a(lib_a-ftell.o)
 .debug_info    0x000190a9      0xaa8 /usr/local/arm-elf-tools/gcc-4.3.3/lib/gcc/arm-elf/4.3.3/../../../../arm-elf/lib/interwork/libc.a(lib_a-fvwrite.o)
 .debug_info    0x00019b51      0xb09 /usr/local/arm-elf-tools/gcc-4.3.3/lib/gcc/arm-elf/4.3.3/../../../../arm-elf/lib/interwork/libc.a(lib_a-fwalk.o)
 .debug_info    0x0001a65a      0xaa6 /usr/local/arm-elf-tools/gcc-4.3.3/lib/gcc/arm-elf/4.3.3/../../../../arm-elf/lib/interwork/libc.a(lib_a-fwrite.o)
 .debug_info    0x0001b100      0x9b2 /usr/local/arm-elf-tools/gcc-4.3.3/lib/gcc/arm-elf/4.3.3/../../../../arm-elf/lib/interwork/libc.a(lib_a-getenv.o)
 .debug_info    0x0001bab2      0xa14 /usr/local/arm-elf-tools/gcc-4.3.3/lib/gcc/arm-elf/4.3.3/../../../../arm-elf/lib/interwork/libc.a(lib_a-getenv_r.o)
 .debug_info    0x0001c4c6      0xa08 /usr/local/arm-elf-tools/gcc-4.3.3/lib/gcc/arm-elf/4.3.3/../../../../arm-elf/lib/interwork/libc.a(lib_a-gmtime.o)
 .debug_info    0x0001cece      0x154 /usr/local/arm-elf-tools/gcc-4.3.3/lib/gcc/arm-elf/4.3.3/../../../../arm-elf/lib/interwork/libc.a(lib_a-gmtime_r.o)
 .debug_info    0x0001d022      0x961 /usr/local/arm-elf-tools/gcc-4.3.3/lib/gcc/arm-elf/4.3.3/../../../../arm-elf/lib/interwork/libc.a(lib_a-impure.o)
 .debug_info    0x0001d983      0xa08 /usr/local/arm-elf-tools/gcc-4.3.3/lib/gcc/arm-elf/4.3.3/../../../../arm-elf/lib/interwork/libc.a(lib_a-lcltime.o)
 .debug_info    0x0001e38b      0x154 /usr/local/arm-elf-tools/gcc-4.3.3/lib/gcc/arm-elf/4.3.3/../../../../arm-elf/lib/interwork/libc.a(lib_a-lcltime_r.o)
 .debug_info    0x0001e4df      0xbd1 /usr/local/arm-elf-tools/gcc-4.3.3/lib/gcc/arm-elf/4.3.3/../../../../arm-elf/lib/interwork/libc.a(lib_a-locale.o)
 .debug_info    0x0001f0b0      0xb42 /usr/local/arm-elf-tools/gcc-4.3.3/lib/gcc/arm-elf/4.3.3/../../../../arm-elf/lib/interwork/libc.a(lib_a-makebuf.o)
 .debug_info    0x0001fbf2      0x996 /usr/local/arm-elf-tools/gcc-4.3.3/lib/gcc/arm-elf/4.3.3/../../../../arm-elf/lib/interwork/libc.a(lib_a-malloc.o)
 .debug_info    0x00020588      0xcf2 /usr/local/arm-elf-tools/gcc-4.3.3/lib/gcc/arm-elf/4.3.3/../../../../arm-elf/lib/interwork/libc.a(lib_a-mallocr.o)
 .debug_info    0x0002127a      0x121 /usr/local/arm-elf-tools/gcc-4.3.3/lib/gcc/arm-elf/4.3.3/../../../../arm-elf/lib/interwork/libc.a(lib_a-memchr.o)
 .debug_info    0x0002139b      0x10b /usr/local/arm-elf-tools/gcc-4.3.3/lib/gcc/arm-elf/4.3.3/../../../../arm-elf/lib/interwork/libc.a(lib_a-memcmp.o)
 .debug_info    0x000214a6      0x13e /usr/local/arm-elf-tools/gcc-4.3.3/lib/gcc/arm-elf/4.3.3/../../../../arm-elf/lib/interwork/libc.a(lib_a-memcpy.o)
 .debug_info    0x000215e4      0x13e /usr/local/arm-elf-tools/gcc-4.3.3/lib/gcc/arm-elf/4.3.3/../../../../arm-elf/lib/interwork/libc.a(lib_a-memmove.o)
 .debug_info    0x00021722      0x111 /usr/local/arm-elf-tools/gcc-4.3.3/lib/gcc/arm-elf/4.3.3/../../../../arm-elf/lib/interwork/libc.a(lib_a-memset.o)
 .debug_info    0x00021833      0x370 /usr/local/arm-elf-tools/gcc-4.3.3/lib/gcc/arm-elf/4.3.3/../../../../arm-elf/lib/interwork/libc.a(lib_a-mktime.o)
 .debug_info    0x00021ba3      0x3f3 /usr/local/arm-elf-tools/gcc-4.3.3/lib/gcc/arm-elf/4.3.3/../../../../arm-elf/lib/interwork/libc.a(lib_a-mktm_r.o)
 .debug_info    0x00021f96      0x97b /usr/local/arm-elf-tools/gcc-4.3.3/lib/gcc/arm-elf/4.3.3/../../../../arm-elf/lib/interwork/libc.a(lib_a-mlock.o)
 .debug_info    0x00022911      0x9f3 /usr/local/arm-elf-tools/gcc-4.3.3/lib/gcc/arm-elf/4.3.3/../../../../arm-elf/lib/interwork/libc.a(lib_a-printf.o)
 .debug_info    0x00023304      0x9e5 /usr/local/arm-elf-tools/gcc-4.3.3/lib/gcc/arm-elf/4.3.3/../../../../arm-elf/lib/interwork/libc.a(lib_a-putc.o)
 .debug_info    0x00023ce9      0x973 /usr/local/arm-elf-tools/gcc-4.3.3/lib/gcc/arm-elf/4.3.3/../../../../arm-elf/lib/interwork/libc.a(lib_a-rand.o)
 .debug_info    0x0002465c      0x97b /usr/local/arm-elf-tools/gcc-4.3.3/lib/gcc/arm-elf/4.3.3/../../../../arm-elf/lib/interwork/libc.a(lib_a-realloc.o)
 .debug_info    0x00024fd7      0xbdb /usr/local/arm-elf-tools/gcc-4.3.3/lib/gcc/arm-elf/4.3.3/../../../../arm-elf/lib/interwork/libc.a(lib_a-reallocr.o)
 .debug_info    0x00025bb2      0x9b1 /usr/local/arm-elf-tools/gcc-4.3.3/lib/gcc/arm-elf/4.3.3/../../../../arm-elf/lib/interwork/libc.a(lib_a-refill.o)
 .debug_info    0x00026563      0x9c9 /usr/local/arm-elf-tools/gcc-4.3.3/lib/gcc/arm-elf/4.3.3/../../../../arm-elf/lib/interwork/libc.a(lib_a-remove.o)
 .debug_info    0x00026f2c      0x9ab /usr/local/arm-elf-tools/gcc-4.3.3/lib/gcc/arm-elf/4.3.3/../../../../arm-elf/lib/interwork/libc.a(lib_a-rget.o)
 .debug_info    0x000278d7       0xc2 /usr/local/arm-elf-tools/gcc-4.3.3/lib/gcc/arm-elf/4.3.3/../../../../arm-elf/lib/interwork/libc.a(lib_a-setjmp.o)
 .debug_info    0x00027999      0x9c4 /usr/local/arm-elf-tools/gcc-4.3.3/lib/gcc/arm-elf/4.3.3/../../../../arm-elf/lib/interwork/libc.a(lib_a-setvbuf.o)
 .debug_info    0x0002835d      0xb0d /usr/local/arm-elf-tools/gcc-4.3.3/lib/gcc/arm-elf/4.3.3/../../../../arm-elf/lib/interwork/libc.a(lib_a-signal.o)
 .debug_info    0x00028e6a      0xa65 /usr/local/arm-elf-tools/gcc-4.3.3/lib/gcc/arm-elf/4.3.3/../../../../arm-elf/lib/interwork/libc.a(lib_a-snprintf.o)
 .debug_info    0x000298cf      0xa34 /usr/local/arm-elf-tools/gcc-4.3.3/lib/gcc/arm-elf/4.3.3/../../../../arm-elf/lib/interwork/libc.a(lib_a-sprintf.o)
 .debug_info    0x0002a303      0xad4 /usr/local/arm-elf-tools/gcc-4.3.3/lib/gcc/arm-elf/4.3.3/../../../../arm-elf/lib/interwork/libc.a(lib_a-stdio.o)
 .debug_info    0x0002add7       0xe5 /usr/local/arm-elf-tools/gcc-4.3.3/lib/gcc/arm-elf/4.3.3/../../../../arm-elf/lib/interwork/libc.a(lib_a-strcat.o)
 .debug_info    0x0002aebc      0x10c /usr/local/arm-elf-tools/gcc-4.3.3/lib/gcc/arm-elf/4.3.3/../../../../arm-elf/lib/interwork/libc.a(lib_a-strchr.o)
 .debug_info    0x0002afc8       0xd7 /usr/local/arm-elf-tools/gcc-4.3.3/lib/gcc/arm-elf/4.3.3/../../../../arm-elf/lib/interwork/libc.a(lib_a-strcmp.o)
 .debug_info    0x0002b09f       0xb1 /usr/local/arm-elf-tools/gcc-4.3.3/lib/gcc/arm-elf/4.3.3/../../../../arm-elf/lib/interwork/libc.a(lib_a-strcoll.o)
 .debug_info    0x0002b150      0x10a /usr/local/arm-elf-tools/gcc-4.3.3/lib/gcc/arm-elf/4.3.3/../../../../arm-elf/lib/interwork/libc.a(lib_a-strcpy.o)
 .debug_info    0x0002b25a       0xd0 /usr/local/arm-elf-tools/gcc-4.3.3/lib/gcc/arm-elf/4.3.3/../../../../arm-elf/lib/interwork/libc.a(lib_a-strcspn.o)
 .debug_info    0x0002b32a       0xb3 /usr/local/arm-elf-tools/gcc-4.3.3/lib/gcc/arm-elf/4.3.3/../../../../arm-elf/lib/interwork/libc.a(lib_a-strerror.o)
 .debug_info    0x0002b3dd      0x511 /usr/local/arm-elf-tools/gcc-4.3.3/lib/gcc/arm-elf/4.3.3/../../../../arm-elf/lib/interwork/libc.a(lib_a-strftime.o)
 .debug_info    0x0002b8ee       0xd3 /usr/local/arm-elf-tools/gcc-4.3.3/lib/gcc/arm-elf/4.3.3/../../../../arm-elf/lib/interwork/libc.a(lib_a-strlen.o)
 .debug_info    0x0002b9c1       0xfd /usr/local/arm-elf-tools/gcc-4.3.3/lib/gcc/arm-elf/4.3.3/../../../../arm-elf/lib/interwork/libc.a(lib_a-strncat.o)
 .debug_info    0x0002babe       0xef /usr/local/arm-elf-tools/gcc-4.3.3/lib/gcc/arm-elf/4.3.3/../../../../arm-elf/lib/interwork/libc.a(lib_a-strncmp.o)
 .debug_info    0x0002bbad      0x126 /usr/local/arm-elf-tools/gcc-4.3.3/lib/gcc/arm-elf/4.3.3/../../../../arm-elf/lib/interwork/libc.a(lib_a-strncpy.o)
 .debug_info    0x0002bcd3       0xc5 /usr/local/arm-elf-tools/gcc-4.3.3/lib/gcc/arm-elf/4.3.3/../../../../arm-elf/lib/interwork/libc.a(lib_a-strnlen.o)
 .debug_info    0x0002bd98       0xc2 /usr/local/arm-elf-tools/gcc-4.3.3/lib/gcc/arm-elf/4.3.3/../../../../arm-elf/lib/interwork/libc.a(lib_a-strpbrk.o)
 .debug_info    0x0002be5a       0xc4 /usr/local/arm-elf-tools/gcc-4.3.3/lib/gcc/arm-elf/4.3.3/../../../../arm-elf/lib/interwork/libc.a(lib_a-strrchr.o)
 .debug_info    0x0002bf1e      0x382 /usr/local/arm-elf-tools/gcc-4.3.3/lib/gcc/arm-elf/4.3.3/../../../../arm-elf/lib/interwork/libc.a(lib_a-strstr.o)
 .debug_info    0x0002c2a0     0x1015 /usr/local/arm-elf-tools/gcc-4.3.3/lib/gcc/arm-elf/4.3.3/../../../../arm-elf/lib/interwork/libc.a(lib_a-strtod.o)
 .debug_info    0x0002d2b5      0xa44 /usr/local/arm-elf-tools/gcc-4.3.3/lib/gcc/arm-elf/4.3.3/../../../../arm-elf/lib/interwork/libc.a(lib_a-strtoul.o)
 .debug_info    0x0002dcf9     0x1034 /usr/local/arm-elf-tools/gcc-4.3.3/lib/gcc/arm-elf/4.3.3/../../../../arm-elf/lib/interwork/libc.a(lib_a-svfprintf.o)
 .debug_info    0x0002ed2d      0x961 /usr/local/arm-elf-tools/gcc-4.3.3/lib/gcc/arm-elf/4.3.3/../../../../arm-elf/lib/interwork/libc.a(lib_a-sysclose.o)
 .debug_info    0x0002f68e      0x9b6 /usr/local/arm-elf-tools/gcc-4.3.3/lib/gcc/arm-elf/4.3.3/../../../../arm-elf/lib/interwork/libc.a(lib_a-sysgettod.o)
 .debug_info    0x00030044      0x9a2 /usr/local/arm-elf-tools/gcc-4.3.3/lib/gcc/arm-elf/4.3.3/../../../../arm-elf/lib/interwork/libc.a(lib_a-sysopen.o)
 .debug_info    0x000309e6      0x98a /usr/local/arm-elf-tools/gcc-4.3.3/lib/gcc/arm-elf/4.3.3/../../../../arm-elf/lib/interwork/libc.a(lib_a-sysread.o)
 .debug_info    0x00031370      0x998 /usr/local/arm-elf-tools/gcc-4.3.3/lib/gcc/arm-elf/4.3.3/../../../../arm-elf/lib/interwork/libc.a(lib_a-system.o)
 .debug_info    0x00031d08      0x962 /usr/local/arm-elf-tools/gcc-4.3.3/lib/gcc/arm-elf/4.3.3/../../../../arm-elf/lib/interwork/libc.a(lib_a-sysunlink.o)
 .debug_info    0x0003266a      0x991 /usr/local/arm-elf-tools/gcc-4.3.3/lib/gcc/arm-elf/4.3.3/../../../../arm-elf/lib/interwork/libc.a(lib_a-syswrite.o)
 .debug_info    0x00032ffb      0x9b3 /usr/local/arm-elf-tools/gcc-4.3.3/lib/gcc/arm-elf/4.3.3/../../../../arm-elf/lib/interwork/libc.a(lib_a-time.o)
 .debug_info    0x000339ae      0x9c4 /usr/local/arm-elf-tools/gcc-4.3.3/lib/gcc/arm-elf/4.3.3/../../../../arm-elf/lib/interwork/libc.a(lib_a-timesr.o)
 .debug_info    0x00034372      0x9dc /usr/local/arm-elf-tools/gcc-4.3.3/lib/gcc/arm-elf/4.3.3/../../../../arm-elf/lib/interwork/libc.a(lib_a-tmpfile.o)
 .debug_info    0x00034d4e      0xaec /usr/local/arm-elf-tools/gcc-4.3.3/lib/gcc/arm-elf/4.3.3/../../../../arm-elf/lib/interwork/libc.a(lib_a-tmpnam.o)
 .debug_info    0x0003583a       0xa4 /usr/local/arm-elf-tools/gcc-4.3.3/lib/gcc/arm-elf/4.3.3/../../../../arm-elf/lib/interwork/libc.a(lib_a-tzlock.o)
 .debug_info    0x000358de       0xbe /usr/local/arm-elf-tools/gcc-4.3.3/lib/gcc/arm-elf/4.3.3/../../../../arm-elf/lib/interwork/libc.a(lib_a-tzvars.o)
 .debug_info    0x0003599c      0xa1a /usr/local/arm-elf-tools/gcc-4.3.3/lib/gcc/arm-elf/4.3.3/../../../../arm-elf/lib/interwork/libc.a(lib_a-ungetc.o)
 .debug_info    0x000363b6       0x61 /usr/local/arm-elf-tools/gcc-4.3.3/lib/gcc/arm-elf/4.3.3/../../../../arm-elf/lib/interwork/libc.a(lib_a-u_strerr.o)
 .debug_info    0x00036417     0x10fc /usr/local/arm-elf-tools/gcc-4.3.3/lib/gcc/arm-elf/4.3.3/../../../../arm-elf/lib/interwork/libc.a(lib_a-vfprintf.o)
 .debug_info    0x00037513      0xe9b /usr/local/arm-elf-tools/gcc-4.3.3/lib/gcc/arm-elf/4.3.3/../../../../arm-elf/lib/interwork/libc.a(lib_a-vfscanf.o)
 .debug_info    0x000383ae      0xa43 /usr/local/arm-elf-tools/gcc-4.3.3/lib/gcc/arm-elf/4.3.3/../../../../arm-elf/lib/interwork/libc.a(lib_a-vsnprintf.o)
 .debug_info    0x00038df1      0x9d2 /usr/local/arm-elf-tools/gcc-4.3.3/lib/gcc/arm-elf/4.3.3/../../../../arm-elf/lib/interwork/libc.a(lib_a-wbuf.o)
 .debug_info    0x000397c3      0x981 /usr/local/arm-elf-tools/gcc-4.3.3/lib/gcc/arm-elf/4.3.3/../../../../arm-elf/lib/interwork/libc.a(lib_a-wsetup.o)
 .debug_info    0x0003a144       0x97 /usr/local/arm-elf-tools/gcc-4.3.3/lib/gcc/arm-elf/4.3.3/../../../../arm-elf/lib/interwork/libc.a(lib_a-abs.o)
 .debug_info    0x0003a1db      0x9df /usr/local/arm-elf-tools/gcc-4.3.3/lib/gcc/arm-elf/4.3.3/../../../../arm-elf/lib/interwork/libc.a(lib_a-__call_atexit.o)
 .debug_info    0x0003abba       0xe3 /usr/local/arm-elf-tools/gcc-4.3.3/lib/gcc/arm-elf/4.3.3/../../../../arm-elf/lib/interwork/libc.a(lib_a-div.o)
 .debug_info    0x0003ac9d      0xd8e /usr/local/arm-elf-tools/gcc-4.3.3/lib/gcc/arm-elf/4.3.3/../../../../arm-elf/lib/interwork/libc.a(lib_a-dtoa.o)
 .debug_info    0x0003ba2b       0x6b /usr/local/arm-elf-tools/gcc-4.3.3/lib/gcc/arm-elf/4.3.3/../../../../arm-elf/lib/interwork/libc.a(lib_a-environ.o)
 .debug_info    0x0003ba96      0x97d /usr/local/arm-elf-tools/gcc-4.3.3/lib/gcc/arm-elf/4.3.3/../../../../arm-elf/lib/interwork/libc.a(lib_a-envlock.o)
 .debug_info    0x0003c413      0xe09 /usr/local/arm-elf-tools/gcc-4.3.3/lib/gcc/arm-elf/4.3.3/../../../../arm-elf/lib/interwork/libc.a(lib_a-gdtoa-gethex.o)
 .debug_info    0x0003d21c      0x2f8 /usr/local/arm-elf-tools/gcc-4.3.3/lib/gcc/arm-elf/4.3.3/../../../../arm-elf/lib/interwork/libc.a(lib_a-gdtoa-hexnan.o)
 .debug_info    0x0003d514      0x9d3 /usr/local/arm-elf-tools/gcc-4.3.3/lib/gcc/arm-elf/4.3.3/../../../../arm-elf/lib/interwork/libc.a(lib_a-gettimeofdayr.o)
 .debug_info    0x0003dee7      0x16e /usr/local/arm-elf-tools/gcc-4.3.3/lib/gcc/arm-elf/4.3.3/../../../../arm-elf/lib/interwork/libc.a(lib_a-gettzinfo.o)
 .debug_info    0x0003e055      0x97e /usr/local/arm-elf-tools/gcc-4.3.3/lib/gcc/arm-elf/4.3.3/../../../../arm-elf/lib/interwork/libc.a(lib_a-isattyr.o)
 .debug_info    0x0003e9d3       0xe7 /usr/local/arm-elf-tools/gcc-4.3.3/lib/gcc/arm-elf/4.3.3/../../../../arm-elf/lib/interwork/libc.a(lib_a-iswspace.o)
 .debug_info    0x0003eaba       0x97 /usr/local/arm-elf-tools/gcc-4.3.3/lib/gcc/arm-elf/4.3.3/../../../../arm-elf/lib/interwork/libc.a(lib_a-labs.o)
 .debug_info    0x0003eb51      0xa2b /usr/local/arm-elf-tools/gcc-4.3.3/lib/gcc/arm-elf/4.3.3/../../../../arm-elf/lib/interwork/libc.a(lib_a-mbrtowc.o)
 .debug_info    0x0003f57c      0x9cc /usr/local/arm-elf-tools/gcc-4.3.3/lib/gcc/arm-elf/4.3.3/../../../../arm-elf/lib/interwork/libc.a(lib_a-mbtowc_r.o)
 .debug_info    0x0003ff48     0x1508 /usr/local/arm-elf-tools/gcc-4.3.3/lib/gcc/arm-elf/4.3.3/../../../../arm-elf/lib/interwork/libc.a(lib_a-mprec.o)
 .debug_info    0x00041450      0xa44 /usr/local/arm-elf-tools/gcc-4.3.3/lib/gcc/arm-elf/4.3.3/../../../../arm-elf/lib/interwork/libc.a(lib_a-reent.o)
 .debug_info    0x00041e94       0xf5 /usr/local/arm-elf-tools/gcc-4.3.3/lib/gcc/arm-elf/4.3.3/../../../../arm-elf/lib/interwork/libc.a(lib_a-sccl.o)
 .debug_info    0x00041f89       0xc2 /usr/local/arm-elf-tools/gcc-4.3.3/lib/gcc/arm-elf/4.3.3/../../../../arm-elf/lib/interwork/libc.a(lib_a-sf_nan.o)
 .debug_info    0x0004204b      0x149 /usr/local/arm-elf-tools/gcc-4.3.3/lib/gcc/arm-elf/4.3.3/../../../../arm-elf/lib/interwork/libc.a(lib_a-s_isinfd.o)
 .debug_info    0x00042194      0xa4c /usr/local/arm-elf-tools/gcc-4.3.3/lib/gcc/arm-elf/4.3.3/../../../../arm-elf/lib/interwork/libc.a(lib_a-strtol.o)

.debug_line     0x00000000     0xf501
 .debug_line    0x00000000      0x14d /usr/local/arm-elf-tools/gcc-4.3.3/lib/gcc/arm-elf/4.3.3/../../../../arm-elf/lib/interwork/libm.a(lib_a-s_atan.o)
 .debug_line    0x0000014d      0x125 /usr/local/arm-elf-tools/gcc-4.3.3/lib/gcc/arm-elf/4.3.3/../../../../arm-elf/lib/interwork/libm.a(lib_a-s_ceil.o)
 .debug_line    0x00000272       0xd3 /usr/local/arm-elf-tools/gcc-4.3.3/lib/gcc/arm-elf/4.3.3/../../../../arm-elf/lib/interwork/libm.a(lib_a-s_cos.o)
 .debug_line    0x00000345      0x105 /usr/local/arm-elf-tools/gcc-4.3.3/lib/gcc/arm-elf/4.3.3/../../../../arm-elf/lib/interwork/libm.a(lib_a-s_fabs.o)
 .debug_line    0x0000044a      0x12a /usr/local/arm-elf-tools/gcc-4.3.3/lib/gcc/arm-elf/4.3.3/../../../../arm-elf/lib/interwork/libm.a(lib_a-s_floor.o)
 .debug_line    0x00000574      0x118 /usr/local/arm-elf-tools/gcc-4.3.3/lib/gcc/arm-elf/4.3.3/../../../../arm-elf/lib/interwork/libm.a(lib_a-s_frexp.o)
 .debug_line    0x0000068c       0x70 /usr/local/arm-elf-tools/gcc-4.3.3/lib/gcc/arm-elf/4.3.3/../../../../arm-elf/lib/interwork/libm.a(lib_a-s_ldexp.o)
 .debug_line    0x000006fc       0xf3 /usr/local/arm-elf-tools/gcc-4.3.3/lib/gcc/arm-elf/4.3.3/../../../../arm-elf/lib/interwork/libm.a(lib_a-s_modf.o)
 .debug_line    0x000007ef       0xf2 /usr/local/arm-elf-tools/gcc-4.3.3/lib/gcc/arm-elf/4.3.3/../../../../arm-elf/lib/interwork/libm.a(lib_a-s_scalbn.o)
 .debug_line    0x000008e1       0xd4 /usr/local/arm-elf-tools/gcc-4.3.3/lib/gcc/arm-elf/4.3.3/../../../../arm-elf/lib/interwork/libm.a(lib_a-s_sin.o)
 .debug_line    0x000009b5      0x125 /usr/local/arm-elf-tools/gcc-4.3.3/lib/gcc/arm-elf/4.3.3/../../../../arm-elf/lib/interwork/libm.a(lib_a-s_tanh.o)
 .debug_line    0x00000ada      0x110 /usr/local/arm-elf-tools/gcc-4.3.3/lib/gcc/arm-elf/4.3.3/../../../../arm-elf/lib/interwork/libm.a(lib_a-s_tan.o)
 .debug_line    0x00000bea       0xc2 /usr/local/arm-elf-tools/gcc-4.3.3/lib/gcc/arm-elf/4.3.3/../../../../arm-elf/lib/interwork/libm.a(lib_a-w_acos.o)
 .debug_line    0x00000cac       0xc2 /usr/local/arm-elf-tools/gcc-4.3.3/lib/gcc/arm-elf/4.3.3/../../../../arm-elf/lib/interwork/libm.a(lib_a-w_asin.o)
 .debug_line    0x00000d6e       0x6c /usr/local/arm-elf-tools/gcc-4.3.3/lib/gcc/arm-elf/4.3.3/../../../../arm-elf/lib/interwork/libm.a(lib_a-w_atan2.o)
 .debug_line    0x00000dda       0xc8 /usr/local/arm-elf-tools/gcc-4.3.3/lib/gcc/arm-elf/4.3.3/../../../../arm-elf/lib/interwork/libm.a(lib_a-w_cosh.o)
 .debug_line    0x00000ea2       0xd2 /usr/local/arm-elf-tools/gcc-4.3.3/lib/gcc/arm-elf/4.3.3/../../../../arm-elf/lib/interwork/libm.a(lib_a-w_exp.o)
 .debug_line    0x00000f74       0xc8 /usr/local/arm-elf-tools/gcc-4.3.3/lib/gcc/arm-elf/4.3.3/../../../../arm-elf/lib/interwork/libm.a(lib_a-w_fmod.o)
 .debug_line    0x0000103c       0xd5 /usr/local/arm-elf-tools/gcc-4.3.3/lib/gcc/arm-elf/4.3.3/../../../../arm-elf/lib/interwork/libm.a(lib_a-w_log10.o)
 .debug_line    0x00001111       0xd3 /usr/local/arm-elf-tools/gcc-4.3.3/lib/gcc/arm-elf/4.3.3/../../../../arm-elf/lib/interwork/libm.a(lib_a-w_log.o)
 .debug_line    0x000011e4      0x13a /usr/local/arm-elf-tools/gcc-4.3.3/lib/gcc/arm-elf/4.3.3/../../../../arm-elf/lib/interwork/libm.a(lib_a-w_pow.o)
 .debug_line    0x0000131e       0xcb /usr/local/arm-elf-tools/gcc-4.3.3/lib/gcc/arm-elf/4.3.3/../../../../arm-elf/lib/interwork/libm.a(lib_a-w_sinh.o)
 .debug_line    0x000013e9       0xc5 /usr/local/arm-elf-tools/gcc-4.3.3/lib/gcc/arm-elf/4.3.3/../../../../arm-elf/lib/interwork/libm.a(lib_a-w_sqrt.o)
 .debug_line    0x000014ae      0x139 /usr/local/arm-elf-tools/gcc-4.3.3/lib/gcc/arm-elf/4.3.3/../../../../arm-elf/lib/interwork/libm.a(lib_a-e_acos.o)
 .debug_line    0x000015e7      0x140 /usr/local/arm-elf-tools/gcc-4.3.3/lib/gcc/arm-elf/4.3.3/../../../../arm-elf/lib/interwork/libm.a(lib_a-e_asin.o)
 .debug_line    0x00001727      0x145 /usr/local/arm-elf-tools/gcc-4.3.3/lib/gcc/arm-elf/4.3.3/../../../../arm-elf/lib/interwork/libm.a(lib_a-e_atan2.o)
 .debug_line    0x0000186c      0x131 /usr/local/arm-elf-tools/gcc-4.3.3/lib/gcc/arm-elf/4.3.3/../../../../arm-elf/lib/interwork/libm.a(lib_a-e_cosh.o)
 .debug_line    0x0000199d      0x14c /usr/local/arm-elf-tools/gcc-4.3.3/lib/gcc/arm-elf/4.3.3/../../../../arm-elf/lib/interwork/libm.a(lib_a-e_exp.o)
 .debug_line    0x00001ae9      0x17b /usr/local/arm-elf-tools/gcc-4.3.3/lib/gcc/arm-elf/4.3.3/../../../../arm-elf/lib/interwork/libm.a(lib_a-e_fmod.o)
 .debug_line    0x00001c64      0x125 /usr/local/arm-elf-tools/gcc-4.3.3/lib/gcc/arm-elf/4.3.3/../../../../arm-elf/lib/interwork/libm.a(lib_a-e_log10.o)
 .debug_line    0x00001d89      0x16d /usr/local/arm-elf-tools/gcc-4.3.3/lib/gcc/arm-elf/4.3.3/../../../../arm-elf/lib/interwork/libm.a(lib_a-e_log.o)
 .debug_line    0x00001ef6      0x24b /usr/local/arm-elf-tools/gcc-4.3.3/lib/gcc/arm-elf/4.3.3/../../../../arm-elf/lib/interwork/libm.a(lib_a-e_pow.o)
 .debug_line    0x00002141      0x197 /usr/local/arm-elf-tools/gcc-4.3.3/lib/gcc/arm-elf/4.3.3/../../../../arm-elf/lib/interwork/libm.a(lib_a-e_rem_pio2.o)
 .debug_line    0x000022d8       0xec /usr/local/arm-elf-tools/gcc-4.3.3/lib/gcc/arm-elf/4.3.3/../../../../arm-elf/lib/interwork/libm.a(lib_a-e_sinh.o)
 .debug_line    0x000023c4      0x16d /usr/local/arm-elf-tools/gcc-4.3.3/lib/gcc/arm-elf/4.3.3/../../../../arm-elf/lib/interwork/libm.a(lib_a-e_sqrt.o)
 .debug_line    0x00002531      0x122 /usr/local/arm-elf-tools/gcc-4.3.3/lib/gcc/arm-elf/4.3.3/../../../../arm-elf/lib/interwork/libm.a(lib_a-k_cos.o)
 .debug_line    0x00002653      0x1e6 /usr/local/arm-elf-tools/gcc-4.3.3/lib/gcc/arm-elf/4.3.3/../../../../arm-elf/lib/interwork/libm.a(lib_a-k_rem_pio2.o)
 .debug_line    0x00002839      0x116 /usr/local/arm-elf-tools/gcc-4.3.3/lib/gcc/arm-elf/4.3.3/../../../../arm-elf/lib/interwork/libm.a(lib_a-k_sin.o)
 .debug_line    0x0000294f      0x144 /usr/local/arm-elf-tools/gcc-4.3.3/lib/gcc/arm-elf/4.3.3/../../../../arm-elf/lib/interwork/libm.a(lib_a-k_tan.o)
 .debug_line    0x00002a93       0xd0 /usr/local/arm-elf-tools/gcc-4.3.3/lib/gcc/arm-elf/4.3.3/../../../../arm-elf/lib/interwork/libm.a(lib_a-s_copysign.o)
 .debug_line    0x00002b63      0x14d /usr/local/arm-elf-tools/gcc-4.3.3/lib/gcc/arm-elf/4.3.3/../../../../arm-elf/lib/interwork/libm.a(lib_a-s_expm1.o)
 .debug_line    0x00002cb0       0xc9 /usr/local/arm-elf-tools/gcc-4.3.3/lib/gcc/arm-elf/4.3.3/../../../../arm-elf/lib/interwork/libm.a(lib_a-s_finite.o)
 .debug_line    0x00002d79       0xcd /usr/local/arm-elf-tools/gcc-4.3.3/lib/gcc/arm-elf/4.3.3/../../../../arm-elf/lib/interwork/libm.a(lib_a-s_isnand.o)
 .debug_line    0x00002e46       0x9b /usr/local/arm-elf-tools/gcc-4.3.3/lib/gcc/arm-elf/4.3.3/../../../../arm-elf/lib/interwork/libm.a(lib_a-s_lib_ver.o)
 .debug_line    0x00002ee1       0xac /usr/local/arm-elf-tools/gcc-4.3.3/lib/gcc/arm-elf/4.3.3/../../../../arm-elf/lib/interwork/libm.a(lib_a-s_matherr.o)
 .debug_line    0x00002f8d       0xc8 /usr/local/arm-elf-tools/gcc-4.3.3/lib/gcc/arm-elf/4.3.3/../../../../arm-elf/lib/interwork/libm.a(lib_a-s_nan.o)
 .debug_line    0x00003055       0xf8 /usr/local/arm-elf-tools/gcc-4.3.3/lib/gcc/arm-elf/4.3.3/../../../../arm-elf/lib/interwork/libm.a(lib_a-s_rint.o)
 .debug_line    0x0000314d       0x99 /usr/local/arm-elf-tools/gcc-4.3.3/lib/gcc/arm-elf/4.3.3/interwork/libgcc.a(_udivsi3.o)
 .debug_line    0x000031e6       0xa5 /usr/local/arm-elf-tools/gcc-4.3.3/lib/gcc/arm-elf/4.3.3/interwork/libgcc.a(_divsi3.o)
 .debug_line    0x0000328b       0x83 /usr/local/arm-elf-tools/gcc-4.3.3/lib/gcc/arm-elf/4.3.3/interwork/libgcc.a(_umodsi3.o)
 .debug_line    0x0000330e       0x89 /usr/local/arm-elf-tools/gcc-4.3.3/lib/gcc/arm-elf/4.3.3/interwork/libgcc.a(_modsi3.o)
 .debug_line    0x00003397       0x72 /usr/local/arm-elf-tools/gcc-4.3.3/lib/gcc/arm-elf/4.3.3/interwork/libgcc.a(_dvmd_tls.o)
 .debug_line    0x00003409       0x78 /usr/local/arm-elf-tools/gcc-4.3.3/lib/gcc/arm-elf/4.3.3/interwork/libgcc.a(_fixunsdfsi.o)
 .debug_line    0x00003481      0x102 /usr/local/arm-elf-tools/gcc-4.3.3/lib/gcc/arm-elf/4.3.3/interwork/libgcc.a(_mul_sf.o)
 .debug_line    0x00003583       0xe0 /usr/local/arm-elf-tools/gcc-4.3.3/lib/gcc/arm-elf/4.3.3/interwork/libgcc.a(_div_sf.o)
 .debug_line    0x00003663       0x96 /usr/local/arm-elf-tools/gcc-4.3.3/lib/gcc/arm-elf/4.3.3/interwork/libgcc.a(_eq_sf.o)
 .debug_line    0x000036f9       0xb3 /usr/local/arm-elf-tools/gcc-4.3.3/lib/gcc/arm-elf/4.3.3/interwork/libgcc.a(_si_to_sf.o)
 .debug_line    0x000037ac       0x88 /usr/local/arm-elf-tools/gcc-4.3.3/lib/gcc/arm-elf/4.3.3/interwork/libgcc.a(_sf_to_df.o)
 .debug_line    0x00003834       0x74 /usr/local/arm-elf-tools/gcc-4.3.3/lib/gcc/arm-elf/4.3.3/interwork/libgcc.a(_thenan_sf.o)
 .debug_line    0x000038a8       0xab /usr/local/arm-elf-tools/gcc-4.3.3/lib/gcc/arm-elf/4.3.3/interwork/libgcc.a(_usi_to_sf.o)
 .debug_line    0x00003953      0x12a /usr/local/arm-elf-tools/gcc-4.3.3/lib/gcc/arm-elf/4.3.3/interwork/libgcc.a(_addsub_df.o)
 .debug_line    0x00003a7d      0x11a /usr/local/arm-elf-tools/gcc-4.3.3/lib/gcc/arm-elf/4.3.3/interwork/libgcc.a(_mul_df.o)
 .debug_line    0x00003b97       0xeb /usr/local/arm-elf-tools/gcc-4.3.3/lib/gcc/arm-elf/4.3.3/interwork/libgcc.a(_div_df.o)
 .debug_line    0x00003c82       0x97 /usr/local/arm-elf-tools/gcc-4.3.3/lib/gcc/arm-elf/4.3.3/interwork/libgcc.a(_eq_df.o)
 .debug_line    0x00003d19       0x97 /usr/local/arm-elf-tools/gcc-4.3.3/lib/gcc/arm-elf/4.3.3/interwork/libgcc.a(_ne_df.o)
 .debug_line    0x00003db0       0x97 /usr/local/arm-elf-tools/gcc-4.3.3/lib/gcc/arm-elf/4.3.3/interwork/libgcc.a(_gt_df.o)
 .debug_line    0x00003e47       0x97 /usr/local/arm-elf-tools/gcc-4.3.3/lib/gcc/arm-elf/4.3.3/interwork/libgcc.a(_ge_df.o)
 .debug_line    0x00003ede       0x97 /usr/local/arm-elf-tools/gcc-4.3.3/lib/gcc/arm-elf/4.3.3/interwork/libgcc.a(_lt_df.o)
 .debug_line    0x00003f75       0x97 /usr/local/arm-elf-tools/gcc-4.3.3/lib/gcc/arm-elf/4.3.3/interwork/libgcc.a(_le_df.o)
 .debug_line    0x0000400c       0xba /usr/local/arm-elf-tools/gcc-4.3.3/lib/gcc/arm-elf/4.3.3/interwork/libgcc.a(_si_to_df.o)
 .debug_line    0x000040c6       0xa6 /usr/local/arm-elf-tools/gcc-4.3.3/lib/gcc/arm-elf/4.3.3/interwork/libgcc.a(_df_to_si.o)
 .debug_line    0x0000416c       0x8c /usr/local/arm-elf-tools/gcc-4.3.3/lib/gcc/arm-elf/4.3.3/interwork/libgcc.a(_make_df.o)
 .debug_line    0x000041f8       0x8c /usr/local/arm-elf-tools/gcc-4.3.3/lib/gcc/arm-elf/4.3.3/interwork/libgcc.a(_df_to_sf.o)
 .debug_line    0x00004284       0x74 /usr/local/arm-elf-tools/gcc-4.3.3/lib/gcc/arm-elf/4.3.3/interwork/libgcc.a(_thenan_df.o)
 .debug_line    0x000042f8       0xb7 /usr/local/arm-elf-tools/gcc-4.3.3/lib/gcc/arm-elf/4.3.3/interwork/libgcc.a(_usi_to_df.o)
 .debug_line    0x000043af       0x76 /usr/local/arm-elf-tools/gcc-4.3.3/lib/gcc/arm-elf/4.3.3/interwork/libgcc.a(_ucmpdi2.o)
 .debug_line    0x00004425       0x85 /usr/local/arm-elf-tools/gcc-4.3.3/lib/gcc/arm-elf/4.3.3/interwork/libgcc.a(_clzsi2.o)
 .debug_line    0x000044aa       0xe6 /usr/local/arm-elf-tools/gcc-4.3.3/lib/gcc/arm-elf/4.3.3/interwork/libgcc.a(_pack_sf.o)
 .debug_line    0x00004590       0xd1 /usr/local/arm-elf-tools/gcc-4.3.3/lib/gcc/arm-elf/4.3.3/interwork/libgcc.a(_unpack_sf.o)
 .debug_line    0x00004661       0xc7 /usr/local/arm-elf-tools/gcc-4.3.3/lib/gcc/arm-elf/4.3.3/interwork/libgcc.a(_fpcmp_parts_sf.o)
 .debug_line    0x00004728       0x89 /usr/local/arm-elf-tools/gcc-4.3.3/lib/gcc/arm-elf/4.3.3/interwork/libgcc.a(_make_sf.o)
 .debug_line    0x000047b1       0xec /usr/local/arm-elf-tools/gcc-4.3.3/lib/gcc/arm-elf/4.3.3/interwork/libgcc.a(_pack_df.o)
 .debug_line    0x0000489d       0xcf /usr/local/arm-elf-tools/gcc-4.3.3/lib/gcc/arm-elf/4.3.3/interwork/libgcc.a(_unpack_df.o)
 .debug_line    0x0000496c       0xca /usr/local/arm-elf-tools/gcc-4.3.3/lib/gcc/arm-elf/4.3.3/interwork/libgcc.a(_fpcmp_parts_df.o)
 .debug_line    0x00004a36       0x60 /usr/local/arm-elf-tools/gcc-4.3.3/lib/gcc/arm-elf/4.3.3/interwork/libgcc.a(_clz.o)
 .debug_line    0x00004a96       0x6b /usr/local/arm-elf-tools/gcc-4.3.3/lib/gcc/arm-elf/4.3.3/../../../../arm-elf/lib/interwork/libc.a(lib_a-abort.o)
 .debug_line    0x00004b01      0x113 /usr/local/arm-elf-tools/gcc-4.3.3/lib/gcc/arm-elf/4.3.3/../../../../arm-elf/lib/interwork/libc.a(lib_a-calloc.o)
 .debug_line    0x00004c14      0x11c /usr/local/arm-elf-tools/gcc-4.3.3/lib/gcc/arm-elf/4.3.3/../../../../arm-elf/lib/interwork/libc.a(lib_a-callocr.o)
 .debug_line    0x00004d30      0x127 /usr/local/arm-elf-tools/gcc-4.3.3/lib/gcc/arm-elf/4.3.3/../../../../arm-elf/lib/interwork/libc.a(lib_a-clock.o)
 .debug_line    0x00004e57       0x5a /usr/local/arm-elf-tools/gcc-4.3.3/lib/gcc/arm-elf/4.3.3/../../../../arm-elf/lib/interwork/libc.a(lib_a-ctype_.o)
 .debug_line    0x00004eb1       0xae /usr/local/arm-elf-tools/gcc-4.3.3/lib/gcc/arm-elf/4.3.3/../../../../arm-elf/lib/interwork/libc.a(lib_a-difftime.o)
 .debug_line    0x00004f5f      0x10f /usr/local/arm-elf-tools/gcc-4.3.3/lib/gcc/arm-elf/4.3.3/../../../../arm-elf/lib/interwork/libc.a(lib_a-errno.o)
 .debug_line    0x0000506e      0x113 /usr/local/arm-elf-tools/gcc-4.3.3/lib/gcc/arm-elf/4.3.3/../../../../arm-elf/lib/interwork/libc.a(lib_a-exit.o)
 .debug_line    0x00005181      0x173 /usr/local/arm-elf-tools/gcc-4.3.3/lib/gcc/arm-elf/4.3.3/../../../../arm-elf/lib/interwork/libc.a(lib_a-fclose.o)
 .debug_line    0x000052f4      0x177 /usr/local/arm-elf-tools/gcc-4.3.3/lib/gcc/arm-elf/4.3.3/../../../../arm-elf/lib/interwork/libc.a(lib_a-fdopen.o)
 .debug_line    0x0000546b      0x1c2 /usr/local/arm-elf-tools/gcc-4.3.3/lib/gcc/arm-elf/4.3.3/../../../../arm-elf/lib/interwork/libc.a(lib_a-fflush.o)
 .debug_line    0x0000562d      0x191 /usr/local/arm-elf-tools/gcc-4.3.3/lib/gcc/arm-elf/4.3.3/../../../../arm-elf/lib/interwork/libc.a(lib_a-fgets.o)
 .debug_line    0x000057be      0x151 /usr/local/arm-elf-tools/gcc-4.3.3/lib/gcc/arm-elf/4.3.3/../../../../arm-elf/lib/interwork/libc.a(lib_a-fileno.o)
 .debug_line    0x0000590f      0x20d /usr/local/arm-elf-tools/gcc-4.3.3/lib/gcc/arm-elf/4.3.3/../../../../arm-elf/lib/interwork/libc.a(lib_a-findfp.o)
 .debug_line    0x00005b1c      0x133 /usr/local/arm-elf-tools/gcc-4.3.3/lib/gcc/arm-elf/4.3.3/../../../../arm-elf/lib/interwork/libc.a(lib_a-flags.o)
 .debug_line    0x00005c4f      0x176 /usr/local/arm-elf-tools/gcc-4.3.3/lib/gcc/arm-elf/4.3.3/../../../../arm-elf/lib/interwork/libc.a(lib_a-fopen.o)
 .debug_line    0x00005dc5      0x162 /usr/local/arm-elf-tools/gcc-4.3.3/lib/gcc/arm-elf/4.3.3/../../../../arm-elf/lib/interwork/libc.a(lib_a-fprintf.o)
 .debug_line    0x00005f27      0x159 /usr/local/arm-elf-tools/gcc-4.3.3/lib/gcc/arm-elf/4.3.3/../../../../arm-elf/lib/interwork/libc.a(lib_a-fputc.o)
 .debug_line    0x00006080      0x176 /usr/local/arm-elf-tools/gcc-4.3.3/lib/gcc/arm-elf/4.3.3/../../../../arm-elf/lib/interwork/libc.a(lib_a-fputs.o)
 .debug_line    0x000061f6      0x1b1 /usr/local/arm-elf-tools/gcc-4.3.3/lib/gcc/arm-elf/4.3.3/../../../../arm-elf/lib/interwork/libc.a(lib_a-fread.o)
 .debug_line    0x000063a7      0x1a2 /usr/local/arm-elf-tools/gcc-4.3.3/lib/gcc/arm-elf/4.3.3/../../../../arm-elf/lib/interwork/libc.a(lib_a-freer.o)
 .debug_line    0x00006549      0x1be /usr/local/arm-elf-tools/gcc-4.3.3/lib/gcc/arm-elf/4.3.3/../../../../arm-elf/lib/interwork/libc.a(lib_a-freopen.o)
 .debug_line    0x00006707      0x16a /usr/local/arm-elf-tools/gcc-4.3.3/lib/gcc/arm-elf/4.3.3/../../../../arm-elf/lib/interwork/libc.a(lib_a-fscanf.o)
 .debug_line    0x00006871      0x23b /usr/local/arm-elf-tools/gcc-4.3.3/lib/gcc/arm-elf/4.3.3/../../../../arm-elf/lib/interwork/libc.a(lib_a-fseek.o)
 .debug_line    0x00006aac      0x17c /usr/local/arm-elf-tools/gcc-4.3.3/lib/gcc/arm-elf/4.3.3/../../../../arm-elf/lib/interwork/libc.a(lib_a-ftell.o)
 .debug_line    0x00006c28      0x214 /usr/local/arm-elf-tools/gcc-4.3.3/lib/gcc/arm-elf/4.3.3/../../../../arm-elf/lib/interwork/libc.a(lib_a-fvwrite.o)
 .debug_line    0x00006e3c      0x175 /usr/local/arm-elf-tools/gcc-4.3.3/lib/gcc/arm-elf/4.3.3/../../../../arm-elf/lib/interwork/libc.a(lib_a-fwalk.o)
 .debug_line    0x00006fb1      0x17e /usr/local/arm-elf-tools/gcc-4.3.3/lib/gcc/arm-elf/4.3.3/../../../../arm-elf/lib/interwork/libc.a(lib_a-fwrite.o)
 .debug_line    0x0000712f      0x11c /usr/local/arm-elf-tools/gcc-4.3.3/lib/gcc/arm-elf/4.3.3/../../../../arm-elf/lib/interwork/libc.a(lib_a-getenv.o)
 .debug_line    0x0000724b      0x135 /usr/local/arm-elf-tools/gcc-4.3.3/lib/gcc/arm-elf/4.3.3/../../../../arm-elf/lib/interwork/libc.a(lib_a-getenv_r.o)
 .debug_line    0x00007380      0x159 /usr/local/arm-elf-tools/gcc-4.3.3/lib/gcc/arm-elf/4.3.3/../../../../arm-elf/lib/interwork/libc.a(lib_a-gmtime.o)
 .debug_line    0x000074d9       0xeb /usr/local/arm-elf-tools/gcc-4.3.3/lib/gcc/arm-elf/4.3.3/../../../../arm-elf/lib/interwork/libc.a(lib_a-gmtime_r.o)
 .debug_line    0x000075c4       0xff /usr/local/arm-elf-tools/gcc-4.3.3/lib/gcc/arm-elf/4.3.3/../../../../arm-elf/lib/interwork/libc.a(lib_a-impure.o)
 .debug_line    0x000076c3      0x15a /usr/local/arm-elf-tools/gcc-4.3.3/lib/gcc/arm-elf/4.3.3/../../../../arm-elf/lib/interwork/libc.a(lib_a-lcltime.o)
 .debug_line    0x0000781d       0xec /usr/local/arm-elf-tools/gcc-4.3.3/lib/gcc/arm-elf/4.3.3/../../../../arm-elf/lib/interwork/libc.a(lib_a-lcltime_r.o)
 .debug_line    0x00007909      0x175 /usr/local/arm-elf-tools/gcc-4.3.3/lib/gcc/arm-elf/4.3.3/../../../../arm-elf/lib/interwork/libc.a(lib_a-locale.o)
 .debug_line    0x00007a7e      0x1a9 /usr/local/arm-elf-tools/gcc-4.3.3/lib/gcc/arm-elf/4.3.3/../../../../arm-elf/lib/interwork/libc.a(lib_a-makebuf.o)
 .debug_line    0x00007c27      0x11b /usr/local/arm-elf-tools/gcc-4.3.3/lib/gcc/arm-elf/4.3.3/../../../../arm-elf/lib/interwork/libc.a(lib_a-malloc.o)
 .debug_line    0x00007d42      0x239 /usr/local/arm-elf-tools/gcc-4.3.3/lib/gcc/arm-elf/4.3.3/../../../../arm-elf/lib/interwork/libc.a(lib_a-mallocr.o)
 .debug_line    0x00007f7b       0xec /usr/local/arm-elf-tools/gcc-4.3.3/lib/gcc/arm-elf/4.3.3/../../../../arm-elf/lib/interwork/libc.a(lib_a-memchr.o)
 .debug_line    0x00008067       0xde /usr/local/arm-elf-tools/gcc-4.3.3/lib/gcc/arm-elf/4.3.3/../../../../arm-elf/lib/interwork/libc.a(lib_a-memcmp.o)
 .debug_line    0x00008145       0xf5 /usr/local/arm-elf-tools/gcc-4.3.3/lib/gcc/arm-elf/4.3.3/../../../../arm-elf/lib/interwork/libc.a(lib_a-memcpy.o)
 .debug_line    0x0000823a      0x104 /usr/local/arm-elf-tools/gcc-4.3.3/lib/gcc/arm-elf/4.3.3/../../../../arm-elf/lib/interwork/libc.a(lib_a-memmove.o)
 .debug_line    0x0000833e       0xf6 /usr/local/arm-elf-tools/gcc-4.3.3/lib/gcc/arm-elf/4.3.3/../../../../arm-elf/lib/interwork/libc.a(lib_a-memset.o)
 .debug_line    0x00008434      0x21b /usr/local/arm-elf-tools/gcc-4.3.3/lib/gcc/arm-elf/4.3.3/../../../../arm-elf/lib/interwork/libc.a(lib_a-mktime.o)
 .debug_line    0x0000864f      0x260 /usr/local/arm-elf-tools/gcc-4.3.3/lib/gcc/arm-elf/4.3.3/../../../../arm-elf/lib/interwork/libc.a(lib_a-mktm_r.o)
 .debug_line    0x000088af      0x111 /usr/local/arm-elf-tools/gcc-4.3.3/lib/gcc/arm-elf/4.3.3/../../../../arm-elf/lib/interwork/libc.a(lib_a-mlock.o)
 .debug_line    0x000089c0      0x122 /usr/local/arm-elf-tools/gcc-4.3.3/lib/gcc/arm-elf/4.3.3/../../../../arm-elf/lib/interwork/libc.a(lib_a-printf.o)
 .debug_line    0x00008ae2      0x164 /usr/local/arm-elf-tools/gcc-4.3.3/lib/gcc/arm-elf/4.3.3/../../../../arm-elf/lib/interwork/libc.a(lib_a-putc.o)
 .debug_line    0x00008c46      0x114 /usr/local/arm-elf-tools/gcc-4.3.3/lib/gcc/arm-elf/4.3.3/../../../../arm-elf/lib/interwork/libc.a(lib_a-rand.o)
 .debug_line    0x00008d5a      0x114 /usr/local/arm-elf-tools/gcc-4.3.3/lib/gcc/arm-elf/4.3.3/../../../../arm-elf/lib/interwork/libc.a(lib_a-realloc.o)
 .debug_line    0x00008e6e      0x1b9 /usr/local/arm-elf-tools/gcc-4.3.3/lib/gcc/arm-elf/4.3.3/../../../../arm-elf/lib/interwork/libc.a(lib_a-reallocr.o)
 .debug_line    0x00009027      0x198 /usr/local/arm-elf-tools/gcc-4.3.3/lib/gcc/arm-elf/4.3.3/../../../../arm-elf/lib/interwork/libc.a(lib_a-refill.o)
 .debug_line    0x000091bf      0x11e /usr/local/arm-elf-tools/gcc-4.3.3/lib/gcc/arm-elf/4.3.3/../../../../arm-elf/lib/interwork/libc.a(lib_a-remove.o)
 .debug_line    0x000092dd      0x160 /usr/local/arm-elf-tools/gcc-4.3.3/lib/gcc/arm-elf/4.3.3/../../../../arm-elf/lib/interwork/libc.a(lib_a-rget.o)
 .debug_line    0x0000943d       0x7c /usr/local/arm-elf-tools/gcc-4.3.3/lib/gcc/arm-elf/4.3.3/../../../../arm-elf/lib/interwork/libc.a(lib_a-setjmp.o)
 .debug_line    0x000094b9      0x195 /usr/local/arm-elf-tools/gcc-4.3.3/lib/gcc/arm-elf/4.3.3/../../../../arm-elf/lib/interwork/libc.a(lib_a-setvbuf.o)
 .debug_line    0x0000964e      0x18d /usr/local/arm-elf-tools/gcc-4.3.3/lib/gcc/arm-elf/4.3.3/../../../../arm-elf/lib/interwork/libc.a(lib_a-signal.o)
 .debug_line    0x000097db      0x1a6 /usr/local/arm-elf-tools/gcc-4.3.3/lib/gcc/arm-elf/4.3.3/../../../../arm-elf/lib/interwork/libc.a(lib_a-snprintf.o)
 .debug_line    0x00009981      0x18d /usr/local/arm-elf-tools/gcc-4.3.3/lib/gcc/arm-elf/4.3.3/../../../../arm-elf/lib/interwork/libc.a(lib_a-sprintf.o)
 .debug_line    0x00009b0e      0x17a /usr/local/arm-elf-tools/gcc-4.3.3/lib/gcc/arm-elf/4.3.3/../../../../arm-elf/lib/interwork/libc.a(lib_a-stdio.o)
 .debug_line    0x00009c88       0x7f /usr/local/arm-elf-tools/gcc-4.3.3/lib/gcc/arm-elf/4.3.3/../../../../arm-elf/lib/interwork/libc.a(lib_a-strcat.o)
 .debug_line    0x00009d07       0x94 /usr/local/arm-elf-tools/gcc-4.3.3/lib/gcc/arm-elf/4.3.3/../../../../arm-elf/lib/interwork/libc.a(lib_a-strchr.o)
 .debug_line    0x00009d9b       0x88 /usr/local/arm-elf-tools/gcc-4.3.3/lib/gcc/arm-elf/4.3.3/../../../../arm-elf/lib/interwork/libc.a(lib_a-strcmp.o)
 .debug_line    0x00009e23       0x6d /usr/local/arm-elf-tools/gcc-4.3.3/lib/gcc/arm-elf/4.3.3/../../../../arm-elf/lib/interwork/libc.a(lib_a-strcoll.o)
 .debug_line    0x00009e90       0x85 /usr/local/arm-elf-tools/gcc-4.3.3/lib/gcc/arm-elf/4.3.3/../../../../arm-elf/lib/interwork/libc.a(lib_a-strcpy.o)
 .debug_line    0x00009f15       0xc6 /usr/local/arm-elf-tools/gcc-4.3.3/lib/gcc/arm-elf/4.3.3/../../../../arm-elf/lib/interwork/libc.a(lib_a-strcspn.o)
 .debug_line    0x00009fdb      0x111 /usr/local/arm-elf-tools/gcc-4.3.3/lib/gcc/arm-elf/4.3.3/../../../../arm-elf/lib/interwork/libc.a(lib_a-strerror.o)
 .debug_line    0x0000a0ec      0x3a2 /usr/local/arm-elf-tools/gcc-4.3.3/lib/gcc/arm-elf/4.3.3/../../../../arm-elf/lib/interwork/libc.a(lib_a-strftime.o)
 .debug_line    0x0000a48e       0xcb /usr/local/arm-elf-tools/gcc-4.3.3/lib/gcc/arm-elf/4.3.3/../../../../arm-elf/lib/interwork/libc.a(lib_a-strlen.o)
 .debug_line    0x0000a559       0xd3 /usr/local/arm-elf-tools/gcc-4.3.3/lib/gcc/arm-elf/4.3.3/../../../../arm-elf/lib/interwork/libc.a(lib_a-strncat.o)
 .debug_line    0x0000a62c       0xf5 /usr/local/arm-elf-tools/gcc-4.3.3/lib/gcc/arm-elf/4.3.3/../../../../arm-elf/lib/interwork/libc.a(lib_a-strncmp.o)
 .debug_line    0x0000a721       0xee /usr/local/arm-elf-tools/gcc-4.3.3/lib/gcc/arm-elf/4.3.3/../../../../arm-elf/lib/interwork/libc.a(lib_a-strncpy.o)
 .debug_line    0x0000a80f       0xbf /usr/local/arm-elf-tools/gcc-4.3.3/lib/gcc/arm-elf/4.3.3/../../../../arm-elf/lib/interwork/libc.a(lib_a-strnlen.o)
 .debug_line    0x0000a8ce       0x7a /usr/local/arm-elf-tools/gcc-4.3.3/lib/gcc/arm-elf/4.3.3/../../../../arm-elf/lib/interwork/libc.a(lib_a-strpbrk.o)
 .debug_line    0x0000a948       0x74 /usr/local/arm-elf-tools/gcc-4.3.3/lib/gcc/arm-elf/4.3.3/../../../../arm-elf/lib/interwork/libc.a(lib_a-strrchr.o)
 .debug_line    0x0000a9bc      0x24e /usr/local/arm-elf-tools/gcc-4.3.3/lib/gcc/arm-elf/4.3.3/../../../../arm-elf/lib/interwork/libc.a(lib_a-strstr.o)
 .debug_line    0x0000ac0a      0x4ee /usr/local/arm-elf-tools/gcc-4.3.3/lib/gcc/arm-elf/4.3.3/../../../../arm-elf/lib/interwork/libc.a(lib_a-strtod.o)
 .debug_line    0x0000b0f8      0x197 /usr/local/arm-elf-tools/gcc-4.3.3/lib/gcc/arm-elf/4.3.3/../../../../arm-elf/lib/interwork/libc.a(lib_a-strtoul.o)
 .debug_line    0x0000b28f      0x572 /usr/local/arm-elf-tools/gcc-4.3.3/lib/gcc/arm-elf/4.3.3/../../../../arm-elf/lib/interwork/libc.a(lib_a-svfprintf.o)
 .debug_line    0x0000b801      0x115 /usr/local/arm-elf-tools/gcc-4.3.3/lib/gcc/arm-elf/4.3.3/../../../../arm-elf/lib/interwork/libc.a(lib_a-sysclose.o)
 .debug_line    0x0000b916      0x16b /usr/local/arm-elf-tools/gcc-4.3.3/lib/gcc/arm-elf/4.3.3/../../../../arm-elf/lib/interwork/libc.a(lib_a-sysgettod.o)
 .debug_line    0x0000ba81      0x123 /usr/local/arm-elf-tools/gcc-4.3.3/lib/gcc/arm-elf/4.3.3/../../../../arm-elf/lib/interwork/libc.a(lib_a-sysopen.o)
 .debug_line    0x0000bba4      0x117 /usr/local/arm-elf-tools/gcc-4.3.3/lib/gcc/arm-elf/4.3.3/../../../../arm-elf/lib/interwork/libc.a(lib_a-sysread.o)
 .debug_line    0x0000bcbb      0x123 /usr/local/arm-elf-tools/gcc-4.3.3/lib/gcc/arm-elf/4.3.3/../../../../arm-elf/lib/interwork/libc.a(lib_a-system.o)
 .debug_line    0x0000bdde      0x116 /usr/local/arm-elf-tools/gcc-4.3.3/lib/gcc/arm-elf/4.3.3/../../../../arm-elf/lib/interwork/libc.a(lib_a-sysunlink.o)
 .debug_line    0x0000bef4      0x118 /usr/local/arm-elf-tools/gcc-4.3.3/lib/gcc/arm-elf/4.3.3/../../../../arm-elf/lib/interwork/libc.a(lib_a-syswrite.o)
 .debug_line    0x0000c00c      0x165 /usr/local/arm-elf-tools/gcc-4.3.3/lib/gcc/arm-elf/4.3.3/../../../../arm-elf/lib/interwork/libc.a(lib_a-time.o)
 .debug_line    0x0000c171      0x164 /usr/local/arm-elf-tools/gcc-4.3.3/lib/gcc/arm-elf/4.3.3/../../../../arm-elf/lib/interwork/libc.a(lib_a-timesr.o)
 .debug_line    0x0000c2d5      0x169 /usr/local/arm-elf-tools/gcc-4.3.3/lib/gcc/arm-elf/4.3.3/../../../../arm-elf/lib/interwork/libc.a(lib_a-tmpfile.o)
 .debug_line    0x0000c43e      0x15c /usr/local/arm-elf-tools/gcc-4.3.3/lib/gcc/arm-elf/4.3.3/../../../../arm-elf/lib/interwork/libc.a(lib_a-tmpnam.o)
 .debug_line    0x0000c59a       0x6b /usr/local/arm-elf-tools/gcc-4.3.3/lib/gcc/arm-elf/4.3.3/../../../../arm-elf/lib/interwork/libc.a(lib_a-tzlock.o)
 .debug_line    0x0000c605       0x59 /usr/local/arm-elf-tools/gcc-4.3.3/lib/gcc/arm-elf/4.3.3/../../../../arm-elf/lib/interwork/libc.a(lib_a-tzvars.o)
 .debug_line    0x0000c65e      0x1b7 /usr/local/arm-elf-tools/gcc-4.3.3/lib/gcc/arm-elf/4.3.3/../../../../arm-elf/lib/interwork/libc.a(lib_a-ungetc.o)
 .debug_line    0x0000c815       0x6b /usr/local/arm-elf-tools/gcc-4.3.3/lib/gcc/arm-elf/4.3.3/../../../../arm-elf/lib/interwork/libc.a(lib_a-u_strerr.o)
 .debug_line    0x0000c880      0x561 /usr/local/arm-elf-tools/gcc-4.3.3/lib/gcc/arm-elf/4.3.3/../../../../arm-elf/lib/interwork/libc.a(lib_a-vfprintf.o)
 .debug_line    0x0000cde1      0x508 /usr/local/arm-elf-tools/gcc-4.3.3/lib/gcc/arm-elf/4.3.3/../../../../arm-elf/lib/interwork/libc.a(lib_a-vfscanf.o)
 .debug_line    0x0000d2e9      0x17e /usr/local/arm-elf-tools/gcc-4.3.3/lib/gcc/arm-elf/4.3.3/../../../../arm-elf/lib/interwork/libc.a(lib_a-vsnprintf.o)
 .debug_line    0x0000d467      0x187 /usr/local/arm-elf-tools/gcc-4.3.3/lib/gcc/arm-elf/4.3.3/../../../../arm-elf/lib/interwork/libc.a(lib_a-wbuf.o)
 .debug_line    0x0000d5ee      0x179 /usr/local/arm-elf-tools/gcc-4.3.3/lib/gcc/arm-elf/4.3.3/../../../../arm-elf/lib/interwork/libc.a(lib_a-wsetup.o)
 .debug_line    0x0000d767       0x68 /usr/local/arm-elf-tools/gcc-4.3.3/lib/gcc/arm-elf/4.3.3/../../../../arm-elf/lib/interwork/libc.a(lib_a-abs.o)
 .debug_line    0x0000d7cf      0x14d /usr/local/arm-elf-tools/gcc-4.3.3/lib/gcc/arm-elf/4.3.3/../../../../arm-elf/lib/interwork/libc.a(lib_a-__call_atexit.o)
 .debug_line    0x0000d91c       0xb8 /usr/local/arm-elf-tools/gcc-4.3.3/lib/gcc/arm-elf/4.3.3/../../../../arm-elf/lib/interwork/libc.a(lib_a-div.o)
 .debug_line    0x0000d9d4      0x4a8 /usr/local/arm-elf-tools/gcc-4.3.3/lib/gcc/arm-elf/4.3.3/../../../../arm-elf/lib/interwork/libc.a(lib_a-dtoa.o)
 .debug_line    0x0000de7c       0x5c /usr/local/arm-elf-tools/gcc-4.3.3/lib/gcc/arm-elf/4.3.3/../../../../arm-elf/lib/interwork/libc.a(lib_a-environ.o)
 .debug_line    0x0000ded8      0x113 /usr/local/arm-elf-tools/gcc-4.3.3/lib/gcc/arm-elf/4.3.3/../../../../arm-elf/lib/interwork/libc.a(lib_a-envlock.o)
 .debug_line    0x0000dfeb      0x2cb /usr/local/arm-elf-tools/gcc-4.3.3/lib/gcc/arm-elf/4.3.3/../../../../arm-elf/lib/interwork/libc.a(lib_a-gdtoa-gethex.o)
 .debug_line    0x0000e2b6      0x12c /usr/local/arm-elf-tools/gcc-4.3.3/lib/gcc/arm-elf/4.3.3/../../../../arm-elf/lib/interwork/libc.a(lib_a-gdtoa-hexnan.o)
 .debug_line    0x0000e3e2      0x170 /usr/local/arm-elf-tools/gcc-4.3.3/lib/gcc/arm-elf/4.3.3/../../../../arm-elf/lib/interwork/libc.a(lib_a-gettimeofdayr.o)
 .debug_line    0x0000e552       0xeb /usr/local/arm-elf-tools/gcc-4.3.3/lib/gcc/arm-elf/4.3.3/../../../../arm-elf/lib/interwork/libc.a(lib_a-gettzinfo.o)
 .debug_line    0x0000e63d      0x116 /usr/local/arm-elf-tools/gcc-4.3.3/lib/gcc/arm-elf/4.3.3/../../../../arm-elf/lib/interwork/libc.a(lib_a-isattyr.o)
 .debug_line    0x0000e753      0x106 /usr/local/arm-elf-tools/gcc-4.3.3/lib/gcc/arm-elf/4.3.3/../../../../arm-elf/lib/interwork/libc.a(lib_a-iswspace.o)
 .debug_line    0x0000e859       0x69 /usr/local/arm-elf-tools/gcc-4.3.3/lib/gcc/arm-elf/4.3.3/../../../../arm-elf/lib/interwork/libc.a(lib_a-labs.o)
 .debug_line    0x0000e8c2      0x169 /usr/local/arm-elf-tools/gcc-4.3.3/lib/gcc/arm-elf/4.3.3/../../../../arm-elf/lib/interwork/libc.a(lib_a-mbrtowc.o)
 .debug_line    0x0000ea2b      0x15a /usr/local/arm-elf-tools/gcc-4.3.3/lib/gcc/arm-elf/4.3.3/../../../../arm-elf/lib/interwork/libc.a(lib_a-mbtowc_r.o)
 .debug_line    0x0000eb85      0x48b /usr/local/arm-elf-tools/gcc-4.3.3/lib/gcc/arm-elf/4.3.3/../../../../arm-elf/lib/interwork/libc.a(lib_a-mprec.o)
 .debug_line    0x0000f010      0x14b /usr/local/arm-elf-tools/gcc-4.3.3/lib/gcc/arm-elf/4.3.3/../../../../arm-elf/lib/interwork/libc.a(lib_a-reent.o)
 .debug_line    0x0000f15b       0xcd /usr/local/arm-elf-tools/gcc-4.3.3/lib/gcc/arm-elf/4.3.3/../../../../arm-elf/lib/interwork/libc.a(lib_a-sccl.o)
 .debug_line    0x0000f228       0x69 /usr/local/arm-elf-tools/gcc-4.3.3/lib/gcc/arm-elf/4.3.3/../../../../arm-elf/lib/interwork/libc.a(lib_a-sf_nan.o)
 .debug_line    0x0000f291       0xcd /usr/local/arm-elf-tools/gcc-4.3.3/lib/gcc/arm-elf/4.3.3/../../../../arm-elf/lib/interwork/libc.a(lib_a-s_isinfd.o)
 .debug_line    0x0000f35e      0x1a3 /usr/local/arm-elf-tools/gcc-4.3.3/lib/gcc/arm-elf/4.3.3/../../../../arm-elf/lib/interwork/libc.a(lib_a-strtol.o)

.debug_frame    0x00000000     0x30e4
 .debug_frame   0x00000000       0x38 /usr/local/arm-elf-tools/gcc-4.3.3/lib/gcc/arm-elf/4.3.3/../../../../arm-elf/lib/interwork/libm.a(lib_a-s_atan.o)
 .debug_frame   0x00000038       0x38 /usr/local/arm-elf-tools/gcc-4.3.3/lib/gcc/arm-elf/4.3.3/../../../../arm-elf/lib/interwork/libm.a(lib_a-s_ceil.o)
 .debug_frame   0x00000070       0x30 /usr/local/arm-elf-tools/gcc-4.3.3/lib/gcc/arm-elf/4.3.3/../../../../arm-elf/lib/interwork/libm.a(lib_a-s_cos.o)
 .debug_frame   0x000000a0       0x2c /usr/local/arm-elf-tools/gcc-4.3.3/lib/gcc/arm-elf/4.3.3/../../../../arm-elf/lib/interwork/libm.a(lib_a-s_fabs.o)
 .debug_frame   0x000000cc       0x38 /usr/local/arm-elf-tools/gcc-4.3.3/lib/gcc/arm-elf/4.3.3/../../../../arm-elf/lib/interwork/libm.a(lib_a-s_floor.o)
 .debug_frame   0x00000104       0x34 /usr/local/arm-elf-tools/gcc-4.3.3/lib/gcc/arm-elf/4.3.3/../../../../arm-elf/lib/interwork/libm.a(lib_a-s_frexp.o)
 .debug_frame   0x00000138       0x2c /usr/local/arm-elf-tools/gcc-4.3.3/lib/gcc/arm-elf/4.3.3/../../../../arm-elf/lib/interwork/libm.a(lib_a-s_ldexp.o)
 .debug_frame   0x00000164       0x38 /usr/local/arm-elf-tools/gcc-4.3.3/lib/gcc/arm-elf/4.3.3/../../../../arm-elf/lib/interwork/libm.a(lib_a-s_modf.o)
 .debug_frame   0x0000019c       0x34 /usr/local/arm-elf-tools/gcc-4.3.3/lib/gcc/arm-elf/4.3.3/../../../../arm-elf/lib/interwork/libm.a(lib_a-s_scalbn.o)
 .debug_frame   0x000001d0       0x30 /usr/local/arm-elf-tools/gcc-4.3.3/lib/gcc/arm-elf/4.3.3/../../../../arm-elf/lib/interwork/libm.a(lib_a-s_sin.o)
 .debug_frame   0x00000200       0x30 /usr/local/arm-elf-tools/gcc-4.3.3/lib/gcc/arm-elf/4.3.3/../../../../arm-elf/lib/interwork/libm.a(lib_a-s_tanh.o)
 .debug_frame   0x00000230       0x30 /usr/local/arm-elf-tools/gcc-4.3.3/lib/gcc/arm-elf/4.3.3/../../../../arm-elf/lib/interwork/libm.a(lib_a-s_tan.o)
 .debug_frame   0x00000260       0x34 /usr/local/arm-elf-tools/gcc-4.3.3/lib/gcc/arm-elf/4.3.3/../../../../arm-elf/lib/interwork/libm.a(lib_a-w_acos.o)
 .debug_frame   0x00000294       0x34 /usr/local/arm-elf-tools/gcc-4.3.3/lib/gcc/arm-elf/4.3.3/../../../../arm-elf/lib/interwork/libm.a(lib_a-w_asin.o)
 .debug_frame   0x000002c8       0x28 /usr/local/arm-elf-tools/gcc-4.3.3/lib/gcc/arm-elf/4.3.3/../../../../arm-elf/lib/interwork/libm.a(lib_a-w_atan2.o)
 .debug_frame   0x000002f0       0x34 /usr/local/arm-elf-tools/gcc-4.3.3/lib/gcc/arm-elf/4.3.3/../../../../arm-elf/lib/interwork/libm.a(lib_a-w_cosh.o)
 .debug_frame   0x00000324       0x34 /usr/local/arm-elf-tools/gcc-4.3.3/lib/gcc/arm-elf/4.3.3/../../../../arm-elf/lib/interwork/libm.a(lib_a-w_exp.o)
 .debug_frame   0x00000358       0x38 /usr/local/arm-elf-tools/gcc-4.3.3/lib/gcc/arm-elf/4.3.3/../../../../arm-elf/lib/interwork/libm.a(lib_a-w_fmod.o)
 .debug_frame   0x00000390       0x34 /usr/local/arm-elf-tools/gcc-4.3.3/lib/gcc/arm-elf/4.3.3/../../../../arm-elf/lib/interwork/libm.a(lib_a-w_log10.o)
 .debug_frame   0x000003c4       0x34 /usr/local/arm-elf-tools/gcc-4.3.3/lib/gcc/arm-elf/4.3.3/../../../../arm-elf/lib/interwork/libm.a(lib_a-w_log.o)
 .debug_frame   0x000003f8       0x38 /usr/local/arm-elf-tools/gcc-4.3.3/lib/gcc/arm-elf/4.3.3/../../../../arm-elf/lib/interwork/libm.a(lib_a-w_pow.o)
 .debug_frame   0x00000430       0x34 /usr/local/arm-elf-tools/gcc-4.3.3/lib/gcc/arm-elf/4.3.3/../../../../arm-elf/lib/interwork/libm.a(lib_a-w_sinh.o)
 .debug_frame   0x00000464       0x34 /usr/local/arm-elf-tools/gcc-4.3.3/lib/gcc/arm-elf/4.3.3/../../../../arm-elf/lib/interwork/libm.a(lib_a-w_sqrt.o)
 .debug_frame   0x00000498       0x38 /usr/local/arm-elf-tools/gcc-4.3.3/lib/gcc/arm-elf/4.3.3/../../../../arm-elf/lib/interwork/libm.a(lib_a-e_acos.o)
 .debug_frame   0x000004d0       0x38 /usr/local/arm-elf-tools/gcc-4.3.3/lib/gcc/arm-elf/4.3.3/../../../../arm-elf/lib/interwork/libm.a(lib_a-e_asin.o)
 .debug_frame   0x00000508       0x38 /usr/local/arm-elf-tools/gcc-4.3.3/lib/gcc/arm-elf/4.3.3/../../../../arm-elf/lib/interwork/libm.a(lib_a-e_atan2.o)
 .debug_frame   0x00000540       0x34 /usr/local/arm-elf-tools/gcc-4.3.3/lib/gcc/arm-elf/4.3.3/../../../../arm-elf/lib/interwork/libm.a(lib_a-e_cosh.o)
 .debug_frame   0x00000574       0x38 /usr/local/arm-elf-tools/gcc-4.3.3/lib/gcc/arm-elf/4.3.3/../../../../arm-elf/lib/interwork/libm.a(lib_a-e_exp.o)
 .debug_frame   0x000005ac       0x38 /usr/local/arm-elf-tools/gcc-4.3.3/lib/gcc/arm-elf/4.3.3/../../../../arm-elf/lib/interwork/libm.a(lib_a-e_fmod.o)
 .debug_frame   0x000005e4       0x38 /usr/local/arm-elf-tools/gcc-4.3.3/lib/gcc/arm-elf/4.3.3/../../../../arm-elf/lib/interwork/libm.a(lib_a-e_log10.o)
 .debug_frame   0x0000061c       0x38 /usr/local/arm-elf-tools/gcc-4.3.3/lib/gcc/arm-elf/4.3.3/../../../../arm-elf/lib/interwork/libm.a(lib_a-e_log.o)
 .debug_frame   0x00000654       0x3c /usr/local/arm-elf-tools/gcc-4.3.3/lib/gcc/arm-elf/4.3.3/../../../../arm-elf/lib/interwork/libm.a(lib_a-e_pow.o)
 .debug_frame   0x00000690       0x38 /usr/local/arm-elf-tools/gcc-4.3.3/lib/gcc/arm-elf/4.3.3/../../../../arm-elf/lib/interwork/libm.a(lib_a-e_rem_pio2.o)
 .debug_frame   0x000006c8       0x38 /usr/local/arm-elf-tools/gcc-4.3.3/lib/gcc/arm-elf/4.3.3/../../../../arm-elf/lib/interwork/libm.a(lib_a-e_sinh.o)
 .debug_frame   0x00000700       0x34 /usr/local/arm-elf-tools/gcc-4.3.3/lib/gcc/arm-elf/4.3.3/../../../../arm-elf/lib/interwork/libm.a(lib_a-e_sqrt.o)
 .debug_frame   0x00000734       0x38 /usr/local/arm-elf-tools/gcc-4.3.3/lib/gcc/arm-elf/4.3.3/../../../../arm-elf/lib/interwork/libm.a(lib_a-k_cos.o)
 .debug_frame   0x0000076c       0x3c /usr/local/arm-elf-tools/gcc-4.3.3/lib/gcc/arm-elf/4.3.3/../../../../arm-elf/lib/interwork/libm.a(lib_a-k_rem_pio2.o)
 .debug_frame   0x000007a8       0x38 /usr/local/arm-elf-tools/gcc-4.3.3/lib/gcc/arm-elf/4.3.3/../../../../arm-elf/lib/interwork/libm.a(lib_a-k_sin.o)
 .debug_frame   0x000007e0       0x38 /usr/local/arm-elf-tools/gcc-4.3.3/lib/gcc/arm-elf/4.3.3/../../../../arm-elf/lib/interwork/libm.a(lib_a-k_tan.o)
 .debug_frame   0x00000818       0x2c /usr/local/arm-elf-tools/gcc-4.3.3/lib/gcc/arm-elf/4.3.3/../../../../arm-elf/lib/interwork/libm.a(lib_a-s_copysign.o)
 .debug_frame   0x00000844       0x38 /usr/local/arm-elf-tools/gcc-4.3.3/lib/gcc/arm-elf/4.3.3/../../../../arm-elf/lib/interwork/libm.a(lib_a-s_expm1.o)
 .debug_frame   0x0000087c       0x20 /usr/local/arm-elf-tools/gcc-4.3.3/lib/gcc/arm-elf/4.3.3/../../../../arm-elf/lib/interwork/libm.a(lib_a-s_finite.o)
 .debug_frame   0x0000089c       0x28 /usr/local/arm-elf-tools/gcc-4.3.3/lib/gcc/arm-elf/4.3.3/../../../../arm-elf/lib/interwork/libm.a(lib_a-s_isnand.o)
 .debug_frame   0x000008c4       0x20 /usr/local/arm-elf-tools/gcc-4.3.3/lib/gcc/arm-elf/4.3.3/../../../../arm-elf/lib/interwork/libm.a(lib_a-s_matherr.o)
 .debug_frame   0x000008e4       0x28 /usr/local/arm-elf-tools/gcc-4.3.3/lib/gcc/arm-elf/4.3.3/../../../../arm-elf/lib/interwork/libm.a(lib_a-s_nan.o)
 .debug_frame   0x0000090c       0x38 /usr/local/arm-elf-tools/gcc-4.3.3/lib/gcc/arm-elf/4.3.3/../../../../arm-elf/lib/interwork/libm.a(lib_a-s_rint.o)
 .debug_frame   0x00000944       0x2c /usr/local/arm-elf-tools/gcc-4.3.3/lib/gcc/arm-elf/4.3.3/interwork/libgcc.a(_udivsi3.o)
 .debug_frame   0x00000970       0x2c /usr/local/arm-elf-tools/gcc-4.3.3/lib/gcc/arm-elf/4.3.3/interwork/libgcc.a(_divsi3.o)
 .debug_frame   0x0000099c       0x2c /usr/local/arm-elf-tools/gcc-4.3.3/lib/gcc/arm-elf/4.3.3/interwork/libgcc.a(_umodsi3.o)
 .debug_frame   0x000009c8       0x2c /usr/local/arm-elf-tools/gcc-4.3.3/lib/gcc/arm-elf/4.3.3/interwork/libgcc.a(_modsi3.o)
 .debug_frame   0x000009f4       0x2c /usr/local/arm-elf-tools/gcc-4.3.3/lib/gcc/arm-elf/4.3.3/interwork/libgcc.a(_fixunsdfsi.o)
 .debug_frame   0x00000a20       0x6c /usr/local/arm-elf-tools/gcc-4.3.3/lib/gcc/arm-elf/4.3.3/interwork/libgcc.a(_mul_sf.o)
 .debug_frame   0x00000a8c       0x70 /usr/local/arm-elf-tools/gcc-4.3.3/lib/gcc/arm-elf/4.3.3/interwork/libgcc.a(_div_sf.o)
 .debug_frame   0x00000afc       0x3c /usr/local/arm-elf-tools/gcc-4.3.3/lib/gcc/arm-elf/4.3.3/interwork/libgcc.a(_eq_sf.o)
 .debug_frame   0x00000b38       0x40 /usr/local/arm-elf-tools/gcc-4.3.3/lib/gcc/arm-elf/4.3.3/interwork/libgcc.a(_si_to_sf.o)
 .debug_frame   0x00000b78       0x28 /usr/local/arm-elf-tools/gcc-4.3.3/lib/gcc/arm-elf/4.3.3/interwork/libgcc.a(_sf_to_df.o)
 .debug_frame   0x00000ba0       0x40 /usr/local/arm-elf-tools/gcc-4.3.3/lib/gcc/arm-elf/4.3.3/interwork/libgcc.a(_usi_to_sf.o)
 .debug_frame   0x00000be0       0xb0 /usr/local/arm-elf-tools/gcc-4.3.3/lib/gcc/arm-elf/4.3.3/interwork/libgcc.a(_addsub_df.o)
 .debug_frame   0x00000c90       0x78 /usr/local/arm-elf-tools/gcc-4.3.3/lib/gcc/arm-elf/4.3.3/interwork/libgcc.a(_mul_df.o)
 .debug_frame   0x00000d08       0x74 /usr/local/arm-elf-tools/gcc-4.3.3/lib/gcc/arm-elf/4.3.3/interwork/libgcc.a(_div_df.o)
 .debug_frame   0x00000d7c       0x3c /usr/local/arm-elf-tools/gcc-4.3.3/lib/gcc/arm-elf/4.3.3/interwork/libgcc.a(_eq_df.o)
 .debug_frame   0x00000db8       0x3c /usr/local/arm-elf-tools/gcc-4.3.3/lib/gcc/arm-elf/4.3.3/interwork/libgcc.a(_ne_df.o)
 .debug_frame   0x00000df4       0x3c /usr/local/arm-elf-tools/gcc-4.3.3/lib/gcc/arm-elf/4.3.3/interwork/libgcc.a(_gt_df.o)
 .debug_frame   0x00000e30       0x3c /usr/local/arm-elf-tools/gcc-4.3.3/lib/gcc/arm-elf/4.3.3/interwork/libgcc.a(_ge_df.o)
 .debug_frame   0x00000e6c       0x3c /usr/local/arm-elf-tools/gcc-4.3.3/lib/gcc/arm-elf/4.3.3/interwork/libgcc.a(_lt_df.o)
 .debug_frame   0x00000ea8       0x3c /usr/local/arm-elf-tools/gcc-4.3.3/lib/gcc/arm-elf/4.3.3/interwork/libgcc.a(_le_df.o)
 .debug_frame   0x00000ee4       0x40 /usr/local/arm-elf-tools/gcc-4.3.3/lib/gcc/arm-elf/4.3.3/interwork/libgcc.a(_si_to_df.o)
 .debug_frame   0x00000f24       0x5c /usr/local/arm-elf-tools/gcc-4.3.3/lib/gcc/arm-elf/4.3.3/interwork/libgcc.a(_df_to_si.o)
 .debug_frame   0x00000f80       0x30 /usr/local/arm-elf-tools/gcc-4.3.3/lib/gcc/arm-elf/4.3.3/interwork/libgcc.a(_make_df.o)
 .debug_frame   0x00000fb0       0x30 /usr/local/arm-elf-tools/gcc-4.3.3/lib/gcc/arm-elf/4.3.3/interwork/libgcc.a(_df_to_sf.o)
 .debug_frame   0x00000fe0       0x50 /usr/local/arm-elf-tools/gcc-4.3.3/lib/gcc/arm-elf/4.3.3/interwork/libgcc.a(_usi_to_df.o)
 .debug_frame   0x00001030       0x20 /usr/local/arm-elf-tools/gcc-4.3.3/lib/gcc/arm-elf/4.3.3/interwork/libgcc.a(_ucmpdi2.o)
 .debug_frame   0x00001050       0x20 /usr/local/arm-elf-tools/gcc-4.3.3/lib/gcc/arm-elf/4.3.3/interwork/libgcc.a(_clzsi2.o)
 .debug_frame   0x00001070       0x5c /usr/local/arm-elf-tools/gcc-4.3.3/lib/gcc/arm-elf/4.3.3/interwork/libgcc.a(_pack_sf.o)
 .debug_frame   0x000010cc       0x28 /usr/local/arm-elf-tools/gcc-4.3.3/lib/gcc/arm-elf/4.3.3/interwork/libgcc.a(_unpack_sf.o)
 .debug_frame   0x000010f4       0x5c /usr/local/arm-elf-tools/gcc-4.3.3/lib/gcc/arm-elf/4.3.3/interwork/libgcc.a(_fpcmp_parts_sf.o)
 .debug_frame   0x00001150       0x28 /usr/local/arm-elf-tools/gcc-4.3.3/lib/gcc/arm-elf/4.3.3/interwork/libgcc.a(_make_sf.o)
 .debug_frame   0x00001178       0x68 /usr/local/arm-elf-tools/gcc-4.3.3/lib/gcc/arm-elf/4.3.3/interwork/libgcc.a(_pack_df.o)
 .debug_frame   0x000011e0       0x2c /usr/local/arm-elf-tools/gcc-4.3.3/lib/gcc/arm-elf/4.3.3/interwork/libgcc.a(_unpack_df.o)
 .debug_frame   0x0000120c       0x5c /usr/local/arm-elf-tools/gcc-4.3.3/lib/gcc/arm-elf/4.3.3/interwork/libgcc.a(_fpcmp_parts_df.o)
 .debug_frame   0x00001268       0x20 /usr/local/arm-elf-tools/gcc-4.3.3/lib/gcc/arm-elf/4.3.3/../../../../arm-elf/lib/interwork/libc.a(lib_a-abort.o)
 .debug_frame   0x00001288       0x28 /usr/local/arm-elf-tools/gcc-4.3.3/lib/gcc/arm-elf/4.3.3/../../../../arm-elf/lib/interwork/libc.a(lib_a-calloc.o)
 .debug_frame   0x000012b0       0x28 /usr/local/arm-elf-tools/gcc-4.3.3/lib/gcc/arm-elf/4.3.3/../../../../arm-elf/lib/interwork/libc.a(lib_a-callocr.o)
 .debug_frame   0x000012d8       0x28 /usr/local/arm-elf-tools/gcc-4.3.3/lib/gcc/arm-elf/4.3.3/../../../../arm-elf/lib/interwork/libc.a(lib_a-clock.o)
 .debug_frame   0x00001300       0x28 /usr/local/arm-elf-tools/gcc-4.3.3/lib/gcc/arm-elf/4.3.3/../../../../arm-elf/lib/interwork/libc.a(lib_a-difftime.o)
 .debug_frame   0x00001328       0x20 /usr/local/arm-elf-tools/gcc-4.3.3/lib/gcc/arm-elf/4.3.3/../../../../arm-elf/lib/interwork/libc.a(lib_a-errno.o)
 .debug_frame   0x00001348       0x20 /usr/local/arm-elf-tools/gcc-4.3.3/lib/gcc/arm-elf/4.3.3/../../../../arm-elf/lib/interwork/libc.a(lib_a-exit.o)
 .debug_frame   0x00001368       0x3c /usr/local/arm-elf-tools/gcc-4.3.3/lib/gcc/arm-elf/4.3.3/../../../../arm-elf/lib/interwork/libc.a(lib_a-fclose.o)
 .debug_frame   0x000013a4       0x40 /usr/local/arm-elf-tools/gcc-4.3.3/lib/gcc/arm-elf/4.3.3/../../../../arm-elf/lib/interwork/libc.a(lib_a-fdopen.o)
 .debug_frame   0x000013e4       0x48 /usr/local/arm-elf-tools/gcc-4.3.3/lib/gcc/arm-elf/4.3.3/../../../../arm-elf/lib/interwork/libc.a(lib_a-fflush.o)
 .debug_frame   0x0000142c       0x4c /usr/local/arm-elf-tools/gcc-4.3.3/lib/gcc/arm-elf/4.3.3/../../../../arm-elf/lib/interwork/libc.a(lib_a-fgets.o)
 .debug_frame   0x00001478       0x28 /usr/local/arm-elf-tools/gcc-4.3.3/lib/gcc/arm-elf/4.3.3/../../../../arm-elf/lib/interwork/libc.a(lib_a-fileno.o)
 .debug_frame   0x000014a0      0x13c /usr/local/arm-elf-tools/gcc-4.3.3/lib/gcc/arm-elf/4.3.3/../../../../arm-elf/lib/interwork/libc.a(lib_a-findfp.o)
 .debug_frame   0x000015dc       0x28 /usr/local/arm-elf-tools/gcc-4.3.3/lib/gcc/arm-elf/4.3.3/../../../../arm-elf/lib/interwork/libc.a(lib_a-flags.o)
 .debug_frame   0x00001604       0x40 /usr/local/arm-elf-tools/gcc-4.3.3/lib/gcc/arm-elf/4.3.3/../../../../arm-elf/lib/interwork/libc.a(lib_a-fopen.o)
 .debug_frame   0x00001644       0x4c /usr/local/arm-elf-tools/gcc-4.3.3/lib/gcc/arm-elf/4.3.3/../../../../arm-elf/lib/interwork/libc.a(lib_a-fprintf.o)
 .debug_frame   0x00001690       0x48 /usr/local/arm-elf-tools/gcc-4.3.3/lib/gcc/arm-elf/4.3.3/../../../../arm-elf/lib/interwork/libc.a(lib_a-fputc.o)
 .debug_frame   0x000016d8       0x3c /usr/local/arm-elf-tools/gcc-4.3.3/lib/gcc/arm-elf/4.3.3/../../../../arm-elf/lib/interwork/libc.a(lib_a-fputs.o)
 .debug_frame   0x00001714       0x54 /usr/local/arm-elf-tools/gcc-4.3.3/lib/gcc/arm-elf/4.3.3/../../../../arm-elf/lib/interwork/libc.a(lib_a-fread.o)
 .debug_frame   0x00001768       0x50 /usr/local/arm-elf-tools/gcc-4.3.3/lib/gcc/arm-elf/4.3.3/../../../../arm-elf/lib/interwork/libc.a(lib_a-freer.o)
 .debug_frame   0x000017b8       0x4c /usr/local/arm-elf-tools/gcc-4.3.3/lib/gcc/arm-elf/4.3.3/../../../../arm-elf/lib/interwork/libc.a(lib_a-freopen.o)
 .debug_frame   0x00001804       0x4c /usr/local/arm-elf-tools/gcc-4.3.3/lib/gcc/arm-elf/4.3.3/../../../../arm-elf/lib/interwork/libc.a(lib_a-fscanf.o)
 .debug_frame   0x00001850       0x50 /usr/local/arm-elf-tools/gcc-4.3.3/lib/gcc/arm-elf/4.3.3/../../../../arm-elf/lib/interwork/libc.a(lib_a-fseek.o)
 .debug_frame   0x000018a0       0x3c /usr/local/arm-elf-tools/gcc-4.3.3/lib/gcc/arm-elf/4.3.3/../../../../arm-elf/lib/interwork/libc.a(lib_a-ftell.o)
 .debug_frame   0x000018dc       0x38 /usr/local/arm-elf-tools/gcc-4.3.3/lib/gcc/arm-elf/4.3.3/../../../../arm-elf/lib/interwork/libc.a(lib_a-fvwrite.o)
 .debug_frame   0x00001914       0x58 /usr/local/arm-elf-tools/gcc-4.3.3/lib/gcc/arm-elf/4.3.3/../../../../arm-elf/lib/interwork/libc.a(lib_a-fwalk.o)
 .debug_frame   0x0000196c       0x50 /usr/local/arm-elf-tools/gcc-4.3.3/lib/gcc/arm-elf/4.3.3/../../../../arm-elf/lib/interwork/libc.a(lib_a-fwrite.o)
 .debug_frame   0x000019bc       0x40 /usr/local/arm-elf-tools/gcc-4.3.3/lib/gcc/arm-elf/4.3.3/../../../../arm-elf/lib/interwork/libc.a(lib_a-getenv.o)
 .debug_frame   0x000019fc       0x4c /usr/local/arm-elf-tools/gcc-4.3.3/lib/gcc/arm-elf/4.3.3/../../../../arm-elf/lib/interwork/libc.a(lib_a-getenv_r.o)
 .debug_frame   0x00001a48       0x28 /usr/local/arm-elf-tools/gcc-4.3.3/lib/gcc/arm-elf/4.3.3/../../../../arm-elf/lib/interwork/libc.a(lib_a-gmtime.o)
 .debug_frame   0x00001a70       0x28 /usr/local/arm-elf-tools/gcc-4.3.3/lib/gcc/arm-elf/4.3.3/../../../../arm-elf/lib/interwork/libc.a(lib_a-gmtime_r.o)
 .debug_frame   0x00001a98       0x28 /usr/local/arm-elf-tools/gcc-4.3.3/lib/gcc/arm-elf/4.3.3/../../../../arm-elf/lib/interwork/libc.a(lib_a-lcltime.o)
 .debug_frame   0x00001ac0       0x28 /usr/local/arm-elf-tools/gcc-4.3.3/lib/gcc/arm-elf/4.3.3/../../../../arm-elf/lib/interwork/libc.a(lib_a-lcltime_r.o)
 .debug_frame   0x00001ae8       0x6c /usr/local/arm-elf-tools/gcc-4.3.3/lib/gcc/arm-elf/4.3.3/../../../../arm-elf/lib/interwork/libc.a(lib_a-locale.o)
 .debug_frame   0x00001b54       0x30 /usr/local/arm-elf-tools/gcc-4.3.3/lib/gcc/arm-elf/4.3.3/../../../../arm-elf/lib/interwork/libc.a(lib_a-makebuf.o)
 .debug_frame   0x00001b84       0x40 /usr/local/arm-elf-tools/gcc-4.3.3/lib/gcc/arm-elf/4.3.3/../../../../arm-elf/lib/interwork/libc.a(lib_a-malloc.o)
 .debug_frame   0x00001bc4       0x38 /usr/local/arm-elf-tools/gcc-4.3.3/lib/gcc/arm-elf/4.3.3/../../../../arm-elf/lib/interwork/libc.a(lib_a-mallocr.o)
 .debug_frame   0x00001bfc       0x28 /usr/local/arm-elf-tools/gcc-4.3.3/lib/gcc/arm-elf/4.3.3/../../../../arm-elf/lib/interwork/libc.a(lib_a-memchr.o)
 .debug_frame   0x00001c24       0x2c /usr/local/arm-elf-tools/gcc-4.3.3/lib/gcc/arm-elf/4.3.3/../../../../arm-elf/lib/interwork/libc.a(lib_a-memcmp.o)
 .debug_frame   0x00001c50       0x2c /usr/local/arm-elf-tools/gcc-4.3.3/lib/gcc/arm-elf/4.3.3/../../../../arm-elf/lib/interwork/libc.a(lib_a-memcpy.o)
 .debug_frame   0x00001c7c       0x2c /usr/local/arm-elf-tools/gcc-4.3.3/lib/gcc/arm-elf/4.3.3/../../../../arm-elf/lib/interwork/libc.a(lib_a-memmove.o)
 .debug_frame   0x00001ca8       0x2c /usr/local/arm-elf-tools/gcc-4.3.3/lib/gcc/arm-elf/4.3.3/../../../../arm-elf/lib/interwork/libc.a(lib_a-memset.o)
 .debug_frame   0x00001cd4       0x5c /usr/local/arm-elf-tools/gcc-4.3.3/lib/gcc/arm-elf/4.3.3/../../../../arm-elf/lib/interwork/libc.a(lib_a-mktime.o)
 .debug_frame   0x00001d30       0x60 /usr/local/arm-elf-tools/gcc-4.3.3/lib/gcc/arm-elf/4.3.3/../../../../arm-elf/lib/interwork/libc.a(lib_a-mktm_r.o)
 .debug_frame   0x00001d90       0x30 /usr/local/arm-elf-tools/gcc-4.3.3/lib/gcc/arm-elf/4.3.3/../../../../arm-elf/lib/interwork/libc.a(lib_a-mlock.o)
 .debug_frame   0x00001dc0       0x50 /usr/local/arm-elf-tools/gcc-4.3.3/lib/gcc/arm-elf/4.3.3/../../../../arm-elf/lib/interwork/libc.a(lib_a-printf.o)
 .debug_frame   0x00001e10       0x48 /usr/local/arm-elf-tools/gcc-4.3.3/lib/gcc/arm-elf/4.3.3/../../../../arm-elf/lib/interwork/libc.a(lib_a-putc.o)
 .debug_frame   0x00001e58       0x3c /usr/local/arm-elf-tools/gcc-4.3.3/lib/gcc/arm-elf/4.3.3/../../../../arm-elf/lib/interwork/libc.a(lib_a-rand.o)
 .debug_frame   0x00001e94       0x28 /usr/local/arm-elf-tools/gcc-4.3.3/lib/gcc/arm-elf/4.3.3/../../../../arm-elf/lib/interwork/libc.a(lib_a-realloc.o)
 .debug_frame   0x00001ebc       0x38 /usr/local/arm-elf-tools/gcc-4.3.3/lib/gcc/arm-elf/4.3.3/../../../../arm-elf/lib/interwork/libc.a(lib_a-reallocr.o)
 .debug_frame   0x00001ef4       0x44 /usr/local/arm-elf-tools/gcc-4.3.3/lib/gcc/arm-elf/4.3.3/../../../../arm-elf/lib/interwork/libc.a(lib_a-refill.o)
 .debug_frame   0x00001f38       0x40 /usr/local/arm-elf-tools/gcc-4.3.3/lib/gcc/arm-elf/4.3.3/../../../../arm-elf/lib/interwork/libc.a(lib_a-remove.o)
 .debug_frame   0x00001f78       0x3c /usr/local/arm-elf-tools/gcc-4.3.3/lib/gcc/arm-elf/4.3.3/../../../../arm-elf/lib/interwork/libc.a(lib_a-rget.o)
 .debug_frame   0x00001fb4       0x34 /usr/local/arm-elf-tools/gcc-4.3.3/lib/gcc/arm-elf/4.3.3/../../../../arm-elf/lib/interwork/libc.a(lib_a-setvbuf.o)
 .debug_frame   0x00001fe8       0xc0 /usr/local/arm-elf-tools/gcc-4.3.3/lib/gcc/arm-elf/4.3.3/../../../../arm-elf/lib/interwork/libc.a(lib_a-signal.o)
 .debug_frame   0x000020a8       0x5c /usr/local/arm-elf-tools/gcc-4.3.3/lib/gcc/arm-elf/4.3.3/../../../../arm-elf/lib/interwork/libc.a(lib_a-snprintf.o)
 .debug_frame   0x00002104       0x58 /usr/local/arm-elf-tools/gcc-4.3.3/lib/gcc/arm-elf/4.3.3/../../../../arm-elf/lib/interwork/libc.a(lib_a-sprintf.o)
 .debug_frame   0x0000215c       0x78 /usr/local/arm-elf-tools/gcc-4.3.3/lib/gcc/arm-elf/4.3.3/../../../../arm-elf/lib/interwork/libc.a(lib_a-stdio.o)
 .debug_frame   0x000021d4       0x28 /usr/local/arm-elf-tools/gcc-4.3.3/lib/gcc/arm-elf/4.3.3/../../../../arm-elf/lib/interwork/libc.a(lib_a-strcat.o)
 .debug_frame   0x000021fc       0x28 /usr/local/arm-elf-tools/gcc-4.3.3/lib/gcc/arm-elf/4.3.3/../../../../arm-elf/lib/interwork/libc.a(lib_a-strchr.o)
 .debug_frame   0x00002224       0x20 /usr/local/arm-elf-tools/gcc-4.3.3/lib/gcc/arm-elf/4.3.3/../../../../arm-elf/lib/interwork/libc.a(lib_a-strcmp.o)
 .debug_frame   0x00002244       0x28 /usr/local/arm-elf-tools/gcc-4.3.3/lib/gcc/arm-elf/4.3.3/../../../../arm-elf/lib/interwork/libc.a(lib_a-strcoll.o)
 .debug_frame   0x0000226c       0x28 /usr/local/arm-elf-tools/gcc-4.3.3/lib/gcc/arm-elf/4.3.3/../../../../arm-elf/lib/interwork/libc.a(lib_a-strcpy.o)
 .debug_frame   0x00002294       0x28 /usr/local/arm-elf-tools/gcc-4.3.3/lib/gcc/arm-elf/4.3.3/../../../../arm-elf/lib/interwork/libc.a(lib_a-strcspn.o)
 .debug_frame   0x000022bc       0x28 /usr/local/arm-elf-tools/gcc-4.3.3/lib/gcc/arm-elf/4.3.3/../../../../arm-elf/lib/interwork/libc.a(lib_a-strerror.o)
 .debug_frame   0x000022e4       0x50 /usr/local/arm-elf-tools/gcc-4.3.3/lib/gcc/arm-elf/4.3.3/../../../../arm-elf/lib/interwork/libc.a(lib_a-strftime.o)
 .debug_frame   0x00002334       0x20 /usr/local/arm-elf-tools/gcc-4.3.3/lib/gcc/arm-elf/4.3.3/../../../../arm-elf/lib/interwork/libc.a(lib_a-strlen.o)
 .debug_frame   0x00002354       0x28 /usr/local/arm-elf-tools/gcc-4.3.3/lib/gcc/arm-elf/4.3.3/../../../../arm-elf/lib/interwork/libc.a(lib_a-strncat.o)
 .debug_frame   0x0000237c       0x2c /usr/local/arm-elf-tools/gcc-4.3.3/lib/gcc/arm-elf/4.3.3/../../../../arm-elf/lib/interwork/libc.a(lib_a-strncmp.o)
 .debug_frame   0x000023a8       0x28 /usr/local/arm-elf-tools/gcc-4.3.3/lib/gcc/arm-elf/4.3.3/../../../../arm-elf/lib/interwork/libc.a(lib_a-strncpy.o)
 .debug_frame   0x000023d0       0x20 /usr/local/arm-elf-tools/gcc-4.3.3/lib/gcc/arm-elf/4.3.3/../../../../arm-elf/lib/interwork/libc.a(lib_a-strnlen.o)
 .debug_frame   0x000023f0       0x28 /usr/local/arm-elf-tools/gcc-4.3.3/lib/gcc/arm-elf/4.3.3/../../../../arm-elf/lib/interwork/libc.a(lib_a-strpbrk.o)
 .debug_frame   0x00002418       0x2c /usr/local/arm-elf-tools/gcc-4.3.3/lib/gcc/arm-elf/4.3.3/../../../../arm-elf/lib/interwork/libc.a(lib_a-strrchr.o)
 .debug_frame   0x00002444       0x8c /usr/local/arm-elf-tools/gcc-4.3.3/lib/gcc/arm-elf/4.3.3/../../../../arm-elf/lib/interwork/libc.a(lib_a-strstr.o)
 .debug_frame   0x000024d0       0x68 /usr/local/arm-elf-tools/gcc-4.3.3/lib/gcc/arm-elf/4.3.3/../../../../arm-elf/lib/interwork/libc.a(lib_a-strtod.o)
 .debug_frame   0x00002538       0x50 /usr/local/arm-elf-tools/gcc-4.3.3/lib/gcc/arm-elf/4.3.3/../../../../arm-elf/lib/interwork/libc.a(lib_a-strtoul.o)
 .debug_frame   0x00002588       0x64 /usr/local/arm-elf-tools/gcc-4.3.3/lib/gcc/arm-elf/4.3.3/../../../../arm-elf/lib/interwork/libc.a(lib_a-svfprintf.o)
 .debug_frame   0x000025ec       0x28 /usr/local/arm-elf-tools/gcc-4.3.3/lib/gcc/arm-elf/4.3.3/../../../../arm-elf/lib/interwork/libc.a(lib_a-sysclose.o)
 .debug_frame   0x00002614       0x28 /usr/local/arm-elf-tools/gcc-4.3.3/lib/gcc/arm-elf/4.3.3/../../../../arm-elf/lib/interwork/libc.a(lib_a-sysgettod.o)
 .debug_frame   0x0000263c       0x30 /usr/local/arm-elf-tools/gcc-4.3.3/lib/gcc/arm-elf/4.3.3/../../../../arm-elf/lib/interwork/libc.a(lib_a-sysopen.o)
 .debug_frame   0x0000266c       0x28 /usr/local/arm-elf-tools/gcc-4.3.3/lib/gcc/arm-elf/4.3.3/../../../../arm-elf/lib/interwork/libc.a(lib_a-sysread.o)
 .debug_frame   0x00002694       0x38 /usr/local/arm-elf-tools/gcc-4.3.3/lib/gcc/arm-elf/4.3.3/../../../../arm-elf/lib/interwork/libc.a(lib_a-system.o)
 .debug_frame   0x000026cc       0x28 /usr/local/arm-elf-tools/gcc-4.3.3/lib/gcc/arm-elf/4.3.3/../../../../arm-elf/lib/interwork/libc.a(lib_a-sysunlink.o)
 .debug_frame   0x000026f4       0x28 /usr/local/arm-elf-tools/gcc-4.3.3/lib/gcc/arm-elf/4.3.3/../../../../arm-elf/lib/interwork/libc.a(lib_a-syswrite.o)
 .debug_frame   0x0000271c       0x2c /usr/local/arm-elf-tools/gcc-4.3.3/lib/gcc/arm-elf/4.3.3/../../../../arm-elf/lib/interwork/libc.a(lib_a-time.o)
 .debug_frame   0x00002748       0x28 /usr/local/arm-elf-tools/gcc-4.3.3/lib/gcc/arm-elf/4.3.3/../../../../arm-elf/lib/interwork/libc.a(lib_a-timesr.o)
 .debug_frame   0x00002770       0x44 /usr/local/arm-elf-tools/gcc-4.3.3/lib/gcc/arm-elf/4.3.3/../../../../arm-elf/lib/interwork/libc.a(lib_a-tmpfile.o)
 .debug_frame   0x000027b4       0x94 /usr/local/arm-elf-tools/gcc-4.3.3/lib/gcc/arm-elf/4.3.3/../../../../arm-elf/lib/interwork/libc.a(lib_a-tmpnam.o)
 .debug_frame   0x00002848       0x30 /usr/local/arm-elf-tools/gcc-4.3.3/lib/gcc/arm-elf/4.3.3/../../../../arm-elf/lib/interwork/libc.a(lib_a-tzlock.o)
 .debug_frame   0x00002878       0x60 /usr/local/arm-elf-tools/gcc-4.3.3/lib/gcc/arm-elf/4.3.3/../../../../arm-elf/lib/interwork/libc.a(lib_a-ungetc.o)
 .debug_frame   0x000028d8       0x20 /usr/local/arm-elf-tools/gcc-4.3.3/lib/gcc/arm-elf/4.3.3/../../../../arm-elf/lib/interwork/libc.a(lib_a-u_strerr.o)
 .debug_frame   0x000028f8       0x70 /usr/local/arm-elf-tools/gcc-4.3.3/lib/gcc/arm-elf/4.3.3/../../../../arm-elf/lib/interwork/libc.a(lib_a-vfprintf.o)
 .debug_frame   0x00002968       0x94 /usr/local/arm-elf-tools/gcc-4.3.3/lib/gcc/arm-elf/4.3.3/../../../../arm-elf/lib/interwork/libc.a(lib_a-vfscanf.o)
 .debug_frame   0x000029fc       0x4c /usr/local/arm-elf-tools/gcc-4.3.3/lib/gcc/arm-elf/4.3.3/../../../../arm-elf/lib/interwork/libc.a(lib_a-vsnprintf.o)
 .debug_frame   0x00002a48       0x3c /usr/local/arm-elf-tools/gcc-4.3.3/lib/gcc/arm-elf/4.3.3/../../../../arm-elf/lib/interwork/libc.a(lib_a-wbuf.o)
 .debug_frame   0x00002a84       0x2c /usr/local/arm-elf-tools/gcc-4.3.3/lib/gcc/arm-elf/4.3.3/../../../../arm-elf/lib/interwork/libc.a(lib_a-wsetup.o)
 .debug_frame   0x00002ab0       0x20 /usr/local/arm-elf-tools/gcc-4.3.3/lib/gcc/arm-elf/4.3.3/../../../../arm-elf/lib/interwork/libc.a(lib_a-abs.o)
 .debug_frame   0x00002ad0       0x38 /usr/local/arm-elf-tools/gcc-4.3.3/lib/gcc/arm-elf/4.3.3/../../../../arm-elf/lib/interwork/libc.a(lib_a-__call_atexit.o)
 .debug_frame   0x00002b08       0x30 /usr/local/arm-elf-tools/gcc-4.3.3/lib/gcc/arm-elf/4.3.3/../../../../arm-elf/lib/interwork/libc.a(lib_a-div.o)
 .debug_frame   0x00002b38       0x64 /usr/local/arm-elf-tools/gcc-4.3.3/lib/gcc/arm-elf/4.3.3/../../../../arm-elf/lib/interwork/libc.a(lib_a-dtoa.o)
 .debug_frame   0x00002b9c       0x30 /usr/local/arm-elf-tools/gcc-4.3.3/lib/gcc/arm-elf/4.3.3/../../../../arm-elf/lib/interwork/libc.a(lib_a-envlock.o)
 .debug_frame   0x00002bcc       0x68 /usr/local/arm-elf-tools/gcc-4.3.3/lib/gcc/arm-elf/4.3.3/../../../../arm-elf/lib/interwork/libc.a(lib_a-gdtoa-gethex.o)
 .debug_frame   0x00002c34       0x38 /usr/local/arm-elf-tools/gcc-4.3.3/lib/gcc/arm-elf/4.3.3/../../../../arm-elf/lib/interwork/libc.a(lib_a-gdtoa-hexnan.o)
 .debug_frame   0x00002c6c       0x2c /usr/local/arm-elf-tools/gcc-4.3.3/lib/gcc/arm-elf/4.3.3/../../../../arm-elf/lib/interwork/libc.a(lib_a-gettimeofdayr.o)
 .debug_frame   0x00002c98       0x20 /usr/local/arm-elf-tools/gcc-4.3.3/lib/gcc/arm-elf/4.3.3/../../../../arm-elf/lib/interwork/libc.a(lib_a-gettzinfo.o)
 .debug_frame   0x00002cb8       0x2c /usr/local/arm-elf-tools/gcc-4.3.3/lib/gcc/arm-elf/4.3.3/../../../../arm-elf/lib/interwork/libc.a(lib_a-isattyr.o)
 .debug_frame   0x00002ce4       0x20 /usr/local/arm-elf-tools/gcc-4.3.3/lib/gcc/arm-elf/4.3.3/../../../../arm-elf/lib/interwork/libc.a(lib_a-iswspace.o)
 .debug_frame   0x00002d04       0x20 /usr/local/arm-elf-tools/gcc-4.3.3/lib/gcc/arm-elf/4.3.3/../../../../arm-elf/lib/interwork/libc.a(lib_a-labs.o)
 .debug_frame   0x00002d24       0x48 /usr/local/arm-elf-tools/gcc-4.3.3/lib/gcc/arm-elf/4.3.3/../../../../arm-elf/lib/interwork/libc.a(lib_a-mbrtowc.o)
 .debug_frame   0x00002d6c       0x24 /usr/local/arm-elf-tools/gcc-4.3.3/lib/gcc/arm-elf/4.3.3/../../../../arm-elf/lib/interwork/libc.a(lib_a-mbtowc_r.o)
 .debug_frame   0x00002d90      0x228 /usr/local/arm-elf-tools/gcc-4.3.3/lib/gcc/arm-elf/4.3.3/../../../../arm-elf/lib/interwork/libc.a(lib_a-mprec.o)
 .debug_frame   0x00002fb8       0x68 /usr/local/arm-elf-tools/gcc-4.3.3/lib/gcc/arm-elf/4.3.3/../../../../arm-elf/lib/interwork/libc.a(lib_a-reent.o)
 .debug_frame   0x00003020       0x2c /usr/local/arm-elf-tools/gcc-4.3.3/lib/gcc/arm-elf/4.3.3/../../../../arm-elf/lib/interwork/libc.a(lib_a-sccl.o)
 .debug_frame   0x0000304c       0x20 /usr/local/arm-elf-tools/gcc-4.3.3/lib/gcc/arm-elf/4.3.3/../../../../arm-elf/lib/interwork/libc.a(lib_a-sf_nan.o)
 .debug_frame   0x0000306c       0x28 /usr/local/arm-elf-tools/gcc-4.3.3/lib/gcc/arm-elf/4.3.3/../../../../arm-elf/lib/interwork/libc.a(lib_a-s_isinfd.o)
 .debug_frame   0x00003094       0x50 /usr/local/arm-elf-tools/gcc-4.3.3/lib/gcc/arm-elf/4.3.3/../../../../arm-elf/lib/interwork/libc.a(lib_a-strtol.o)

.debug_loc      0x00000000    0x1aa7e
 .debug_loc     0x00000000      0x2bb /usr/local/arm-elf-tools/gcc-4.3.3/lib/gcc/arm-elf/4.3.3/../../../../arm-elf/lib/interwork/libm.a(lib_a-s_atan.o)
 .debug_loc     0x000002bb      0x285 /usr/local/arm-elf-tools/gcc-4.3.3/lib/gcc/arm-elf/4.3.3/../../../../arm-elf/lib/interwork/libm.a(lib_a-s_ceil.o)
 .debug_loc     0x00000540       0x8c /usr/local/arm-elf-tools/gcc-4.3.3/lib/gcc/arm-elf/4.3.3/../../../../arm-elf/lib/interwork/libm.a(lib_a-s_cos.o)
 .debug_loc     0x000005cc       0x37 /usr/local/arm-elf-tools/gcc-4.3.3/lib/gcc/arm-elf/4.3.3/../../../../arm-elf/lib/interwork/libm.a(lib_a-s_fabs.o)
 .debug_loc     0x00000603      0x255 /usr/local/arm-elf-tools/gcc-4.3.3/lib/gcc/arm-elf/4.3.3/../../../../arm-elf/lib/interwork/libm.a(lib_a-s_floor.o)
 .debug_loc     0x00000858      0x131 /usr/local/arm-elf-tools/gcc-4.3.3/lib/gcc/arm-elf/4.3.3/../../../../arm-elf/lib/interwork/libm.a(lib_a-s_frexp.o)
 .debug_loc     0x00000989       0x75 /usr/local/arm-elf-tools/gcc-4.3.3/lib/gcc/arm-elf/4.3.3/../../../../arm-elf/lib/interwork/libm.a(lib_a-s_ldexp.o)
 .debug_loc     0x000009fe      0x327 /usr/local/arm-elf-tools/gcc-4.3.3/lib/gcc/arm-elf/4.3.3/../../../../arm-elf/lib/interwork/libm.a(lib_a-s_modf.o)
 .debug_loc     0x00000d25      0x251 /usr/local/arm-elf-tools/gcc-4.3.3/lib/gcc/arm-elf/4.3.3/../../../../arm-elf/lib/interwork/libm.a(lib_a-s_scalbn.o)
 .debug_loc     0x00000f76       0x8c /usr/local/arm-elf-tools/gcc-4.3.3/lib/gcc/arm-elf/4.3.3/../../../../arm-elf/lib/interwork/libm.a(lib_a-s_sin.o)
 .debug_loc     0x00001002      0x140 /usr/local/arm-elf-tools/gcc-4.3.3/lib/gcc/arm-elf/4.3.3/../../../../arm-elf/lib/interwork/libm.a(lib_a-s_tanh.o)
 .debug_loc     0x00001142      0x104 /usr/local/arm-elf-tools/gcc-4.3.3/lib/gcc/arm-elf/4.3.3/../../../../arm-elf/lib/interwork/libm.a(lib_a-s_tan.o)
 .debug_loc     0x00001246       0x8c /usr/local/arm-elf-tools/gcc-4.3.3/lib/gcc/arm-elf/4.3.3/../../../../arm-elf/lib/interwork/libm.a(lib_a-w_acos.o)
 .debug_loc     0x000012d2       0x8c /usr/local/arm-elf-tools/gcc-4.3.3/lib/gcc/arm-elf/4.3.3/../../../../arm-elf/lib/interwork/libm.a(lib_a-w_asin.o)
 .debug_loc     0x0000135e       0x4f /usr/local/arm-elf-tools/gcc-4.3.3/lib/gcc/arm-elf/4.3.3/../../../../arm-elf/lib/interwork/libm.a(lib_a-w_atan2.o)
 .debug_loc     0x000013ad       0x9c /usr/local/arm-elf-tools/gcc-4.3.3/lib/gcc/arm-elf/4.3.3/../../../../arm-elf/lib/interwork/libm.a(lib_a-w_cosh.o)
 .debug_loc     0x00001449       0x9b /usr/local/arm-elf-tools/gcc-4.3.3/lib/gcc/arm-elf/4.3.3/../../../../arm-elf/lib/interwork/libm.a(lib_a-w_exp.o)
 .debug_loc     0x000014e4       0xb4 /usr/local/arm-elf-tools/gcc-4.3.3/lib/gcc/arm-elf/4.3.3/../../../../arm-elf/lib/interwork/libm.a(lib_a-w_fmod.o)
 .debug_loc     0x00001598       0x8c /usr/local/arm-elf-tools/gcc-4.3.3/lib/gcc/arm-elf/4.3.3/../../../../arm-elf/lib/interwork/libm.a(lib_a-w_log10.o)
 .debug_loc     0x00001624       0x8c /usr/local/arm-elf-tools/gcc-4.3.3/lib/gcc/arm-elf/4.3.3/../../../../arm-elf/lib/interwork/libm.a(lib_a-w_log.o)
 .debug_loc     0x000016b0      0x114 /usr/local/arm-elf-tools/gcc-4.3.3/lib/gcc/arm-elf/4.3.3/../../../../arm-elf/lib/interwork/libm.a(lib_a-w_pow.o)
 .debug_loc     0x000017c4       0x8c /usr/local/arm-elf-tools/gcc-4.3.3/lib/gcc/arm-elf/4.3.3/../../../../arm-elf/lib/interwork/libm.a(lib_a-w_sinh.o)
 .debug_loc     0x00001850       0x9c /usr/local/arm-elf-tools/gcc-4.3.3/lib/gcc/arm-elf/4.3.3/../../../../arm-elf/lib/interwork/libm.a(lib_a-w_sqrt.o)
 .debug_loc     0x000018ec      0x244 /usr/local/arm-elf-tools/gcc-4.3.3/lib/gcc/arm-elf/4.3.3/../../../../arm-elf/lib/interwork/libm.a(lib_a-e_acos.o)
 .debug_loc     0x00001b30      0x1a2 /usr/local/arm-elf-tools/gcc-4.3.3/lib/gcc/arm-elf/4.3.3/../../../../arm-elf/lib/interwork/libm.a(lib_a-e_asin.o)
 .debug_loc     0x00001cd2      0x534 /usr/local/arm-elf-tools/gcc-4.3.3/lib/gcc/arm-elf/4.3.3/../../../../arm-elf/lib/interwork/libm.a(lib_a-e_atan2.o)
 .debug_loc     0x00002206      0x286 /usr/local/arm-elf-tools/gcc-4.3.3/lib/gcc/arm-elf/4.3.3/../../../../arm-elf/lib/interwork/libm.a(lib_a-e_cosh.o)
 .debug_loc     0x0000248c      0x31c /usr/local/arm-elf-tools/gcc-4.3.3/lib/gcc/arm-elf/4.3.3/../../../../arm-elf/lib/interwork/libm.a(lib_a-e_exp.o)
 .debug_loc     0x000027a8      0x471 /usr/local/arm-elf-tools/gcc-4.3.3/lib/gcc/arm-elf/4.3.3/../../../../arm-elf/lib/interwork/libm.a(lib_a-e_fmod.o)
 .debug_loc     0x00002c19      0x1ca /usr/local/arm-elf-tools/gcc-4.3.3/lib/gcc/arm-elf/4.3.3/../../../../arm-elf/lib/interwork/libm.a(lib_a-e_log10.o)
 .debug_loc     0x00002de3      0x2ff /usr/local/arm-elf-tools/gcc-4.3.3/lib/gcc/arm-elf/4.3.3/../../../../arm-elf/lib/interwork/libm.a(lib_a-e_log.o)
 .debug_loc     0x000030e2      0xc2c /usr/local/arm-elf-tools/gcc-4.3.3/lib/gcc/arm-elf/4.3.3/../../../../arm-elf/lib/interwork/libm.a(lib_a-e_pow.o)
 .debug_loc     0x00003d0e      0x474 /usr/local/arm-elf-tools/gcc-4.3.3/lib/gcc/arm-elf/4.3.3/../../../../arm-elf/lib/interwork/libm.a(lib_a-e_rem_pio2.o)
 .debug_loc     0x00004182      0x180 /usr/local/arm-elf-tools/gcc-4.3.3/lib/gcc/arm-elf/4.3.3/../../../../arm-elf/lib/interwork/libm.a(lib_a-e_sinh.o)
 .debug_loc     0x00004302      0x3c4 /usr/local/arm-elf-tools/gcc-4.3.3/lib/gcc/arm-elf/4.3.3/../../../../arm-elf/lib/interwork/libm.a(lib_a-e_sqrt.o)
 .debug_loc     0x000046c6      0x160 /usr/local/arm-elf-tools/gcc-4.3.3/lib/gcc/arm-elf/4.3.3/../../../../arm-elf/lib/interwork/libm.a(lib_a-k_cos.o)
 .debug_loc     0x00004826      0x7fc /usr/local/arm-elf-tools/gcc-4.3.3/lib/gcc/arm-elf/4.3.3/../../../../arm-elf/lib/interwork/libm.a(lib_a-k_rem_pio2.o)
 .debug_loc     0x00005022       0xe7 /usr/local/arm-elf-tools/gcc-4.3.3/lib/gcc/arm-elf/4.3.3/../../../../arm-elf/lib/interwork/libm.a(lib_a-k_sin.o)
 .debug_loc     0x00005109      0x2ad /usr/local/arm-elf-tools/gcc-4.3.3/lib/gcc/arm-elf/4.3.3/../../../../arm-elf/lib/interwork/libm.a(lib_a-k_tan.o)
 .debug_loc     0x000053b6       0x67 /usr/local/arm-elf-tools/gcc-4.3.3/lib/gcc/arm-elf/4.3.3/../../../../arm-elf/lib/interwork/libm.a(lib_a-s_copysign.o)
 .debug_loc     0x0000541d      0x44f /usr/local/arm-elf-tools/gcc-4.3.3/lib/gcc/arm-elf/4.3.3/../../../../arm-elf/lib/interwork/libm.a(lib_a-s_expm1.o)
 .debug_loc     0x0000586c       0x18 /usr/local/arm-elf-tools/gcc-4.3.3/lib/gcc/arm-elf/4.3.3/../../../../arm-elf/lib/interwork/libm.a(lib_a-s_finite.o)
 .debug_loc     0x00005884       0x4f /usr/local/arm-elf-tools/gcc-4.3.3/lib/gcc/arm-elf/4.3.3/../../../../arm-elf/lib/interwork/libm.a(lib_a-s_isnand.o)
 .debug_loc     0x000058d3       0x13 /usr/local/arm-elf-tools/gcc-4.3.3/lib/gcc/arm-elf/4.3.3/../../../../arm-elf/lib/interwork/libm.a(lib_a-s_matherr.o)
 .debug_loc     0x000058e6       0x32 /usr/local/arm-elf-tools/gcc-4.3.3/lib/gcc/arm-elf/4.3.3/../../../../arm-elf/lib/interwork/libm.a(lib_a-s_nan.o)
 .debug_loc     0x00005918      0x2a0 /usr/local/arm-elf-tools/gcc-4.3.3/lib/gcc/arm-elf/4.3.3/../../../../arm-elf/lib/interwork/libm.a(lib_a-s_rint.o)
 .debug_loc     0x00005bb8       0x57 /usr/local/arm-elf-tools/gcc-4.3.3/lib/gcc/arm-elf/4.3.3/interwork/libgcc.a(_fixunsdfsi.o)
 .debug_loc     0x00005c0f      0x1f4 /usr/local/arm-elf-tools/gcc-4.3.3/lib/gcc/arm-elf/4.3.3/interwork/libgcc.a(_mul_sf.o)
 .debug_loc     0x00005e03      0x18e /usr/local/arm-elf-tools/gcc-4.3.3/lib/gcc/arm-elf/4.3.3/interwork/libgcc.a(_div_sf.o)
 .debug_loc     0x00005f91       0x64 /usr/local/arm-elf-tools/gcc-4.3.3/lib/gcc/arm-elf/4.3.3/interwork/libgcc.a(_eq_sf.o)
 .debug_loc     0x00005ff5       0xcd /usr/local/arm-elf-tools/gcc-4.3.3/lib/gcc/arm-elf/4.3.3/interwork/libgcc.a(_si_to_sf.o)
 .debug_loc     0x000060c2       0x3e /usr/local/arm-elf-tools/gcc-4.3.3/lib/gcc/arm-elf/4.3.3/interwork/libgcc.a(_sf_to_df.o)
 .debug_loc     0x00006100       0xa4 /usr/local/arm-elf-tools/gcc-4.3.3/lib/gcc/arm-elf/4.3.3/interwork/libgcc.a(_usi_to_sf.o)
 .debug_loc     0x000061a4      0x3c2 /usr/local/arm-elf-tools/gcc-4.3.3/lib/gcc/arm-elf/4.3.3/interwork/libgcc.a(_addsub_df.o)
 .debug_loc     0x00006566      0x323 /usr/local/arm-elf-tools/gcc-4.3.3/lib/gcc/arm-elf/4.3.3/interwork/libgcc.a(_mul_df.o)
 .debug_loc     0x00006889      0x195 /usr/local/arm-elf-tools/gcc-4.3.3/lib/gcc/arm-elf/4.3.3/interwork/libgcc.a(_div_df.o)
 .debug_loc     0x00006a1e       0x6f /usr/local/arm-elf-tools/gcc-4.3.3/lib/gcc/arm-elf/4.3.3/interwork/libgcc.a(_eq_df.o)
 .debug_loc     0x00006a8d       0x6f /usr/local/arm-elf-tools/gcc-4.3.3/lib/gcc/arm-elf/4.3.3/interwork/libgcc.a(_ne_df.o)
 .debug_loc     0x00006afc       0x6f /usr/local/arm-elf-tools/gcc-4.3.3/lib/gcc/arm-elf/4.3.3/interwork/libgcc.a(_gt_df.o)
 .debug_loc     0x00006b6b       0x6f /usr/local/arm-elf-tools/gcc-4.3.3/lib/gcc/arm-elf/4.3.3/interwork/libgcc.a(_ge_df.o)
 .debug_loc     0x00006bda       0x6f /usr/local/arm-elf-tools/gcc-4.3.3/lib/gcc/arm-elf/4.3.3/interwork/libgcc.a(_lt_df.o)
 .debug_loc     0x00006c49       0x6f /usr/local/arm-elf-tools/gcc-4.3.3/lib/gcc/arm-elf/4.3.3/interwork/libgcc.a(_le_df.o)
 .debug_loc     0x00006cb8       0xd8 /usr/local/arm-elf-tools/gcc-4.3.3/lib/gcc/arm-elf/4.3.3/interwork/libgcc.a(_si_to_df.o)
 .debug_loc     0x00006d90       0xb0 /usr/local/arm-elf-tools/gcc-4.3.3/lib/gcc/arm-elf/4.3.3/interwork/libgcc.a(_df_to_si.o)
 .debug_loc     0x00006e40       0x84 /usr/local/arm-elf-tools/gcc-4.3.3/lib/gcc/arm-elf/4.3.3/interwork/libgcc.a(_make_df.o)
 .debug_loc     0x00006ec4       0x61 /usr/local/arm-elf-tools/gcc-4.3.3/lib/gcc/arm-elf/4.3.3/interwork/libgcc.a(_df_to_sf.o)
 .debug_loc     0x00006f25       0xa4 /usr/local/arm-elf-tools/gcc-4.3.3/lib/gcc/arm-elf/4.3.3/interwork/libgcc.a(_usi_to_df.o)
 .debug_loc     0x00006fc9       0x38 /usr/local/arm-elf-tools/gcc-4.3.3/lib/gcc/arm-elf/4.3.3/interwork/libgcc.a(_ucmpdi2.o)
 .debug_loc     0x00007001       0x29 /usr/local/arm-elf-tools/gcc-4.3.3/lib/gcc/arm-elf/4.3.3/interwork/libgcc.a(_clzsi2.o)
 .debug_loc     0x0000702a       0xf1 /usr/local/arm-elf-tools/gcc-4.3.3/lib/gcc/arm-elf/4.3.3/interwork/libgcc.a(_pack_sf.o)
 .debug_loc     0x0000711b       0x5b /usr/local/arm-elf-tools/gcc-4.3.3/lib/gcc/arm-elf/4.3.3/interwork/libgcc.a(_unpack_sf.o)
 .debug_loc     0x00007176       0x94 /usr/local/arm-elf-tools/gcc-4.3.3/lib/gcc/arm-elf/4.3.3/interwork/libgcc.a(_fpcmp_parts_sf.o)
 .debug_loc     0x0000720a       0x77 /usr/local/arm-elf-tools/gcc-4.3.3/lib/gcc/arm-elf/4.3.3/interwork/libgcc.a(_make_sf.o)
 .debug_loc     0x00007281      0x1b8 /usr/local/arm-elf-tools/gcc-4.3.3/lib/gcc/arm-elf/4.3.3/interwork/libgcc.a(_pack_df.o)
 .debug_loc     0x00007439       0xd1 /usr/local/arm-elf-tools/gcc-4.3.3/lib/gcc/arm-elf/4.3.3/interwork/libgcc.a(_unpack_df.o)
 .debug_loc     0x0000750a       0x94 /usr/local/arm-elf-tools/gcc-4.3.3/lib/gcc/arm-elf/4.3.3/interwork/libgcc.a(_fpcmp_parts_df.o)
 .debug_loc     0x0000759e       0x5b /usr/local/arm-elf-tools/gcc-4.3.3/lib/gcc/arm-elf/4.3.3/../../../../arm-elf/lib/interwork/libc.a(lib_a-calloc.o)
 .debug_loc     0x000075f9       0xcb /usr/local/arm-elf-tools/gcc-4.3.3/lib/gcc/arm-elf/4.3.3/../../../../arm-elf/lib/interwork/libc.a(lib_a-callocr.o)
 .debug_loc     0x000076c4       0x3e /usr/local/arm-elf-tools/gcc-4.3.3/lib/gcc/arm-elf/4.3.3/../../../../arm-elf/lib/interwork/libc.a(lib_a-clock.o)
 .debug_loc     0x00007702       0x45 /usr/local/arm-elf-tools/gcc-4.3.3/lib/gcc/arm-elf/4.3.3/../../../../arm-elf/lib/interwork/libc.a(lib_a-difftime.o)
 .debug_loc     0x00007747       0x1e /usr/local/arm-elf-tools/gcc-4.3.3/lib/gcc/arm-elf/4.3.3/../../../../arm-elf/lib/interwork/libc.a(lib_a-exit.o)
 .debug_loc     0x00007765       0x79 /usr/local/arm-elf-tools/gcc-4.3.3/lib/gcc/arm-elf/4.3.3/../../../../arm-elf/lib/interwork/libc.a(lib_a-fclose.o)
 .debug_loc     0x000077de       0xdf /usr/local/arm-elf-tools/gcc-4.3.3/lib/gcc/arm-elf/4.3.3/../../../../arm-elf/lib/interwork/libc.a(lib_a-fdopen.o)
 .debug_loc     0x000078bd      0x186 /usr/local/arm-elf-tools/gcc-4.3.3/lib/gcc/arm-elf/4.3.3/../../../../arm-elf/lib/interwork/libc.a(lib_a-fflush.o)
 .debug_loc     0x00007a43      0x1f6 /usr/local/arm-elf-tools/gcc-4.3.3/lib/gcc/arm-elf/4.3.3/../../../../arm-elf/lib/interwork/libc.a(lib_a-fgets.o)
 .debug_loc     0x00007c39       0x3d /usr/local/arm-elf-tools/gcc-4.3.3/lib/gcc/arm-elf/4.3.3/../../../../arm-elf/lib/interwork/libc.a(lib_a-fileno.o)
 .debug_loc     0x00007c76      0x2db /usr/local/arm-elf-tools/gcc-4.3.3/lib/gcc/arm-elf/4.3.3/../../../../arm-elf/lib/interwork/libc.a(lib_a-findfp.o)
 .debug_loc     0x00007f51      0x102 /usr/local/arm-elf-tools/gcc-4.3.3/lib/gcc/arm-elf/4.3.3/../../../../arm-elf/lib/interwork/libc.a(lib_a-flags.o)
 .debug_loc     0x00008053       0xff /usr/local/arm-elf-tools/gcc-4.3.3/lib/gcc/arm-elf/4.3.3/../../../../arm-elf/lib/interwork/libc.a(lib_a-fopen.o)
 .debug_loc     0x00008152       0x9a /usr/local/arm-elf-tools/gcc-4.3.3/lib/gcc/arm-elf/4.3.3/../../../../arm-elf/lib/interwork/libc.a(lib_a-fprintf.o)
 .debug_loc     0x000081ec       0xd4 /usr/local/arm-elf-tools/gcc-4.3.3/lib/gcc/arm-elf/4.3.3/../../../../arm-elf/lib/interwork/libc.a(lib_a-fputc.o)
 .debug_loc     0x000082c0       0xb6 /usr/local/arm-elf-tools/gcc-4.3.3/lib/gcc/arm-elf/4.3.3/../../../../arm-elf/lib/interwork/libc.a(lib_a-fputs.o)
 .debug_loc     0x00008376      0x297 /usr/local/arm-elf-tools/gcc-4.3.3/lib/gcc/arm-elf/4.3.3/../../../../arm-elf/lib/interwork/libc.a(lib_a-fread.o)
 .debug_loc     0x0000860d      0x2ab /usr/local/arm-elf-tools/gcc-4.3.3/lib/gcc/arm-elf/4.3.3/../../../../arm-elf/lib/interwork/libc.a(lib_a-freer.o)
 .debug_loc     0x000088b8      0x1d9 /usr/local/arm-elf-tools/gcc-4.3.3/lib/gcc/arm-elf/4.3.3/../../../../arm-elf/lib/interwork/libc.a(lib_a-freopen.o)
 .debug_loc     0x00008a91       0x9a /usr/local/arm-elf-tools/gcc-4.3.3/lib/gcc/arm-elf/4.3.3/../../../../arm-elf/lib/interwork/libc.a(lib_a-fscanf.o)
 .debug_loc     0x00008b2b      0x2bb /usr/local/arm-elf-tools/gcc-4.3.3/lib/gcc/arm-elf/4.3.3/../../../../arm-elf/lib/interwork/libc.a(lib_a-fseek.o)
 .debug_loc     0x00008de6       0xa2 /usr/local/arm-elf-tools/gcc-4.3.3/lib/gcc/arm-elf/4.3.3/../../../../arm-elf/lib/interwork/libc.a(lib_a-ftell.o)
 .debug_loc     0x00008e88      0x42e /usr/local/arm-elf-tools/gcc-4.3.3/lib/gcc/arm-elf/4.3.3/../../../../arm-elf/lib/interwork/libc.a(lib_a-fvwrite.o)
 .debug_loc     0x000092b6       0xc1 /usr/local/arm-elf-tools/gcc-4.3.3/lib/gcc/arm-elf/4.3.3/../../../../arm-elf/lib/interwork/libc.a(lib_a-fwalk.o)
 .debug_loc     0x00009377      0x15a /usr/local/arm-elf-tools/gcc-4.3.3/lib/gcc/arm-elf/4.3.3/../../../../arm-elf/lib/interwork/libc.a(lib_a-fwrite.o)
 .debug_loc     0x000094d1       0xa4 /usr/local/arm-elf-tools/gcc-4.3.3/lib/gcc/arm-elf/4.3.3/../../../../arm-elf/lib/interwork/libc.a(lib_a-getenv.o)
 .debug_loc     0x00009575      0x132 /usr/local/arm-elf-tools/gcc-4.3.3/lib/gcc/arm-elf/4.3.3/../../../../arm-elf/lib/interwork/libc.a(lib_a-getenv_r.o)
 .debug_loc     0x000096a7       0x32 /usr/local/arm-elf-tools/gcc-4.3.3/lib/gcc/arm-elf/4.3.3/../../../../arm-elf/lib/interwork/libc.a(lib_a-gmtime.o)
 .debug_loc     0x000096d9       0x45 /usr/local/arm-elf-tools/gcc-4.3.3/lib/gcc/arm-elf/4.3.3/../../../../arm-elf/lib/interwork/libc.a(lib_a-gmtime_r.o)
 .debug_loc     0x0000971e       0x32 /usr/local/arm-elf-tools/gcc-4.3.3/lib/gcc/arm-elf/4.3.3/../../../../arm-elf/lib/interwork/libc.a(lib_a-lcltime.o)
 .debug_loc     0x00009750       0x45 /usr/local/arm-elf-tools/gcc-4.3.3/lib/gcc/arm-elf/4.3.3/../../../../arm-elf/lib/interwork/libc.a(lib_a-lcltime_r.o)
 .debug_loc     0x00009795       0xc8 /usr/local/arm-elf-tools/gcc-4.3.3/lib/gcc/arm-elf/4.3.3/../../../../arm-elf/lib/interwork/libc.a(lib_a-locale.o)
 .debug_loc     0x0000985d       0xcd /usr/local/arm-elf-tools/gcc-4.3.3/lib/gcc/arm-elf/4.3.3/../../../../arm-elf/lib/interwork/libc.a(lib_a-makebuf.o)
 .debug_loc     0x0000992a       0x7a /usr/local/arm-elf-tools/gcc-4.3.3/lib/gcc/arm-elf/4.3.3/../../../../arm-elf/lib/interwork/libc.a(lib_a-malloc.o)
 .debug_loc     0x000099a4      0x6fa /usr/local/arm-elf-tools/gcc-4.3.3/lib/gcc/arm-elf/4.3.3/../../../../arm-elf/lib/interwork/libc.a(lib_a-mallocr.o)
 .debug_loc     0x0000a09e      0x178 /usr/local/arm-elf-tools/gcc-4.3.3/lib/gcc/arm-elf/4.3.3/../../../../arm-elf/lib/interwork/libc.a(lib_a-memchr.o)
 .debug_loc     0x0000a216      0x102 /usr/local/arm-elf-tools/gcc-4.3.3/lib/gcc/arm-elf/4.3.3/../../../../arm-elf/lib/interwork/libc.a(lib_a-memcmp.o)
 .debug_loc     0x0000a318      0x130 /usr/local/arm-elf-tools/gcc-4.3.3/lib/gcc/arm-elf/4.3.3/../../../../arm-elf/lib/interwork/libc.a(lib_a-memcpy.o)
 .debug_loc     0x0000a448      0x193 /usr/local/arm-elf-tools/gcc-4.3.3/lib/gcc/arm-elf/4.3.3/../../../../arm-elf/lib/interwork/libc.a(lib_a-memmove.o)
 .debug_loc     0x0000a5db      0x154 /usr/local/arm-elf-tools/gcc-4.3.3/lib/gcc/arm-elf/4.3.3/../../../../arm-elf/lib/interwork/libc.a(lib_a-memset.o)
 .debug_loc     0x0000a72f      0x2ed /usr/local/arm-elf-tools/gcc-4.3.3/lib/gcc/arm-elf/4.3.3/../../../../arm-elf/lib/interwork/libc.a(lib_a-mktime.o)
 .debug_loc     0x0000aa1c      0x37c /usr/local/arm-elf-tools/gcc-4.3.3/lib/gcc/arm-elf/4.3.3/../../../../arm-elf/lib/interwork/libc.a(lib_a-mktm_r.o)
 .debug_loc     0x0000ad98       0x7c /usr/local/arm-elf-tools/gcc-4.3.3/lib/gcc/arm-elf/4.3.3/../../../../arm-elf/lib/interwork/libc.a(lib_a-printf.o)
 .debug_loc     0x0000ae14      0x110 /usr/local/arm-elf-tools/gcc-4.3.3/lib/gcc/arm-elf/4.3.3/../../../../arm-elf/lib/interwork/libc.a(lib_a-putc.o)
 .debug_loc     0x0000af24       0x1f /usr/local/arm-elf-tools/gcc-4.3.3/lib/gcc/arm-elf/4.3.3/../../../../arm-elf/lib/interwork/libc.a(lib_a-rand.o)
 .debug_loc     0x0000af43       0x5b /usr/local/arm-elf-tools/gcc-4.3.3/lib/gcc/arm-elf/4.3.3/../../../../arm-elf/lib/interwork/libc.a(lib_a-realloc.o)
 .debug_loc     0x0000af9e      0x725 /usr/local/arm-elf-tools/gcc-4.3.3/lib/gcc/arm-elf/4.3.3/../../../../arm-elf/lib/interwork/libc.a(lib_a-reallocr.o)
 .debug_loc     0x0000b6c3       0x8d /usr/local/arm-elf-tools/gcc-4.3.3/lib/gcc/arm-elf/4.3.3/../../../../arm-elf/lib/interwork/libc.a(lib_a-refill.o)
 .debug_loc     0x0000b750       0x82 /usr/local/arm-elf-tools/gcc-4.3.3/lib/gcc/arm-elf/4.3.3/../../../../arm-elf/lib/interwork/libc.a(lib_a-remove.o)
 .debug_loc     0x0000b7d2       0x79 /usr/local/arm-elf-tools/gcc-4.3.3/lib/gcc/arm-elf/4.3.3/../../../../arm-elf/lib/interwork/libc.a(lib_a-rget.o)
 .debug_loc     0x0000b84b       0xe1 /usr/local/arm-elf-tools/gcc-4.3.3/lib/gcc/arm-elf/4.3.3/../../../../arm-elf/lib/interwork/libc.a(lib_a-setvbuf.o)
 .debug_loc     0x0000b92c      0x2a1 /usr/local/arm-elf-tools/gcc-4.3.3/lib/gcc/arm-elf/4.3.3/../../../../arm-elf/lib/interwork/libc.a(lib_a-signal.o)
 .debug_loc     0x0000bbcd      0x142 /usr/local/arm-elf-tools/gcc-4.3.3/lib/gcc/arm-elf/4.3.3/../../../../arm-elf/lib/interwork/libc.a(lib_a-snprintf.o)
 .debug_loc     0x0000bd0f       0xbf /usr/local/arm-elf-tools/gcc-4.3.3/lib/gcc/arm-elf/4.3.3/../../../../arm-elf/lib/interwork/libc.a(lib_a-sprintf.o)
 .debug_loc     0x0000bdce      0x1ee /usr/local/arm-elf-tools/gcc-4.3.3/lib/gcc/arm-elf/4.3.3/../../../../arm-elf/lib/interwork/libc.a(lib_a-stdio.o)
 .debug_loc     0x0000bfbc       0x79 /usr/local/arm-elf-tools/gcc-4.3.3/lib/gcc/arm-elf/4.3.3/../../../../arm-elf/lib/interwork/libc.a(lib_a-strcat.o)
 .debug_loc     0x0000c035       0xd6 /usr/local/arm-elf-tools/gcc-4.3.3/lib/gcc/arm-elf/4.3.3/../../../../arm-elf/lib/interwork/libc.a(lib_a-strchr.o)
 .debug_loc     0x0000c10b       0xba /usr/local/arm-elf-tools/gcc-4.3.3/lib/gcc/arm-elf/4.3.3/../../../../arm-elf/lib/interwork/libc.a(lib_a-strcmp.o)
 .debug_loc     0x0000c1c5       0x45 /usr/local/arm-elf-tools/gcc-4.3.3/lib/gcc/arm-elf/4.3.3/../../../../arm-elf/lib/interwork/libc.a(lib_a-strcoll.o)
 .debug_loc     0x0000c20a       0xaa /usr/local/arm-elf-tools/gcc-4.3.3/lib/gcc/arm-elf/4.3.3/../../../../arm-elf/lib/interwork/libc.a(lib_a-strcpy.o)
 .debug_loc     0x0000c2b4       0x71 /usr/local/arm-elf-tools/gcc-4.3.3/lib/gcc/arm-elf/4.3.3/../../../../arm-elf/lib/interwork/libc.a(lib_a-strcspn.o)
 .debug_loc     0x0000c325      0x7d5 /usr/local/arm-elf-tools/gcc-4.3.3/lib/gcc/arm-elf/4.3.3/../../../../arm-elf/lib/interwork/libc.a(lib_a-strerror.o)
 .debug_loc     0x0000cafa      0xcc5 /usr/local/arm-elf-tools/gcc-4.3.3/lib/gcc/arm-elf/4.3.3/../../../../arm-elf/lib/interwork/libc.a(lib_a-strftime.o)
 .debug_loc     0x0000d7bf       0x5d /usr/local/arm-elf-tools/gcc-4.3.3/lib/gcc/arm-elf/4.3.3/../../../../arm-elf/lib/interwork/libc.a(lib_a-strlen.o)
 .debug_loc     0x0000d81c       0xad /usr/local/arm-elf-tools/gcc-4.3.3/lib/gcc/arm-elf/4.3.3/../../../../arm-elf/lib/interwork/libc.a(lib_a-strncat.o)
 .debug_loc     0x0000d8c9      0x105 /usr/local/arm-elf-tools/gcc-4.3.3/lib/gcc/arm-elf/4.3.3/../../../../arm-elf/lib/interwork/libc.a(lib_a-strncmp.o)
 .debug_loc     0x0000d9ce      0x128 /usr/local/arm-elf-tools/gcc-4.3.3/lib/gcc/arm-elf/4.3.3/../../../../arm-elf/lib/interwork/libc.a(lib_a-strncpy.o)
 .debug_loc     0x0000daf6       0x4a /usr/local/arm-elf-tools/gcc-4.3.3/lib/gcc/arm-elf/4.3.3/../../../../arm-elf/lib/interwork/libc.a(lib_a-strnlen.o)
 .debug_loc     0x0000db40       0x3d /usr/local/arm-elf-tools/gcc-4.3.3/lib/gcc/arm-elf/4.3.3/../../../../arm-elf/lib/interwork/libc.a(lib_a-strpbrk.o)
 .debug_loc     0x0000db7d       0x87 /usr/local/arm-elf-tools/gcc-4.3.3/lib/gcc/arm-elf/4.3.3/../../../../arm-elf/lib/interwork/libc.a(lib_a-strrchr.o)
 .debug_loc     0x0000dc04      0x76e /usr/local/arm-elf-tools/gcc-4.3.3/lib/gcc/arm-elf/4.3.3/../../../../arm-elf/lib/interwork/libc.a(lib_a-strstr.o)
 .debug_loc     0x0000e372     0x1e0e /usr/local/arm-elf-tools/gcc-4.3.3/lib/gcc/arm-elf/4.3.3/../../../../arm-elf/lib/interwork/libc.a(lib_a-strtod.o)
 .debug_loc     0x00010180      0x1dc /usr/local/arm-elf-tools/gcc-4.3.3/lib/gcc/arm-elf/4.3.3/../../../../arm-elf/lib/interwork/libc.a(lib_a-strtoul.o)
 .debug_loc     0x0001035c     0x2304 /usr/local/arm-elf-tools/gcc-4.3.3/lib/gcc/arm-elf/4.3.3/../../../../arm-elf/lib/interwork/libc.a(lib_a-svfprintf.o)
 .debug_loc     0x00012660       0x3d /usr/local/arm-elf-tools/gcc-4.3.3/lib/gcc/arm-elf/4.3.3/../../../../arm-elf/lib/interwork/libc.a(lib_a-sysclose.o)
 .debug_loc     0x0001269d       0x5b /usr/local/arm-elf-tools/gcc-4.3.3/lib/gcc/arm-elf/4.3.3/../../../../arm-elf/lib/interwork/libc.a(lib_a-sysgettod.o)
 .debug_loc     0x000126f8       0x49 /usr/local/arm-elf-tools/gcc-4.3.3/lib/gcc/arm-elf/4.3.3/../../../../arm-elf/lib/interwork/libc.a(lib_a-sysopen.o)
 .debug_loc     0x00012741       0x79 /usr/local/arm-elf-tools/gcc-4.3.3/lib/gcc/arm-elf/4.3.3/../../../../arm-elf/lib/interwork/libc.a(lib_a-sysread.o)
 .debug_loc     0x000127ba       0x84 /usr/local/arm-elf-tools/gcc-4.3.3/lib/gcc/arm-elf/4.3.3/../../../../arm-elf/lib/interwork/libc.a(lib_a-system.o)
 .debug_loc     0x0001283e       0x3d /usr/local/arm-elf-tools/gcc-4.3.3/lib/gcc/arm-elf/4.3.3/../../../../arm-elf/lib/interwork/libc.a(lib_a-sysunlink.o)
 .debug_loc     0x0001287b       0x79 /usr/local/arm-elf-tools/gcc-4.3.3/lib/gcc/arm-elf/4.3.3/../../../../arm-elf/lib/interwork/libc.a(lib_a-syswrite.o)
 .debug_loc     0x000128f4       0x49 /usr/local/arm-elf-tools/gcc-4.3.3/lib/gcc/arm-elf/4.3.3/../../../../arm-elf/lib/interwork/libc.a(lib_a-time.o)
 .debug_loc     0x0001293d       0x45 /usr/local/arm-elf-tools/gcc-4.3.3/lib/gcc/arm-elf/4.3.3/../../../../arm-elf/lib/interwork/libc.a(lib_a-timesr.o)
 .debug_loc     0x00012982       0x86 /usr/local/arm-elf-tools/gcc-4.3.3/lib/gcc/arm-elf/4.3.3/../../../../arm-elf/lib/interwork/libc.a(lib_a-tmpfile.o)
 .debug_loc     0x00012a08      0x24d /usr/local/arm-elf-tools/gcc-4.3.3/lib/gcc/arm-elf/4.3.3/../../../../arm-elf/lib/interwork/libc.a(lib_a-tmpnam.o)
 .debug_loc     0x00012c55      0x16d /usr/local/arm-elf-tools/gcc-4.3.3/lib/gcc/arm-elf/4.3.3/../../../../arm-elf/lib/interwork/libc.a(lib_a-ungetc.o)
 .debug_loc     0x00012dc2       0x13 /usr/local/arm-elf-tools/gcc-4.3.3/lib/gcc/arm-elf/4.3.3/../../../../arm-elf/lib/interwork/libc.a(lib_a-u_strerr.o)
 .debug_loc     0x00012dd5     0x209a /usr/local/arm-elf-tools/gcc-4.3.3/lib/gcc/arm-elf/4.3.3/../../../../arm-elf/lib/interwork/libc.a(lib_a-vfprintf.o)
 .debug_loc     0x00014e6f     0x14c7 /usr/local/arm-elf-tools/gcc-4.3.3/lib/gcc/arm-elf/4.3.3/../../../../arm-elf/lib/interwork/libc.a(lib_a-vfscanf.o)
 .debug_loc     0x00016336      0x165 /usr/local/arm-elf-tools/gcc-4.3.3/lib/gcc/arm-elf/4.3.3/../../../../arm-elf/lib/interwork/libc.a(lib_a-vsnprintf.o)
 .debug_loc     0x0001649b       0xc8 /usr/local/arm-elf-tools/gcc-4.3.3/lib/gcc/arm-elf/4.3.3/../../../../arm-elf/lib/interwork/libc.a(lib_a-wbuf.o)
 .debug_loc     0x00016563       0x5b /usr/local/arm-elf-tools/gcc-4.3.3/lib/gcc/arm-elf/4.3.3/../../../../arm-elf/lib/interwork/libc.a(lib_a-wsetup.o)
 .debug_loc     0x000165be       0x13 /usr/local/arm-elf-tools/gcc-4.3.3/lib/gcc/arm-elf/4.3.3/../../../../arm-elf/lib/interwork/libc.a(lib_a-abs.o)
 .debug_loc     0x000165d1      0x125 /usr/local/arm-elf-tools/gcc-4.3.3/lib/gcc/arm-elf/4.3.3/../../../../arm-elf/lib/interwork/libc.a(lib_a-__call_atexit.o)
 .debug_loc     0x000166f6       0x5b /usr/local/arm-elf-tools/gcc-4.3.3/lib/gcc/arm-elf/4.3.3/../../../../arm-elf/lib/interwork/libc.a(lib_a-div.o)
 .debug_loc     0x00016751     0x1d51 /usr/local/arm-elf-tools/gcc-4.3.3/lib/gcc/arm-elf/4.3.3/../../../../arm-elf/lib/interwork/libc.a(lib_a-dtoa.o)
 .debug_loc     0x000184a2      0x957 /usr/local/arm-elf-tools/gcc-4.3.3/lib/gcc/arm-elf/4.3.3/../../../../arm-elf/lib/interwork/libc.a(lib_a-gdtoa-gethex.o)
 .debug_loc     0x00018df9      0x3c7 /usr/local/arm-elf-tools/gcc-4.3.3/lib/gcc/arm-elf/4.3.3/../../../../arm-elf/lib/interwork/libc.a(lib_a-gdtoa-hexnan.o)
 .debug_loc     0x000191c0       0x76 /usr/local/arm-elf-tools/gcc-4.3.3/lib/gcc/arm-elf/4.3.3/../../../../arm-elf/lib/interwork/libc.a(lib_a-gettimeofdayr.o)
 .debug_loc     0x00019236       0x63 /usr/local/arm-elf-tools/gcc-4.3.3/lib/gcc/arm-elf/4.3.3/../../../../arm-elf/lib/interwork/libc.a(lib_a-isattyr.o)
 .debug_loc     0x00019299       0x13 /usr/local/arm-elf-tools/gcc-4.3.3/lib/gcc/arm-elf/4.3.3/../../../../arm-elf/lib/interwork/libc.a(lib_a-iswspace.o)
 .debug_loc     0x000192ac       0x13 /usr/local/arm-elf-tools/gcc-4.3.3/lib/gcc/arm-elf/4.3.3/../../../../arm-elf/lib/interwork/libc.a(lib_a-labs.o)
 .debug_loc     0x000192bf      0x178 /usr/local/arm-elf-tools/gcc-4.3.3/lib/gcc/arm-elf/4.3.3/../../../../arm-elf/lib/interwork/libc.a(lib_a-mbrtowc.o)
 .debug_loc     0x00019437       0x8f /usr/local/arm-elf-tools/gcc-4.3.3/lib/gcc/arm-elf/4.3.3/../../../../arm-elf/lib/interwork/libc.a(lib_a-mbtowc_r.o)
 .debug_loc     0x000194c6     0x10fc /usr/local/arm-elf-tools/gcc-4.3.3/lib/gcc/arm-elf/4.3.3/../../../../arm-elf/lib/interwork/libc.a(lib_a-mprec.o)
 .debug_loc     0x0001a5c2      0x187 /usr/local/arm-elf-tools/gcc-4.3.3/lib/gcc/arm-elf/4.3.3/../../../../arm-elf/lib/interwork/libc.a(lib_a-reent.o)
 .debug_loc     0x0001a749       0xc3 /usr/local/arm-elf-tools/gcc-4.3.3/lib/gcc/arm-elf/4.3.3/../../../../arm-elf/lib/interwork/libc.a(lib_a-sccl.o)
 .debug_loc     0x0001a80c       0x13 /usr/local/arm-elf-tools/gcc-4.3.3/lib/gcc/arm-elf/4.3.3/../../../../arm-elf/lib/interwork/libc.a(lib_a-sf_nan.o)
 .debug_loc     0x0001a81f       0x4f /usr/local/arm-elf-tools/gcc-4.3.3/lib/gcc/arm-elf/4.3.3/../../../../arm-elf/lib/interwork/libc.a(lib_a-s_isinfd.o)
 .debug_loc     0x0001a86e      0x210 /usr/local/arm-elf-tools/gcc-4.3.3/lib/gcc/arm-elf/4.3.3/../../../../arm-elf/lib/interwork/libc.a(lib_a-strtol.o)

.debug_pubnames
                0x00000000     0x1f27
 .debug_pubnames
                0x00000000       0x1b /usr/local/arm-elf-tools/gcc-4.3.3/lib/gcc/arm-elf/4.3.3/../../../../arm-elf/lib/interwork/libm.a(lib_a-s_atan.o)
 .debug_pubnames
                0x0000001b       0x1b /usr/local/arm-elf-tools/gcc-4.3.3/lib/gcc/arm-elf/4.3.3/../../../../arm-elf/lib/interwork/libm.a(lib_a-s_ceil.o)
 .debug_pubnames
                0x00000036       0x1a /usr/local/arm-elf-tools/gcc-4.3.3/lib/gcc/arm-elf/4.3.3/../../../../arm-elf/lib/interwork/libm.a(lib_a-s_cos.o)
 .debug_pubnames
                0x00000050       0x1b /usr/local/arm-elf-tools/gcc-4.3.3/lib/gcc/arm-elf/4.3.3/../../../../arm-elf/lib/interwork/libm.a(lib_a-s_fabs.o)
 .debug_pubnames
                0x0000006b       0x1c /usr/local/arm-elf-tools/gcc-4.3.3/lib/gcc/arm-elf/4.3.3/../../../../arm-elf/lib/interwork/libm.a(lib_a-s_floor.o)
 .debug_pubnames
                0x00000087       0x1c /usr/local/arm-elf-tools/gcc-4.3.3/lib/gcc/arm-elf/4.3.3/../../../../arm-elf/lib/interwork/libm.a(lib_a-s_frexp.o)
 .debug_pubnames
                0x000000a3       0x1c /usr/local/arm-elf-tools/gcc-4.3.3/lib/gcc/arm-elf/4.3.3/../../../../arm-elf/lib/interwork/libm.a(lib_a-s_ldexp.o)
 .debug_pubnames
                0x000000bf       0x1b /usr/local/arm-elf-tools/gcc-4.3.3/lib/gcc/arm-elf/4.3.3/../../../../arm-elf/lib/interwork/libm.a(lib_a-s_modf.o)
 .debug_pubnames
                0x000000da       0x1d /usr/local/arm-elf-tools/gcc-4.3.3/lib/gcc/arm-elf/4.3.3/../../../../arm-elf/lib/interwork/libm.a(lib_a-s_scalbn.o)
 .debug_pubnames
                0x000000f7       0x1a /usr/local/arm-elf-tools/gcc-4.3.3/lib/gcc/arm-elf/4.3.3/../../../../arm-elf/lib/interwork/libm.a(lib_a-s_sin.o)
 .debug_pubnames
                0x00000111       0x1b /usr/local/arm-elf-tools/gcc-4.3.3/lib/gcc/arm-elf/4.3.3/../../../../arm-elf/lib/interwork/libm.a(lib_a-s_tanh.o)
 .debug_pubnames
                0x0000012c       0x1a /usr/local/arm-elf-tools/gcc-4.3.3/lib/gcc/arm-elf/4.3.3/../../../../arm-elf/lib/interwork/libm.a(lib_a-s_tan.o)
 .debug_pubnames
                0x00000146       0x1b /usr/local/arm-elf-tools/gcc-4.3.3/lib/gcc/arm-elf/4.3.3/../../../../arm-elf/lib/interwork/libm.a(lib_a-w_acos.o)
 .debug_pubnames
                0x00000161       0x1b /usr/local/arm-elf-tools/gcc-4.3.3/lib/gcc/arm-elf/4.3.3/../../../../arm-elf/lib/interwork/libm.a(lib_a-w_asin.o)
 .debug_pubnames
                0x0000017c       0x1c /usr/local/arm-elf-tools/gcc-4.3.3/lib/gcc/arm-elf/4.3.3/../../../../arm-elf/lib/interwork/libm.a(lib_a-w_atan2.o)
 .debug_pubnames
                0x00000198       0x1b /usr/local/arm-elf-tools/gcc-4.3.3/lib/gcc/arm-elf/4.3.3/../../../../arm-elf/lib/interwork/libm.a(lib_a-w_cosh.o)
 .debug_pubnames
                0x000001b3       0x1a /usr/local/arm-elf-tools/gcc-4.3.3/lib/gcc/arm-elf/4.3.3/../../../../arm-elf/lib/interwork/libm.a(lib_a-w_exp.o)
 .debug_pubnames
                0x000001cd       0x1b /usr/local/arm-elf-tools/gcc-4.3.3/lib/gcc/arm-elf/4.3.3/../../../../arm-elf/lib/interwork/libm.a(lib_a-w_fmod.o)
 .debug_pubnames
                0x000001e8       0x1c /usr/local/arm-elf-tools/gcc-4.3.3/lib/gcc/arm-elf/4.3.3/../../../../arm-elf/lib/interwork/libm.a(lib_a-w_log10.o)
 .debug_pubnames
                0x00000204       0x1a /usr/local/arm-elf-tools/gcc-4.3.3/lib/gcc/arm-elf/4.3.3/../../../../arm-elf/lib/interwork/libm.a(lib_a-w_log.o)
 .debug_pubnames
                0x0000021e       0x1a /usr/local/arm-elf-tools/gcc-4.3.3/lib/gcc/arm-elf/4.3.3/../../../../arm-elf/lib/interwork/libm.a(lib_a-w_pow.o)
 .debug_pubnames
                0x00000238       0x1b /usr/local/arm-elf-tools/gcc-4.3.3/lib/gcc/arm-elf/4.3.3/../../../../arm-elf/lib/interwork/libm.a(lib_a-w_sinh.o)
 .debug_pubnames
                0x00000253       0x1b /usr/local/arm-elf-tools/gcc-4.3.3/lib/gcc/arm-elf/4.3.3/../../../../arm-elf/lib/interwork/libm.a(lib_a-w_sqrt.o)
 .debug_pubnames
                0x0000026e       0x25 /usr/local/arm-elf-tools/gcc-4.3.3/lib/gcc/arm-elf/4.3.3/../../../../arm-elf/lib/interwork/libm.a(lib_a-e_acos.o)
 .debug_pubnames
                0x00000293       0x25 /usr/local/arm-elf-tools/gcc-4.3.3/lib/gcc/arm-elf/4.3.3/../../../../arm-elf/lib/interwork/libm.a(lib_a-e_asin.o)
 .debug_pubnames
                0x000002b8       0x26 /usr/local/arm-elf-tools/gcc-4.3.3/lib/gcc/arm-elf/4.3.3/../../../../arm-elf/lib/interwork/libm.a(lib_a-e_atan2.o)
 .debug_pubnames
                0x000002de       0x25 /usr/local/arm-elf-tools/gcc-4.3.3/lib/gcc/arm-elf/4.3.3/../../../../arm-elf/lib/interwork/libm.a(lib_a-e_cosh.o)
 .debug_pubnames
                0x00000303       0x24 /usr/local/arm-elf-tools/gcc-4.3.3/lib/gcc/arm-elf/4.3.3/../../../../arm-elf/lib/interwork/libm.a(lib_a-e_exp.o)
 .debug_pubnames
                0x00000327       0x25 /usr/local/arm-elf-tools/gcc-4.3.3/lib/gcc/arm-elf/4.3.3/../../../../arm-elf/lib/interwork/libm.a(lib_a-e_fmod.o)
 .debug_pubnames
                0x0000034c       0x26 /usr/local/arm-elf-tools/gcc-4.3.3/lib/gcc/arm-elf/4.3.3/../../../../arm-elf/lib/interwork/libm.a(lib_a-e_log10.o)
 .debug_pubnames
                0x00000372       0x24 /usr/local/arm-elf-tools/gcc-4.3.3/lib/gcc/arm-elf/4.3.3/../../../../arm-elf/lib/interwork/libm.a(lib_a-e_log.o)
 .debug_pubnames
                0x00000396       0x24 /usr/local/arm-elf-tools/gcc-4.3.3/lib/gcc/arm-elf/4.3.3/../../../../arm-elf/lib/interwork/libm.a(lib_a-e_pow.o)
 .debug_pubnames
                0x000003ba       0x29 /usr/local/arm-elf-tools/gcc-4.3.3/lib/gcc/arm-elf/4.3.3/../../../../arm-elf/lib/interwork/libm.a(lib_a-e_rem_pio2.o)
 .debug_pubnames
                0x000003e3       0x25 /usr/local/arm-elf-tools/gcc-4.3.3/lib/gcc/arm-elf/4.3.3/../../../../arm-elf/lib/interwork/libm.a(lib_a-e_sinh.o)
 .debug_pubnames
                0x00000408       0x25 /usr/local/arm-elf-tools/gcc-4.3.3/lib/gcc/arm-elf/4.3.3/../../../../arm-elf/lib/interwork/libm.a(lib_a-e_sqrt.o)
 .debug_pubnames
                0x0000042d       0x23 /usr/local/arm-elf-tools/gcc-4.3.3/lib/gcc/arm-elf/4.3.3/../../../../arm-elf/lib/interwork/libm.a(lib_a-k_cos.o)
 .debug_pubnames
                0x00000450       0x28 /usr/local/arm-elf-tools/gcc-4.3.3/lib/gcc/arm-elf/4.3.3/../../../../arm-elf/lib/interwork/libm.a(lib_a-k_rem_pio2.o)
 .debug_pubnames
                0x00000478       0x23 /usr/local/arm-elf-tools/gcc-4.3.3/lib/gcc/arm-elf/4.3.3/../../../../arm-elf/lib/interwork/libm.a(lib_a-k_sin.o)
 .debug_pubnames
                0x0000049b       0x23 /usr/local/arm-elf-tools/gcc-4.3.3/lib/gcc/arm-elf/4.3.3/../../../../arm-elf/lib/interwork/libm.a(lib_a-k_tan.o)
 .debug_pubnames
                0x000004be       0x1f /usr/local/arm-elf-tools/gcc-4.3.3/lib/gcc/arm-elf/4.3.3/../../../../arm-elf/lib/interwork/libm.a(lib_a-s_copysign.o)
 .debug_pubnames
                0x000004dd       0x1c /usr/local/arm-elf-tools/gcc-4.3.3/lib/gcc/arm-elf/4.3.3/../../../../arm-elf/lib/interwork/libm.a(lib_a-s_expm1.o)
 .debug_pubnames
                0x000004f9       0x1d /usr/local/arm-elf-tools/gcc-4.3.3/lib/gcc/arm-elf/4.3.3/../../../../arm-elf/lib/interwork/libm.a(lib_a-s_finite.o)
 .debug_pubnames
                0x00000516       0x1f /usr/local/arm-elf-tools/gcc-4.3.3/lib/gcc/arm-elf/4.3.3/../../../../arm-elf/lib/interwork/libm.a(lib_a-s_isnand.o)
 .debug_pubnames
                0x00000535       0x26 /usr/local/arm-elf-tools/gcc-4.3.3/lib/gcc/arm-elf/4.3.3/../../../../arm-elf/lib/interwork/libm.a(lib_a-s_lib_ver.o)
 .debug_pubnames
                0x0000055b       0x1e /usr/local/arm-elf-tools/gcc-4.3.3/lib/gcc/arm-elf/4.3.3/../../../../arm-elf/lib/interwork/libm.a(lib_a-s_matherr.o)
 .debug_pubnames
                0x00000579       0x1a /usr/local/arm-elf-tools/gcc-4.3.3/lib/gcc/arm-elf/4.3.3/../../../../arm-elf/lib/interwork/libm.a(lib_a-s_nan.o)
 .debug_pubnames
                0x00000593       0x1b /usr/local/arm-elf-tools/gcc-4.3.3/lib/gcc/arm-elf/4.3.3/../../../../arm-elf/lib/interwork/libm.a(lib_a-s_rint.o)
 .debug_pubnames
                0x000005ae       0x23 /usr/local/arm-elf-tools/gcc-4.3.3/lib/gcc/arm-elf/4.3.3/interwork/libgcc.a(_fixunsdfsi.o)
 .debug_pubnames
                0x000005d1       0x1f /usr/local/arm-elf-tools/gcc-4.3.3/lib/gcc/arm-elf/4.3.3/interwork/libgcc.a(_mul_sf.o)
 .debug_pubnames
                0x000005f0       0x1f /usr/local/arm-elf-tools/gcc-4.3.3/lib/gcc/arm-elf/4.3.3/interwork/libgcc.a(_div_sf.o)
 .debug_pubnames
                0x0000060f       0x1e /usr/local/arm-elf-tools/gcc-4.3.3/lib/gcc/arm-elf/4.3.3/interwork/libgcc.a(_eq_sf.o)
 .debug_pubnames
                0x0000062d       0x22 /usr/local/arm-elf-tools/gcc-4.3.3/lib/gcc/arm-elf/4.3.3/interwork/libgcc.a(_si_to_sf.o)
 .debug_pubnames
                0x0000064f       0x24 /usr/local/arm-elf-tools/gcc-4.3.3/lib/gcc/arm-elf/4.3.3/interwork/libgcc.a(_sf_to_df.o)
 .debug_pubnames
                0x00000673       0x22 /usr/local/arm-elf-tools/gcc-4.3.3/lib/gcc/arm-elf/4.3.3/interwork/libgcc.a(_thenan_sf.o)
 .debug_pubnames
                0x00000695       0x24 /usr/local/arm-elf-tools/gcc-4.3.3/lib/gcc/arm-elf/4.3.3/interwork/libgcc.a(_usi_to_sf.o)
 .debug_pubnames
                0x000006b9       0x2c /usr/local/arm-elf-tools/gcc-4.3.3/lib/gcc/arm-elf/4.3.3/interwork/libgcc.a(_addsub_df.o)
 .debug_pubnames
                0x000006e5       0x1f /usr/local/arm-elf-tools/gcc-4.3.3/lib/gcc/arm-elf/4.3.3/interwork/libgcc.a(_mul_df.o)
 .debug_pubnames
                0x00000704       0x1f /usr/local/arm-elf-tools/gcc-4.3.3/lib/gcc/arm-elf/4.3.3/interwork/libgcc.a(_div_df.o)
 .debug_pubnames
                0x00000723       0x1e /usr/local/arm-elf-tools/gcc-4.3.3/lib/gcc/arm-elf/4.3.3/interwork/libgcc.a(_eq_df.o)
 .debug_pubnames
                0x00000741       0x1e /usr/local/arm-elf-tools/gcc-4.3.3/lib/gcc/arm-elf/4.3.3/interwork/libgcc.a(_ne_df.o)
 .debug_pubnames
                0x0000075f       0x1e /usr/local/arm-elf-tools/gcc-4.3.3/lib/gcc/arm-elf/4.3.3/interwork/libgcc.a(_gt_df.o)
 .debug_pubnames
                0x0000077d       0x1e /usr/local/arm-elf-tools/gcc-4.3.3/lib/gcc/arm-elf/4.3.3/interwork/libgcc.a(_ge_df.o)
 .debug_pubnames
                0x0000079b       0x1e /usr/local/arm-elf-tools/gcc-4.3.3/lib/gcc/arm-elf/4.3.3/interwork/libgcc.a(_lt_df.o)
 .debug_pubnames
                0x000007b9       0x1e /usr/local/arm-elf-tools/gcc-4.3.3/lib/gcc/arm-elf/4.3.3/interwork/libgcc.a(_le_df.o)
 .debug_pubnames
                0x000007d7       0x22 /usr/local/arm-elf-tools/gcc-4.3.3/lib/gcc/arm-elf/4.3.3/interwork/libgcc.a(_si_to_df.o)
 .debug_pubnames
                0x000007f9       0x20 /usr/local/arm-elf-tools/gcc-4.3.3/lib/gcc/arm-elf/4.3.3/interwork/libgcc.a(_df_to_si.o)
 .debug_pubnames
                0x00000819       0x20 /usr/local/arm-elf-tools/gcc-4.3.3/lib/gcc/arm-elf/4.3.3/interwork/libgcc.a(_make_df.o)
 .debug_pubnames
                0x00000839       0x23 /usr/local/arm-elf-tools/gcc-4.3.3/lib/gcc/arm-elf/4.3.3/interwork/libgcc.a(_df_to_sf.o)
 .debug_pubnames
                0x0000085c       0x22 /usr/local/arm-elf-tools/gcc-4.3.3/lib/gcc/arm-elf/4.3.3/interwork/libgcc.a(_thenan_df.o)
 .debug_pubnames
                0x0000087e       0x24 /usr/local/arm-elf-tools/gcc-4.3.3/lib/gcc/arm-elf/4.3.3/interwork/libgcc.a(_usi_to_df.o)
 .debug_pubnames
                0x000008a2       0x20 /usr/local/arm-elf-tools/gcc-4.3.3/lib/gcc/arm-elf/4.3.3/interwork/libgcc.a(_ucmpdi2.o)
 .debug_pubnames
                0x000008c2       0x1f /usr/local/arm-elf-tools/gcc-4.3.3/lib/gcc/arm-elf/4.3.3/interwork/libgcc.a(_clzsi2.o)
 .debug_pubnames
                0x000008e1       0x1f /usr/local/arm-elf-tools/gcc-4.3.3/lib/gcc/arm-elf/4.3.3/interwork/libgcc.a(_pack_sf.o)
 .debug_pubnames
                0x00000900       0x21 /usr/local/arm-elf-tools/gcc-4.3.3/lib/gcc/arm-elf/4.3.3/interwork/libgcc.a(_unpack_sf.o)
 .debug_pubnames
                0x00000921       0x26 /usr/local/arm-elf-tools/gcc-4.3.3/lib/gcc/arm-elf/4.3.3/interwork/libgcc.a(_fpcmp_parts_sf.o)
 .debug_pubnames
                0x00000947       0x20 /usr/local/arm-elf-tools/gcc-4.3.3/lib/gcc/arm-elf/4.3.3/interwork/libgcc.a(_make_sf.o)
 .debug_pubnames
                0x00000967       0x1f /usr/local/arm-elf-tools/gcc-4.3.3/lib/gcc/arm-elf/4.3.3/interwork/libgcc.a(_pack_df.o)
 .debug_pubnames
                0x00000986       0x21 /usr/local/arm-elf-tools/gcc-4.3.3/lib/gcc/arm-elf/4.3.3/interwork/libgcc.a(_unpack_df.o)
 .debug_pubnames
                0x000009a7       0x26 /usr/local/arm-elf-tools/gcc-4.3.3/lib/gcc/arm-elf/4.3.3/interwork/libgcc.a(_fpcmp_parts_df.o)
 .debug_pubnames
                0x000009cd       0x20 /usr/local/arm-elf-tools/gcc-4.3.3/lib/gcc/arm-elf/4.3.3/interwork/libgcc.a(_clz.o)
 .debug_pubnames
                0x000009ed       0x1c /usr/local/arm-elf-tools/gcc-4.3.3/lib/gcc/arm-elf/4.3.3/../../../../arm-elf/lib/interwork/libc.a(lib_a-abort.o)
 .debug_pubnames
                0x00000a09       0x1d /usr/local/arm-elf-tools/gcc-4.3.3/lib/gcc/arm-elf/4.3.3/../../../../arm-elf/lib/interwork/libc.a(lib_a-calloc.o)
 .debug_pubnames
                0x00000a26       0x20 /usr/local/arm-elf-tools/gcc-4.3.3/lib/gcc/arm-elf/4.3.3/../../../../arm-elf/lib/interwork/libc.a(lib_a-callocr.o)
 .debug_pubnames
                0x00000a46       0x1c /usr/local/arm-elf-tools/gcc-4.3.3/lib/gcc/arm-elf/4.3.3/../../../../arm-elf/lib/interwork/libc.a(lib_a-clock.o)
 .debug_pubnames
                0x00000a62       0x40 /usr/local/arm-elf-tools/gcc-4.3.3/lib/gcc/arm-elf/4.3.3/../../../../arm-elf/lib/interwork/libc.a(lib_a-ctype_.o)
 .debug_pubnames
                0x00000aa2       0x1f /usr/local/arm-elf-tools/gcc-4.3.3/lib/gcc/arm-elf/4.3.3/../../../../arm-elf/lib/interwork/libc.a(lib_a-difftime.o)
 .debug_pubnames
                0x00000ac1       0x1e /usr/local/arm-elf-tools/gcc-4.3.3/lib/gcc/arm-elf/4.3.3/../../../../arm-elf/lib/interwork/libc.a(lib_a-errno.o)
 .debug_pubnames
                0x00000adf       0x1b /usr/local/arm-elf-tools/gcc-4.3.3/lib/gcc/arm-elf/4.3.3/../../../../arm-elf/lib/interwork/libc.a(lib_a-exit.o)
 .debug_pubnames
                0x00000afa       0x2b /usr/local/arm-elf-tools/gcc-4.3.3/lib/gcc/arm-elf/4.3.3/../../../../arm-elf/lib/interwork/libc.a(lib_a-fclose.o)
 .debug_pubnames
                0x00000b25       0x2b /usr/local/arm-elf-tools/gcc-4.3.3/lib/gcc/arm-elf/4.3.3/../../../../arm-elf/lib/interwork/libc.a(lib_a-fdopen.o)
 .debug_pubnames
                0x00000b50       0x2b /usr/local/arm-elf-tools/gcc-4.3.3/lib/gcc/arm-elf/4.3.3/../../../../arm-elf/lib/interwork/libc.a(lib_a-fflush.o)
 .debug_pubnames
                0x00000b7b       0x29 /usr/local/arm-elf-tools/gcc-4.3.3/lib/gcc/arm-elf/4.3.3/../../../../arm-elf/lib/interwork/libc.a(lib_a-fgets.o)
 .debug_pubnames
                0x00000ba4       0x1d /usr/local/arm-elf-tools/gcc-4.3.3/lib/gcc/arm-elf/4.3.3/../../../../arm-elf/lib/interwork/libc.a(lib_a-fileno.o)
 .debug_pubnames
                0x00000bc1       0xdb /usr/local/arm-elf-tools/gcc-4.3.3/lib/gcc/arm-elf/4.3.3/../../../../arm-elf/lib/interwork/libc.a(lib_a-findfp.o)
 .debug_pubnames
                0x00000c9c       0x1f /usr/local/arm-elf-tools/gcc-4.3.3/lib/gcc/arm-elf/4.3.3/../../../../arm-elf/lib/interwork/libc.a(lib_a-flags.o)
 .debug_pubnames
                0x00000cbb       0x29 /usr/local/arm-elf-tools/gcc-4.3.3/lib/gcc/arm-elf/4.3.3/../../../../arm-elf/lib/interwork/libc.a(lib_a-fopen.o)
 .debug_pubnames
                0x00000ce4       0x2d /usr/local/arm-elf-tools/gcc-4.3.3/lib/gcc/arm-elf/4.3.3/../../../../arm-elf/lib/interwork/libc.a(lib_a-fprintf.o)
 .debug_pubnames
                0x00000d11       0x29 /usr/local/arm-elf-tools/gcc-4.3.3/lib/gcc/arm-elf/4.3.3/../../../../arm-elf/lib/interwork/libc.a(lib_a-fputc.o)
 .debug_pubnames
                0x00000d3a       0x29 /usr/local/arm-elf-tools/gcc-4.3.3/lib/gcc/arm-elf/4.3.3/../../../../arm-elf/lib/interwork/libc.a(lib_a-fputs.o)
 .debug_pubnames
                0x00000d63       0x29 /usr/local/arm-elf-tools/gcc-4.3.3/lib/gcc/arm-elf/4.3.3/../../../../arm-elf/lib/interwork/libc.a(lib_a-fread.o)
 .debug_pubnames
                0x00000d8c       0x31 /usr/local/arm-elf-tools/gcc-4.3.3/lib/gcc/arm-elf/4.3.3/../../../../arm-elf/lib/interwork/libc.a(lib_a-freer.o)
 .debug_pubnames
                0x00000dbd       0x2d /usr/local/arm-elf-tools/gcc-4.3.3/lib/gcc/arm-elf/4.3.3/../../../../arm-elf/lib/interwork/libc.a(lib_a-freopen.o)
 .debug_pubnames
                0x00000dea       0x2b /usr/local/arm-elf-tools/gcc-4.3.3/lib/gcc/arm-elf/4.3.3/../../../../arm-elf/lib/interwork/libc.a(lib_a-fscanf.o)
 .debug_pubnames
                0x00000e15       0x29 /usr/local/arm-elf-tools/gcc-4.3.3/lib/gcc/arm-elf/4.3.3/../../../../arm-elf/lib/interwork/libc.a(lib_a-fseek.o)
 .debug_pubnames
                0x00000e3e       0x29 /usr/local/arm-elf-tools/gcc-4.3.3/lib/gcc/arm-elf/4.3.3/../../../../arm-elf/lib/interwork/libc.a(lib_a-ftell.o)
 .debug_pubnames
                0x00000e67       0x23 /usr/local/arm-elf-tools/gcc-4.3.3/lib/gcc/arm-elf/4.3.3/../../../../arm-elf/lib/interwork/libc.a(lib_a-fvwrite.o)
 .debug_pubnames
                0x00000e8a       0x2e /usr/local/arm-elf-tools/gcc-4.3.3/lib/gcc/arm-elf/4.3.3/../../../../arm-elf/lib/interwork/libc.a(lib_a-fwalk.o)
 .debug_pubnames
                0x00000eb8       0x2b /usr/local/arm-elf-tools/gcc-4.3.3/lib/gcc/arm-elf/4.3.3/../../../../arm-elf/lib/interwork/libc.a(lib_a-fwrite.o)
 .debug_pubnames
                0x00000ee3       0x2a /usr/local/arm-elf-tools/gcc-4.3.3/lib/gcc/arm-elf/4.3.3/../../../../arm-elf/lib/interwork/libc.a(lib_a-getenv.o)
 .debug_pubnames
                0x00000f0d       0x2f /usr/local/arm-elf-tools/gcc-4.3.3/lib/gcc/arm-elf/4.3.3/../../../../arm-elf/lib/interwork/libc.a(lib_a-getenv_r.o)
 .debug_pubnames
                0x00000f3c       0x1d /usr/local/arm-elf-tools/gcc-4.3.3/lib/gcc/arm-elf/4.3.3/../../../../arm-elf/lib/interwork/libc.a(lib_a-gmtime.o)
 .debug_pubnames
                0x00000f59       0x1f /usr/local/arm-elf-tools/gcc-4.3.3/lib/gcc/arm-elf/4.3.3/../../../../arm-elf/lib/interwork/libc.a(lib_a-gmtime_r.o)
 .debug_pubnames
                0x00000f78       0x39 /usr/local/arm-elf-tools/gcc-4.3.3/lib/gcc/arm-elf/4.3.3/../../../../arm-elf/lib/interwork/libc.a(lib_a-impure.o)
 .debug_pubnames
                0x00000fb1       0x20 /usr/local/arm-elf-tools/gcc-4.3.3/lib/gcc/arm-elf/4.3.3/../../../../arm-elf/lib/interwork/libc.a(lib_a-lcltime.o)
 .debug_pubnames
                0x00000fd1       0x22 /usr/local/arm-elf-tools/gcc-4.3.3/lib/gcc/arm-elf/4.3.3/../../../../arm-elf/lib/interwork/libc.a(lib_a-lcltime_r.o)
 .debug_pubnames
                0x00000ff3       0xc3 /usr/local/arm-elf-tools/gcc-4.3.3/lib/gcc/arm-elf/4.3.3/../../../../arm-elf/lib/interwork/libc.a(lib_a-locale.o)
 .debug_pubnames
                0x000010b6       0x23 /usr/local/arm-elf-tools/gcc-4.3.3/lib/gcc/arm-elf/4.3.3/../../../../arm-elf/lib/interwork/libc.a(lib_a-makebuf.o)
 .debug_pubnames
                0x000010d9       0x26 /usr/local/arm-elf-tools/gcc-4.3.3/lib/gcc/arm-elf/4.3.3/../../../../arm-elf/lib/interwork/libc.a(lib_a-malloc.o)
 .debug_pubnames
                0x000010ff       0xce /usr/local/arm-elf-tools/gcc-4.3.3/lib/gcc/arm-elf/4.3.3/../../../../arm-elf/lib/interwork/libc.a(lib_a-mallocr.o)
 .debug_pubnames
                0x000011cd       0x1d /usr/local/arm-elf-tools/gcc-4.3.3/lib/gcc/arm-elf/4.3.3/../../../../arm-elf/lib/interwork/libc.a(lib_a-memchr.o)
 .debug_pubnames
                0x000011ea       0x1d /usr/local/arm-elf-tools/gcc-4.3.3/lib/gcc/arm-elf/4.3.3/../../../../arm-elf/lib/interwork/libc.a(lib_a-memcmp.o)
 .debug_pubnames
                0x00001207       0x1d /usr/local/arm-elf-tools/gcc-4.3.3/lib/gcc/arm-elf/4.3.3/../../../../arm-elf/lib/interwork/libc.a(lib_a-memcpy.o)
 .debug_pubnames
                0x00001224       0x1e /usr/local/arm-elf-tools/gcc-4.3.3/lib/gcc/arm-elf/4.3.3/../../../../arm-elf/lib/interwork/libc.a(lib_a-memmove.o)
 .debug_pubnames
                0x00001242       0x1d /usr/local/arm-elf-tools/gcc-4.3.3/lib/gcc/arm-elf/4.3.3/../../../../arm-elf/lib/interwork/libc.a(lib_a-memset.o)
 .debug_pubnames
                0x0000125f       0x1d /usr/local/arm-elf-tools/gcc-4.3.3/lib/gcc/arm-elf/4.3.3/../../../../arm-elf/lib/interwork/libc.a(lib_a-mktime.o)
 .debug_pubnames
                0x0000127c       0x32 /usr/local/arm-elf-tools/gcc-4.3.3/lib/gcc/arm-elf/4.3.3/../../../../arm-elf/lib/interwork/libc.a(lib_a-mktm_r.o)
 .debug_pubnames
                0x000012ae       0x38 /usr/local/arm-elf-tools/gcc-4.3.3/lib/gcc/arm-elf/4.3.3/../../../../arm-elf/lib/interwork/libc.a(lib_a-mlock.o)
 .debug_pubnames
                0x000012e6       0x2b /usr/local/arm-elf-tools/gcc-4.3.3/lib/gcc/arm-elf/4.3.3/../../../../arm-elf/lib/interwork/libc.a(lib_a-printf.o)
 .debug_pubnames
                0x00001311       0x27 /usr/local/arm-elf-tools/gcc-4.3.3/lib/gcc/arm-elf/4.3.3/../../../../arm-elf/lib/interwork/libc.a(lib_a-putc.o)
 .debug_pubnames
                0x00001338       0x25 /usr/local/arm-elf-tools/gcc-4.3.3/lib/gcc/arm-elf/4.3.3/../../../../arm-elf/lib/interwork/libc.a(lib_a-rand.o)
 .debug_pubnames
                0x0000135d       0x1e /usr/local/arm-elf-tools/gcc-4.3.3/lib/gcc/arm-elf/4.3.3/../../../../arm-elf/lib/interwork/libc.a(lib_a-realloc.o)
 .debug_pubnames
                0x0000137b       0x21 /usr/local/arm-elf-tools/gcc-4.3.3/lib/gcc/arm-elf/4.3.3/../../../../arm-elf/lib/interwork/libc.a(lib_a-reallocr.o)
 .debug_pubnames
                0x0000139c       0x22 /usr/local/arm-elf-tools/gcc-4.3.3/lib/gcc/arm-elf/4.3.3/../../../../arm-elf/lib/interwork/libc.a(lib_a-refill.o)
 .debug_pubnames
                0x000013be       0x2b /usr/local/arm-elf-tools/gcc-4.3.3/lib/gcc/arm-elf/4.3.3/../../../../arm-elf/lib/interwork/libc.a(lib_a-remove.o)
 .debug_pubnames
                0x000013e9       0x2c /usr/local/arm-elf-tools/gcc-4.3.3/lib/gcc/arm-elf/4.3.3/../../../../arm-elf/lib/interwork/libc.a(lib_a-rget.o)
 .debug_pubnames
                0x00001415       0x1e /usr/local/arm-elf-tools/gcc-4.3.3/lib/gcc/arm-elf/4.3.3/../../../../arm-elf/lib/interwork/libc.a(lib_a-setvbuf.o)
 .debug_pubnames
                0x00001433       0x86 /usr/local/arm-elf-tools/gcc-4.3.3/lib/gcc/arm-elf/4.3.3/../../../../arm-elf/lib/interwork/libc.a(lib_a-signal.o)
 .debug_pubnames
                0x000014b9       0x2f /usr/local/arm-elf-tools/gcc-4.3.3/lib/gcc/arm-elf/4.3.3/../../../../arm-elf/lib/interwork/libc.a(lib_a-snprintf.o)
 .debug_pubnames
                0x000014e8       0x2d /usr/local/arm-elf-tools/gcc-4.3.3/lib/gcc/arm-elf/4.3.3/../../../../arm-elf/lib/interwork/libc.a(lib_a-sprintf.o)
 .debug_pubnames
                0x00001515       0x44 /usr/local/arm-elf-tools/gcc-4.3.3/lib/gcc/arm-elf/4.3.3/../../../../arm-elf/lib/interwork/libc.a(lib_a-stdio.o)
 .debug_pubnames
                0x00001559       0x1d /usr/local/arm-elf-tools/gcc-4.3.3/lib/gcc/arm-elf/4.3.3/../../../../arm-elf/lib/interwork/libc.a(lib_a-strcat.o)
 .debug_pubnames
                0x00001576       0x1d /usr/local/arm-elf-tools/gcc-4.3.3/lib/gcc/arm-elf/4.3.3/../../../../arm-elf/lib/interwork/libc.a(lib_a-strchr.o)
 .debug_pubnames
                0x00001593       0x1d /usr/local/arm-elf-tools/gcc-4.3.3/lib/gcc/arm-elf/4.3.3/../../../../arm-elf/lib/interwork/libc.a(lib_a-strcmp.o)
 .debug_pubnames
                0x000015b0       0x1e /usr/local/arm-elf-tools/gcc-4.3.3/lib/gcc/arm-elf/4.3.3/../../../../arm-elf/lib/interwork/libc.a(lib_a-strcoll.o)
 .debug_pubnames
                0x000015ce       0x1d /usr/local/arm-elf-tools/gcc-4.3.3/lib/gcc/arm-elf/4.3.3/../../../../arm-elf/lib/interwork/libc.a(lib_a-strcpy.o)
 .debug_pubnames
                0x000015eb       0x1e /usr/local/arm-elf-tools/gcc-4.3.3/lib/gcc/arm-elf/4.3.3/../../../../arm-elf/lib/interwork/libc.a(lib_a-strcspn.o)
 .debug_pubnames
                0x00001609       0x1f /usr/local/arm-elf-tools/gcc-4.3.3/lib/gcc/arm-elf/4.3.3/../../../../arm-elf/lib/interwork/libc.a(lib_a-strerror.o)
 .debug_pubnames
                0x00001628       0x1f /usr/local/arm-elf-tools/gcc-4.3.3/lib/gcc/arm-elf/4.3.3/../../../../arm-elf/lib/interwork/libc.a(lib_a-strftime.o)
 .debug_pubnames
                0x00001647       0x1d /usr/local/arm-elf-tools/gcc-4.3.3/lib/gcc/arm-elf/4.3.3/../../../../arm-elf/lib/interwork/libc.a(lib_a-strlen.o)
 .debug_pubnames
                0x00001664       0x1e /usr/local/arm-elf-tools/gcc-4.3.3/lib/gcc/arm-elf/4.3.3/../../../../arm-elf/lib/interwork/libc.a(lib_a-strncat.o)
 .debug_pubnames
                0x00001682       0x1e /usr/local/arm-elf-tools/gcc-4.3.3/lib/gcc/arm-elf/4.3.3/../../../../arm-elf/lib/interwork/libc.a(lib_a-strncmp.o)
 .debug_pubnames
                0x000016a0       0x1e /usr/local/arm-elf-tools/gcc-4.3.3/lib/gcc/arm-elf/4.3.3/../../../../arm-elf/lib/interwork/libc.a(lib_a-strncpy.o)
 .debug_pubnames
                0x000016be       0x1e /usr/local/arm-elf-tools/gcc-4.3.3/lib/gcc/arm-elf/4.3.3/../../../../arm-elf/lib/interwork/libc.a(lib_a-strnlen.o)
 .debug_pubnames
                0x000016dc       0x1e /usr/local/arm-elf-tools/gcc-4.3.3/lib/gcc/arm-elf/4.3.3/../../../../arm-elf/lib/interwork/libc.a(lib_a-strpbrk.o)
 .debug_pubnames
                0x000016fa       0x1e /usr/local/arm-elf-tools/gcc-4.3.3/lib/gcc/arm-elf/4.3.3/../../../../arm-elf/lib/interwork/libc.a(lib_a-strrchr.o)
 .debug_pubnames
                0x00001718       0x1d /usr/local/arm-elf-tools/gcc-4.3.3/lib/gcc/arm-elf/4.3.3/../../../../arm-elf/lib/interwork/libc.a(lib_a-strstr.o)
 .debug_pubnames
                0x00001735       0x36 /usr/local/arm-elf-tools/gcc-4.3.3/lib/gcc/arm-elf/4.3.3/../../../../arm-elf/lib/interwork/libc.a(lib_a-strtod.o)
 .debug_pubnames
                0x0000176b       0x2d /usr/local/arm-elf-tools/gcc-4.3.3/lib/gcc/arm-elf/4.3.3/../../../../arm-elf/lib/interwork/libc.a(lib_a-strtoul.o)
 .debug_pubnames
                0x00001798       0x23 /usr/local/arm-elf-tools/gcc-4.3.3/lib/gcc/arm-elf/4.3.3/../../../../arm-elf/lib/interwork/libc.a(lib_a-svfprintf.o)
 .debug_pubnames
                0x000017bb       0x1c /usr/local/arm-elf-tools/gcc-4.3.3/lib/gcc/arm-elf/4.3.3/../../../../arm-elf/lib/interwork/libc.a(lib_a-sysclose.o)
 .debug_pubnames
                0x000017d7       0x23 /usr/local/arm-elf-tools/gcc-4.3.3/lib/gcc/arm-elf/4.3.3/../../../../arm-elf/lib/interwork/libc.a(lib_a-sysgettod.o)
 .debug_pubnames
                0x000017fa       0x1b /usr/local/arm-elf-tools/gcc-4.3.3/lib/gcc/arm-elf/4.3.3/../../../../arm-elf/lib/interwork/libc.a(lib_a-sysopen.o)
 .debug_pubnames
                0x00001815       0x1b /usr/local/arm-elf-tools/gcc-4.3.3/lib/gcc/arm-elf/4.3.3/../../../../arm-elf/lib/interwork/libc.a(lib_a-sysread.o)
 .debug_pubnames
                0x00001830       0x2b /usr/local/arm-elf-tools/gcc-4.3.3/lib/gcc/arm-elf/4.3.3/../../../../arm-elf/lib/interwork/libc.a(lib_a-system.o)
 .debug_pubnames
                0x0000185b       0x1d /usr/local/arm-elf-tools/gcc-4.3.3/lib/gcc/arm-elf/4.3.3/../../../../arm-elf/lib/interwork/libc.a(lib_a-sysunlink.o)
 .debug_pubnames
                0x00001878       0x1c /usr/local/arm-elf-tools/gcc-4.3.3/lib/gcc/arm-elf/4.3.3/../../../../arm-elf/lib/interwork/libc.a(lib_a-syswrite.o)
 .debug_pubnames
                0x00001894       0x1b /usr/local/arm-elf-tools/gcc-4.3.3/lib/gcc/arm-elf/4.3.3/../../../../arm-elf/lib/interwork/libc.a(lib_a-time.o)
 .debug_pubnames
                0x000018af       0x1f /usr/local/arm-elf-tools/gcc-4.3.3/lib/gcc/arm-elf/4.3.3/../../../../arm-elf/lib/interwork/libc.a(lib_a-timesr.o)
 .debug_pubnames
                0x000018ce       0x2d /usr/local/arm-elf-tools/gcc-4.3.3/lib/gcc/arm-elf/4.3.3/../../../../arm-elf/lib/interwork/libc.a(lib_a-tmpfile.o)
 .debug_pubnames
                0x000018fb       0x46 /usr/local/arm-elf-tools/gcc-4.3.3/lib/gcc/arm-elf/4.3.3/../../../../arm-elf/lib/interwork/libc.a(lib_a-tmpnam.o)
 .debug_pubnames
                0x00001941       0x30 /usr/local/arm-elf-tools/gcc-4.3.3/lib/gcc/arm-elf/4.3.3/../../../../arm-elf/lib/interwork/libc.a(lib_a-tzlock.o)
 .debug_pubnames
                0x00001971       0x3a /usr/local/arm-elf-tools/gcc-4.3.3/lib/gcc/arm-elf/4.3.3/../../../../arm-elf/lib/interwork/libc.a(lib_a-tzvars.o)
 .debug_pubnames
                0x000019ab       0x39 /usr/local/arm-elf-tools/gcc-4.3.3/lib/gcc/arm-elf/4.3.3/../../../../arm-elf/lib/interwork/libc.a(lib_a-ungetc.o)
 .debug_pubnames
                0x000019e4       0x25 /usr/local/arm-elf-tools/gcc-4.3.3/lib/gcc/arm-elf/4.3.3/../../../../arm-elf/lib/interwork/libc.a(lib_a-u_strerr.o)
 .debug_pubnames
                0x00001a09       0x2f /usr/local/arm-elf-tools/gcc-4.3.3/lib/gcc/arm-elf/4.3.3/../../../../arm-elf/lib/interwork/libc.a(lib_a-vfprintf.o)
 .debug_pubnames
                0x00001a38       0x4d /usr/local/arm-elf-tools/gcc-4.3.3/lib/gcc/arm-elf/4.3.3/../../../../arm-elf/lib/interwork/libc.a(lib_a-vfscanf.o)
 .debug_pubnames
                0x00001a85       0x31 /usr/local/arm-elf-tools/gcc-4.3.3/lib/gcc/arm-elf/4.3.3/../../../../arm-elf/lib/interwork/libc.a(lib_a-vsnprintf.o)
 .debug_pubnames
                0x00001ab6       0x2c /usr/local/arm-elf-tools/gcc-4.3.3/lib/gcc/arm-elf/4.3.3/../../../../arm-elf/lib/interwork/libc.a(lib_a-wbuf.o)
 .debug_pubnames
                0x00001ae2       0x22 /usr/local/arm-elf-tools/gcc-4.3.3/lib/gcc/arm-elf/4.3.3/../../../../arm-elf/lib/interwork/libc.a(lib_a-wsetup.o)
 .debug_pubnames
                0x00001b04       0x1a /usr/local/arm-elf-tools/gcc-4.3.3/lib/gcc/arm-elf/4.3.3/../../../../arm-elf/lib/interwork/libc.a(lib_a-abs.o)
 .debug_pubnames
                0x00001b1e       0x27 /usr/local/arm-elf-tools/gcc-4.3.3/lib/gcc/arm-elf/4.3.3/../../../../arm-elf/lib/interwork/libc.a(lib_a-__call_atexit.o)
 .debug_pubnames
                0x00001b45       0x1a /usr/local/arm-elf-tools/gcc-4.3.3/lib/gcc/arm-elf/4.3.3/../../../../arm-elf/lib/interwork/libc.a(lib_a-div.o)
 .debug_pubnames
                0x00001b5f       0x1e /usr/local/arm-elf-tools/gcc-4.3.3/lib/gcc/arm-elf/4.3.3/../../../../arm-elf/lib/interwork/libc.a(lib_a-dtoa.o)
 .debug_pubnames
                0x00001b7d       0x1e /usr/local/arm-elf-tools/gcc-4.3.3/lib/gcc/arm-elf/4.3.3/../../../../arm-elf/lib/interwork/libc.a(lib_a-environ.o)
 .debug_pubnames
                0x00001b9b       0x32 /usr/local/arm-elf-tools/gcc-4.3.3/lib/gcc/arm-elf/4.3.3/../../../../arm-elf/lib/interwork/libc.a(lib_a-envlock.o)
 .debug_pubnames
                0x00001bcd       0x3e /usr/local/arm-elf-tools/gcc-4.3.3/lib/gcc/arm-elf/4.3.3/../../../../arm-elf/lib/interwork/libc.a(lib_a-gdtoa-gethex.o)
 .debug_pubnames
                0x00001c0b       0x1f /usr/local/arm-elf-tools/gcc-4.3.3/lib/gcc/arm-elf/4.3.3/../../../../arm-elf/lib/interwork/libc.a(lib_a-gdtoa-hexnan.o)
 .debug_pubnames
                0x00001c2a       0x26 /usr/local/arm-elf-tools/gcc-4.3.3/lib/gcc/arm-elf/4.3.3/../../../../arm-elf/lib/interwork/libc.a(lib_a-gettimeofdayr.o)
 .debug_pubnames
                0x00001c50       0x22 /usr/local/arm-elf-tools/gcc-4.3.3/lib/gcc/arm-elf/4.3.3/../../../../arm-elf/lib/interwork/libc.a(lib_a-gettzinfo.o)
 .debug_pubnames
                0x00001c72       0x20 /usr/local/arm-elf-tools/gcc-4.3.3/lib/gcc/arm-elf/4.3.3/../../../../arm-elf/lib/interwork/libc.a(lib_a-isattyr.o)
 .debug_pubnames
                0x00001c92       0x1f /usr/local/arm-elf-tools/gcc-4.3.3/lib/gcc/arm-elf/4.3.3/../../../../arm-elf/lib/interwork/libc.a(lib_a-iswspace.o)
 .debug_pubnames
                0x00001cb1       0x1b /usr/local/arm-elf-tools/gcc-4.3.3/lib/gcc/arm-elf/4.3.3/../../../../arm-elf/lib/interwork/libc.a(lib_a-labs.o)
 .debug_pubnames
                0x00001ccc       0x2d /usr/local/arm-elf-tools/gcc-4.3.3/lib/gcc/arm-elf/4.3.3/../../../../arm-elf/lib/interwork/libc.a(lib_a-mbrtowc.o)
 .debug_pubnames
                0x00001cf9       0x20 /usr/local/arm-elf-tools/gcc-4.3.3/lib/gcc/arm-elf/4.3.3/../../../../arm-elf/lib/interwork/libc.a(lib_a-mbtowc_r.o)
 .debug_pubnames
                0x00001d19      0x13a /usr/local/arm-elf-tools/gcc-4.3.3/lib/gcc/arm-elf/4.3.3/../../../../arm-elf/lib/interwork/libc.a(lib_a-mprec.o)
 .debug_pubnames
                0x00001e53       0x52 /usr/local/arm-elf-tools/gcc-4.3.3/lib/gcc/arm-elf/4.3.3/../../../../arm-elf/lib/interwork/libc.a(lib_a-reent.o)
 .debug_pubnames
                0x00001ea5       0x1d /usr/local/arm-elf-tools/gcc-4.3.3/lib/gcc/arm-elf/4.3.3/../../../../arm-elf/lib/interwork/libc.a(lib_a-sccl.o)
 .debug_pubnames
                0x00001ec2       0x1b /usr/local/arm-elf-tools/gcc-4.3.3/lib/gcc/arm-elf/4.3.3/../../../../arm-elf/lib/interwork/libc.a(lib_a-sf_nan.o)
 .debug_pubnames
                0x00001edd       0x1f /usr/local/arm-elf-tools/gcc-4.3.3/lib/gcc/arm-elf/4.3.3/../../../../arm-elf/lib/interwork/libc.a(lib_a-s_isinfd.o)
 .debug_pubnames
                0x00001efc       0x2b /usr/local/arm-elf-tools/gcc-4.3.3/lib/gcc/arm-elf/4.3.3/../../../../arm-elf/lib/interwork/libc.a(lib_a-strtol.o)

.debug_aranges  0x00000000     0x18c0
 .debug_aranges
                0x00000000       0x20 /usr/local/arm-elf-tools/gcc-4.3.3/lib/gcc/arm-elf/4.3.3/../../../../arm-elf/lib/interwork/libm.a(lib_a-s_atan.o)
 .debug_aranges
                0x00000020       0x20 /usr/local/arm-elf-tools/gcc-4.3.3/lib/gcc/arm-elf/4.3.3/../../../../arm-elf/lib/interwork/libm.a(lib_a-s_ceil.o)
 .debug_aranges
                0x00000040       0x20 /usr/local/arm-elf-tools/gcc-4.3.3/lib/gcc/arm-elf/4.3.3/../../../../arm-elf/lib/interwork/libm.a(lib_a-s_cos.o)
 .debug_aranges
                0x00000060       0x20 /usr/local/arm-elf-tools/gcc-4.3.3/lib/gcc/arm-elf/4.3.3/../../../../arm-elf/lib/interwork/libm.a(lib_a-s_fabs.o)
 .debug_aranges
                0x00000080       0x20 /usr/local/arm-elf-tools/gcc-4.3.3/lib/gcc/arm-elf/4.3.3/../../../../arm-elf/lib/interwork/libm.a(lib_a-s_floor.o)
 .debug_aranges
                0x000000a0       0x20 /usr/local/arm-elf-tools/gcc-4.3.3/lib/gcc/arm-elf/4.3.3/../../../../arm-elf/lib/interwork/libm.a(lib_a-s_frexp.o)
 .debug_aranges
                0x000000c0       0x20 /usr/local/arm-elf-tools/gcc-4.3.3/lib/gcc/arm-elf/4.3.3/../../../../arm-elf/lib/interwork/libm.a(lib_a-s_ldexp.o)
 .debug_aranges
                0x000000e0       0x20 /usr/local/arm-elf-tools/gcc-4.3.3/lib/gcc/arm-elf/4.3.3/../../../../arm-elf/lib/interwork/libm.a(lib_a-s_modf.o)
 .debug_aranges
                0x00000100       0x20 /usr/local/arm-elf-tools/gcc-4.3.3/lib/gcc/arm-elf/4.3.3/../../../../arm-elf/lib/interwork/libm.a(lib_a-s_scalbn.o)
 .debug_aranges
                0x00000120       0x20 /usr/local/arm-elf-tools/gcc-4.3.3/lib/gcc/arm-elf/4.3.3/../../../../arm-elf/lib/interwork/libm.a(lib_a-s_sin.o)
 .debug_aranges
                0x00000140       0x20 /usr/local/arm-elf-tools/gcc-4.3.3/lib/gcc/arm-elf/4.3.3/../../../../arm-elf/lib/interwork/libm.a(lib_a-s_tanh.o)
 .debug_aranges
                0x00000160       0x20 /usr/local/arm-elf-tools/gcc-4.3.3/lib/gcc/arm-elf/4.3.3/../../../../arm-elf/lib/interwork/libm.a(lib_a-s_tan.o)
 .debug_aranges
                0x00000180       0x20 /usr/local/arm-elf-tools/gcc-4.3.3/lib/gcc/arm-elf/4.3.3/../../../../arm-elf/lib/interwork/libm.a(lib_a-w_acos.o)
 .debug_aranges
                0x000001a0       0x20 /usr/local/arm-elf-tools/gcc-4.3.3/lib/gcc/arm-elf/4.3.3/../../../../arm-elf/lib/interwork/libm.a(lib_a-w_asin.o)
 .debug_aranges
                0x000001c0       0x20 /usr/local/arm-elf-tools/gcc-4.3.3/lib/gcc/arm-elf/4.3.3/../../../../arm-elf/lib/interwork/libm.a(lib_a-w_atan2.o)
 .debug_aranges
                0x000001e0       0x20 /usr/local/arm-elf-tools/gcc-4.3.3/lib/gcc/arm-elf/4.3.3/../../../../arm-elf/lib/interwork/libm.a(lib_a-w_cosh.o)
 .debug_aranges
                0x00000200       0x20 /usr/local/arm-elf-tools/gcc-4.3.3/lib/gcc/arm-elf/4.3.3/../../../../arm-elf/lib/interwork/libm.a(lib_a-w_exp.o)
 .debug_aranges
                0x00000220       0x20 /usr/local/arm-elf-tools/gcc-4.3.3/lib/gcc/arm-elf/4.3.3/../../../../arm-elf/lib/interwork/libm.a(lib_a-w_fmod.o)
 .debug_aranges
                0x00000240       0x20 /usr/local/arm-elf-tools/gcc-4.3.3/lib/gcc/arm-elf/4.3.3/../../../../arm-elf/lib/interwork/libm.a(lib_a-w_log10.o)
 .debug_aranges
                0x00000260       0x20 /usr/local/arm-elf-tools/gcc-4.3.3/lib/gcc/arm-elf/4.3.3/../../../../arm-elf/lib/interwork/libm.a(lib_a-w_log.o)
 .debug_aranges
                0x00000280       0x20 /usr/local/arm-elf-tools/gcc-4.3.3/lib/gcc/arm-elf/4.3.3/../../../../arm-elf/lib/interwork/libm.a(lib_a-w_pow.o)
 .debug_aranges
                0x000002a0       0x20 /usr/local/arm-elf-tools/gcc-4.3.3/lib/gcc/arm-elf/4.3.3/../../../../arm-elf/lib/interwork/libm.a(lib_a-w_sinh.o)
 .debug_aranges
                0x000002c0       0x20 /usr/local/arm-elf-tools/gcc-4.3.3/lib/gcc/arm-elf/4.3.3/../../../../arm-elf/lib/interwork/libm.a(lib_a-w_sqrt.o)
 .debug_aranges
                0x000002e0       0x20 /usr/local/arm-elf-tools/gcc-4.3.3/lib/gcc/arm-elf/4.3.3/../../../../arm-elf/lib/interwork/libm.a(lib_a-e_acos.o)
 .debug_aranges
                0x00000300       0x20 /usr/local/arm-elf-tools/gcc-4.3.3/lib/gcc/arm-elf/4.3.3/../../../../arm-elf/lib/interwork/libm.a(lib_a-e_asin.o)
 .debug_aranges
                0x00000320       0x20 /usr/local/arm-elf-tools/gcc-4.3.3/lib/gcc/arm-elf/4.3.3/../../../../arm-elf/lib/interwork/libm.a(lib_a-e_atan2.o)
 .debug_aranges
                0x00000340       0x20 /usr/local/arm-elf-tools/gcc-4.3.3/lib/gcc/arm-elf/4.3.3/../../../../arm-elf/lib/interwork/libm.a(lib_a-e_cosh.o)
 .debug_aranges
                0x00000360       0x20 /usr/local/arm-elf-tools/gcc-4.3.3/lib/gcc/arm-elf/4.3.3/../../../../arm-elf/lib/interwork/libm.a(lib_a-e_exp.o)
 .debug_aranges
                0x00000380       0x20 /usr/local/arm-elf-tools/gcc-4.3.3/lib/gcc/arm-elf/4.3.3/../../../../arm-elf/lib/interwork/libm.a(lib_a-e_fmod.o)
 .debug_aranges
                0x000003a0       0x20 /usr/local/arm-elf-tools/gcc-4.3.3/lib/gcc/arm-elf/4.3.3/../../../../arm-elf/lib/interwork/libm.a(lib_a-e_log10.o)
 .debug_aranges
                0x000003c0       0x20 /usr/local/arm-elf-tools/gcc-4.3.3/lib/gcc/arm-elf/4.3.3/../../../../arm-elf/lib/interwork/libm.a(lib_a-e_log.o)
 .debug_aranges
                0x000003e0       0x20 /usr/local/arm-elf-tools/gcc-4.3.3/lib/gcc/arm-elf/4.3.3/../../../../arm-elf/lib/interwork/libm.a(lib_a-e_pow.o)
 .debug_aranges
                0x00000400       0x20 /usr/local/arm-elf-tools/gcc-4.3.3/lib/gcc/arm-elf/4.3.3/../../../../arm-elf/lib/interwork/libm.a(lib_a-e_rem_pio2.o)
 .debug_aranges
                0x00000420       0x20 /usr/local/arm-elf-tools/gcc-4.3.3/lib/gcc/arm-elf/4.3.3/../../../../arm-elf/lib/interwork/libm.a(lib_a-e_sinh.o)
 .debug_aranges
                0x00000440       0x20 /usr/local/arm-elf-tools/gcc-4.3.3/lib/gcc/arm-elf/4.3.3/../../../../arm-elf/lib/interwork/libm.a(lib_a-e_sqrt.o)
 .debug_aranges
                0x00000460       0x20 /usr/local/arm-elf-tools/gcc-4.3.3/lib/gcc/arm-elf/4.3.3/../../../../arm-elf/lib/interwork/libm.a(lib_a-k_cos.o)
 .debug_aranges
                0x00000480       0x20 /usr/local/arm-elf-tools/gcc-4.3.3/lib/gcc/arm-elf/4.3.3/../../../../arm-elf/lib/interwork/libm.a(lib_a-k_rem_pio2.o)
 .debug_aranges
                0x000004a0       0x20 /usr/local/arm-elf-tools/gcc-4.3.3/lib/gcc/arm-elf/4.3.3/../../../../arm-elf/lib/interwork/libm.a(lib_a-k_sin.o)
 .debug_aranges
                0x000004c0       0x20 /usr/local/arm-elf-tools/gcc-4.3.3/lib/gcc/arm-elf/4.3.3/../../../../arm-elf/lib/interwork/libm.a(lib_a-k_tan.o)
 .debug_aranges
                0x000004e0       0x20 /usr/local/arm-elf-tools/gcc-4.3.3/lib/gcc/arm-elf/4.3.3/../../../../arm-elf/lib/interwork/libm.a(lib_a-s_copysign.o)
 .debug_aranges
                0x00000500       0x20 /usr/local/arm-elf-tools/gcc-4.3.3/lib/gcc/arm-elf/4.3.3/../../../../arm-elf/lib/interwork/libm.a(lib_a-s_expm1.o)
 .debug_aranges
                0x00000520       0x20 /usr/local/arm-elf-tools/gcc-4.3.3/lib/gcc/arm-elf/4.3.3/../../../../arm-elf/lib/interwork/libm.a(lib_a-s_finite.o)
 .debug_aranges
                0x00000540       0x20 /usr/local/arm-elf-tools/gcc-4.3.3/lib/gcc/arm-elf/4.3.3/../../../../arm-elf/lib/interwork/libm.a(lib_a-s_isnand.o)
 .debug_aranges
                0x00000560       0x20 /usr/local/arm-elf-tools/gcc-4.3.3/lib/gcc/arm-elf/4.3.3/../../../../arm-elf/lib/interwork/libm.a(lib_a-s_matherr.o)
 .debug_aranges
                0x00000580       0x20 /usr/local/arm-elf-tools/gcc-4.3.3/lib/gcc/arm-elf/4.3.3/../../../../arm-elf/lib/interwork/libm.a(lib_a-s_nan.o)
 .debug_aranges
                0x000005a0       0x20 /usr/local/arm-elf-tools/gcc-4.3.3/lib/gcc/arm-elf/4.3.3/../../../../arm-elf/lib/interwork/libm.a(lib_a-s_rint.o)
 .debug_aranges
                0x000005c0       0x20 /usr/local/arm-elf-tools/gcc-4.3.3/lib/gcc/arm-elf/4.3.3/interwork/libgcc.a(_udivsi3.o)
 .debug_aranges
                0x000005e0       0x20 /usr/local/arm-elf-tools/gcc-4.3.3/lib/gcc/arm-elf/4.3.3/interwork/libgcc.a(_divsi3.o)
 .debug_aranges
                0x00000600       0x20 /usr/local/arm-elf-tools/gcc-4.3.3/lib/gcc/arm-elf/4.3.3/interwork/libgcc.a(_umodsi3.o)
 .debug_aranges
                0x00000620       0x20 /usr/local/arm-elf-tools/gcc-4.3.3/lib/gcc/arm-elf/4.3.3/interwork/libgcc.a(_modsi3.o)
 .debug_aranges
                0x00000640       0x20 /usr/local/arm-elf-tools/gcc-4.3.3/lib/gcc/arm-elf/4.3.3/interwork/libgcc.a(_dvmd_tls.o)
 .debug_aranges
                0x00000660       0x20 /usr/local/arm-elf-tools/gcc-4.3.3/lib/gcc/arm-elf/4.3.3/interwork/libgcc.a(_fixunsdfsi.o)
 .debug_aranges
                0x00000680       0x20 /usr/local/arm-elf-tools/gcc-4.3.3/lib/gcc/arm-elf/4.3.3/interwork/libgcc.a(_mul_sf.o)
 .debug_aranges
                0x000006a0       0x20 /usr/local/arm-elf-tools/gcc-4.3.3/lib/gcc/arm-elf/4.3.3/interwork/libgcc.a(_div_sf.o)
 .debug_aranges
                0x000006c0       0x20 /usr/local/arm-elf-tools/gcc-4.3.3/lib/gcc/arm-elf/4.3.3/interwork/libgcc.a(_eq_sf.o)
 .debug_aranges
                0x000006e0       0x20 /usr/local/arm-elf-tools/gcc-4.3.3/lib/gcc/arm-elf/4.3.3/interwork/libgcc.a(_si_to_sf.o)
 .debug_aranges
                0x00000700       0x20 /usr/local/arm-elf-tools/gcc-4.3.3/lib/gcc/arm-elf/4.3.3/interwork/libgcc.a(_sf_to_df.o)
 .debug_aranges
                0x00000720       0x20 /usr/local/arm-elf-tools/gcc-4.3.3/lib/gcc/arm-elf/4.3.3/interwork/libgcc.a(_usi_to_sf.o)
 .debug_aranges
                0x00000740       0x20 /usr/local/arm-elf-tools/gcc-4.3.3/lib/gcc/arm-elf/4.3.3/interwork/libgcc.a(_addsub_df.o)
 .debug_aranges
                0x00000760       0x20 /usr/local/arm-elf-tools/gcc-4.3.3/lib/gcc/arm-elf/4.3.3/interwork/libgcc.a(_mul_df.o)
 .debug_aranges
                0x00000780       0x20 /usr/local/arm-elf-tools/gcc-4.3.3/lib/gcc/arm-elf/4.3.3/interwork/libgcc.a(_div_df.o)
 .debug_aranges
                0x000007a0       0x20 /usr/local/arm-elf-tools/gcc-4.3.3/lib/gcc/arm-elf/4.3.3/interwork/libgcc.a(_eq_df.o)
 .debug_aranges
                0x000007c0       0x20 /usr/local/arm-elf-tools/gcc-4.3.3/lib/gcc/arm-elf/4.3.3/interwork/libgcc.a(_ne_df.o)
 .debug_aranges
                0x000007e0       0x20 /usr/local/arm-elf-tools/gcc-4.3.3/lib/gcc/arm-elf/4.3.3/interwork/libgcc.a(_gt_df.o)
 .debug_aranges
                0x00000800       0x20 /usr/local/arm-elf-tools/gcc-4.3.3/lib/gcc/arm-elf/4.3.3/interwork/libgcc.a(_ge_df.o)
 .debug_aranges
                0x00000820       0x20 /usr/local/arm-elf-tools/gcc-4.3.3/lib/gcc/arm-elf/4.3.3/interwork/libgcc.a(_lt_df.o)
 .debug_aranges
                0x00000840       0x20 /usr/local/arm-elf-tools/gcc-4.3.3/lib/gcc/arm-elf/4.3.3/interwork/libgcc.a(_le_df.o)
 .debug_aranges
                0x00000860       0x20 /usr/local/arm-elf-tools/gcc-4.3.3/lib/gcc/arm-elf/4.3.3/interwork/libgcc.a(_si_to_df.o)
 .debug_aranges
                0x00000880       0x20 /usr/local/arm-elf-tools/gcc-4.3.3/lib/gcc/arm-elf/4.3.3/interwork/libgcc.a(_df_to_si.o)
 .debug_aranges
                0x000008a0       0x20 /usr/local/arm-elf-tools/gcc-4.3.3/lib/gcc/arm-elf/4.3.3/interwork/libgcc.a(_make_df.o)
 .debug_aranges
                0x000008c0       0x20 /usr/local/arm-elf-tools/gcc-4.3.3/lib/gcc/arm-elf/4.3.3/interwork/libgcc.a(_df_to_sf.o)
 .debug_aranges
                0x000008e0       0x20 /usr/local/arm-elf-tools/gcc-4.3.3/lib/gcc/arm-elf/4.3.3/interwork/libgcc.a(_usi_to_df.o)
 .debug_aranges
                0x00000900       0x20 /usr/local/arm-elf-tools/gcc-4.3.3/lib/gcc/arm-elf/4.3.3/interwork/libgcc.a(_ucmpdi2.o)
 .debug_aranges
                0x00000920       0x20 /usr/local/arm-elf-tools/gcc-4.3.3/lib/gcc/arm-elf/4.3.3/interwork/libgcc.a(_clzsi2.o)
 .debug_aranges
                0x00000940       0x20 /usr/local/arm-elf-tools/gcc-4.3.3/lib/gcc/arm-elf/4.3.3/interwork/libgcc.a(_pack_sf.o)
 .debug_aranges
                0x00000960       0x20 /usr/local/arm-elf-tools/gcc-4.3.3/lib/gcc/arm-elf/4.3.3/interwork/libgcc.a(_unpack_sf.o)
 .debug_aranges
                0x00000980       0x20 /usr/local/arm-elf-tools/gcc-4.3.3/lib/gcc/arm-elf/4.3.3/interwork/libgcc.a(_fpcmp_parts_sf.o)
 .debug_aranges
                0x000009a0       0x20 /usr/local/arm-elf-tools/gcc-4.3.3/lib/gcc/arm-elf/4.3.3/interwork/libgcc.a(_make_sf.o)
 .debug_aranges
                0x000009c0       0x20 /usr/local/arm-elf-tools/gcc-4.3.3/lib/gcc/arm-elf/4.3.3/interwork/libgcc.a(_pack_df.o)
 .debug_aranges
                0x000009e0       0x20 /usr/local/arm-elf-tools/gcc-4.3.3/lib/gcc/arm-elf/4.3.3/interwork/libgcc.a(_unpack_df.o)
 .debug_aranges
                0x00000a00       0x20 /usr/local/arm-elf-tools/gcc-4.3.3/lib/gcc/arm-elf/4.3.3/interwork/libgcc.a(_fpcmp_parts_df.o)
 .debug_aranges
                0x00000a20       0x20 /usr/local/arm-elf-tools/gcc-4.3.3/lib/gcc/arm-elf/4.3.3/../../../../arm-elf/lib/interwork/libc.a(lib_a-abort.o)
 .debug_aranges
                0x00000a40       0x20 /usr/local/arm-elf-tools/gcc-4.3.3/lib/gcc/arm-elf/4.3.3/../../../../arm-elf/lib/interwork/libc.a(lib_a-calloc.o)
 .debug_aranges
                0x00000a60       0x20 /usr/local/arm-elf-tools/gcc-4.3.3/lib/gcc/arm-elf/4.3.3/../../../../arm-elf/lib/interwork/libc.a(lib_a-callocr.o)
 .debug_aranges
                0x00000a80       0x20 /usr/local/arm-elf-tools/gcc-4.3.3/lib/gcc/arm-elf/4.3.3/../../../../arm-elf/lib/interwork/libc.a(lib_a-clock.o)
 .debug_aranges
                0x00000aa0       0x20 /usr/local/arm-elf-tools/gcc-4.3.3/lib/gcc/arm-elf/4.3.3/../../../../arm-elf/lib/interwork/libc.a(lib_a-difftime.o)
 .debug_aranges
                0x00000ac0       0x20 /usr/local/arm-elf-tools/gcc-4.3.3/lib/gcc/arm-elf/4.3.3/../../../../arm-elf/lib/interwork/libc.a(lib_a-errno.o)
 .debug_aranges
                0x00000ae0       0x20 /usr/local/arm-elf-tools/gcc-4.3.3/lib/gcc/arm-elf/4.3.3/../../../../arm-elf/lib/interwork/libc.a(lib_a-exit.o)
 .debug_aranges
                0x00000b00       0x20 /usr/local/arm-elf-tools/gcc-4.3.3/lib/gcc/arm-elf/4.3.3/../../../../arm-elf/lib/interwork/libc.a(lib_a-fclose.o)
 .debug_aranges
                0x00000b20       0x20 /usr/local/arm-elf-tools/gcc-4.3.3/lib/gcc/arm-elf/4.3.3/../../../../arm-elf/lib/interwork/libc.a(lib_a-fdopen.o)
 .debug_aranges
                0x00000b40       0x20 /usr/local/arm-elf-tools/gcc-4.3.3/lib/gcc/arm-elf/4.3.3/../../../../arm-elf/lib/interwork/libc.a(lib_a-fflush.o)
 .debug_aranges
                0x00000b60       0x20 /usr/local/arm-elf-tools/gcc-4.3.3/lib/gcc/arm-elf/4.3.3/../../../../arm-elf/lib/interwork/libc.a(lib_a-fgets.o)
 .debug_aranges
                0x00000b80       0x20 /usr/local/arm-elf-tools/gcc-4.3.3/lib/gcc/arm-elf/4.3.3/../../../../arm-elf/lib/interwork/libc.a(lib_a-fileno.o)
 .debug_aranges
                0x00000ba0       0x20 /usr/local/arm-elf-tools/gcc-4.3.3/lib/gcc/arm-elf/4.3.3/../../../../arm-elf/lib/interwork/libc.a(lib_a-findfp.o)
 .debug_aranges
                0x00000bc0       0x20 /usr/local/arm-elf-tools/gcc-4.3.3/lib/gcc/arm-elf/4.3.3/../../../../arm-elf/lib/interwork/libc.a(lib_a-flags.o)
 .debug_aranges
                0x00000be0       0x20 /usr/local/arm-elf-tools/gcc-4.3.3/lib/gcc/arm-elf/4.3.3/../../../../arm-elf/lib/interwork/libc.a(lib_a-fopen.o)
 .debug_aranges
                0x00000c00       0x20 /usr/local/arm-elf-tools/gcc-4.3.3/lib/gcc/arm-elf/4.3.3/../../../../arm-elf/lib/interwork/libc.a(lib_a-fprintf.o)
 .debug_aranges
                0x00000c20       0x20 /usr/local/arm-elf-tools/gcc-4.3.3/lib/gcc/arm-elf/4.3.3/../../../../arm-elf/lib/interwork/libc.a(lib_a-fputc.o)
 .debug_aranges
                0x00000c40       0x20 /usr/local/arm-elf-tools/gcc-4.3.3/lib/gcc/arm-elf/4.3.3/../../../../arm-elf/lib/interwork/libc.a(lib_a-fputs.o)
 .debug_aranges
                0x00000c60       0x20 /usr/local/arm-elf-tools/gcc-4.3.3/lib/gcc/arm-elf/4.3.3/../../../../arm-elf/lib/interwork/libc.a(lib_a-fread.o)
 .debug_aranges
                0x00000c80       0x20 /usr/local/arm-elf-tools/gcc-4.3.3/lib/gcc/arm-elf/4.3.3/../../../../arm-elf/lib/interwork/libc.a(lib_a-freer.o)
 .debug_aranges
                0x00000ca0       0x20 /usr/local/arm-elf-tools/gcc-4.3.3/lib/gcc/arm-elf/4.3.3/../../../../arm-elf/lib/interwork/libc.a(lib_a-freopen.o)
 .debug_aranges
                0x00000cc0       0x20 /usr/local/arm-elf-tools/gcc-4.3.3/lib/gcc/arm-elf/4.3.3/../../../../arm-elf/lib/interwork/libc.a(lib_a-fscanf.o)
 .debug_aranges
                0x00000ce0       0x20 /usr/local/arm-elf-tools/gcc-4.3.3/lib/gcc/arm-elf/4.3.3/../../../../arm-elf/lib/interwork/libc.a(lib_a-fseek.o)
 .debug_aranges
                0x00000d00       0x20 /usr/local/arm-elf-tools/gcc-4.3.3/lib/gcc/arm-elf/4.3.3/../../../../arm-elf/lib/interwork/libc.a(lib_a-ftell.o)
 .debug_aranges
                0x00000d20       0x20 /usr/local/arm-elf-tools/gcc-4.3.3/lib/gcc/arm-elf/4.3.3/../../../../arm-elf/lib/interwork/libc.a(lib_a-fvwrite.o)
 .debug_aranges
                0x00000d40       0x20 /usr/local/arm-elf-tools/gcc-4.3.3/lib/gcc/arm-elf/4.3.3/../../../../arm-elf/lib/interwork/libc.a(lib_a-fwalk.o)
 .debug_aranges
                0x00000d60       0x20 /usr/local/arm-elf-tools/gcc-4.3.3/lib/gcc/arm-elf/4.3.3/../../../../arm-elf/lib/interwork/libc.a(lib_a-fwrite.o)
 .debug_aranges
                0x00000d80       0x20 /usr/local/arm-elf-tools/gcc-4.3.3/lib/gcc/arm-elf/4.3.3/../../../../arm-elf/lib/interwork/libc.a(lib_a-getenv.o)
 .debug_aranges
                0x00000da0       0x20 /usr/local/arm-elf-tools/gcc-4.3.3/lib/gcc/arm-elf/4.3.3/../../../../arm-elf/lib/interwork/libc.a(lib_a-getenv_r.o)
 .debug_aranges
                0x00000dc0       0x20 /usr/local/arm-elf-tools/gcc-4.3.3/lib/gcc/arm-elf/4.3.3/../../../../arm-elf/lib/interwork/libc.a(lib_a-gmtime.o)
 .debug_aranges
                0x00000de0       0x20 /usr/local/arm-elf-tools/gcc-4.3.3/lib/gcc/arm-elf/4.3.3/../../../../arm-elf/lib/interwork/libc.a(lib_a-gmtime_r.o)
 .debug_aranges
                0x00000e00       0x20 /usr/local/arm-elf-tools/gcc-4.3.3/lib/gcc/arm-elf/4.3.3/../../../../arm-elf/lib/interwork/libc.a(lib_a-lcltime.o)
 .debug_aranges
                0x00000e20       0x20 /usr/local/arm-elf-tools/gcc-4.3.3/lib/gcc/arm-elf/4.3.3/../../../../arm-elf/lib/interwork/libc.a(lib_a-lcltime_r.o)
 .debug_aranges
                0x00000e40       0x20 /usr/local/arm-elf-tools/gcc-4.3.3/lib/gcc/arm-elf/4.3.3/../../../../arm-elf/lib/interwork/libc.a(lib_a-locale.o)
 .debug_aranges
                0x00000e60       0x20 /usr/local/arm-elf-tools/gcc-4.3.3/lib/gcc/arm-elf/4.3.3/../../../../arm-elf/lib/interwork/libc.a(lib_a-makebuf.o)
 .debug_aranges
                0x00000e80       0x20 /usr/local/arm-elf-tools/gcc-4.3.3/lib/gcc/arm-elf/4.3.3/../../../../arm-elf/lib/interwork/libc.a(lib_a-malloc.o)
 .debug_aranges
                0x00000ea0       0x20 /usr/local/arm-elf-tools/gcc-4.3.3/lib/gcc/arm-elf/4.3.3/../../../../arm-elf/lib/interwork/libc.a(lib_a-mallocr.o)
 .debug_aranges
                0x00000ec0       0x20 /usr/local/arm-elf-tools/gcc-4.3.3/lib/gcc/arm-elf/4.3.3/../../../../arm-elf/lib/interwork/libc.a(lib_a-memchr.o)
 .debug_aranges
                0x00000ee0       0x20 /usr/local/arm-elf-tools/gcc-4.3.3/lib/gcc/arm-elf/4.3.3/../../../../arm-elf/lib/interwork/libc.a(lib_a-memcmp.o)
 .debug_aranges
                0x00000f00       0x20 /usr/local/arm-elf-tools/gcc-4.3.3/lib/gcc/arm-elf/4.3.3/../../../../arm-elf/lib/interwork/libc.a(lib_a-memcpy.o)
 .debug_aranges
                0x00000f20       0x20 /usr/local/arm-elf-tools/gcc-4.3.3/lib/gcc/arm-elf/4.3.3/../../../../arm-elf/lib/interwork/libc.a(lib_a-memmove.o)
 .debug_aranges
                0x00000f40       0x20 /usr/local/arm-elf-tools/gcc-4.3.3/lib/gcc/arm-elf/4.3.3/../../../../arm-elf/lib/interwork/libc.a(lib_a-memset.o)
 .debug_aranges
                0x00000f60       0x20 /usr/local/arm-elf-tools/gcc-4.3.3/lib/gcc/arm-elf/4.3.3/../../../../arm-elf/lib/interwork/libc.a(lib_a-mktime.o)
 .debug_aranges
                0x00000f80       0x20 /usr/local/arm-elf-tools/gcc-4.3.3/lib/gcc/arm-elf/4.3.3/../../../../arm-elf/lib/interwork/libc.a(lib_a-mktm_r.o)
 .debug_aranges
                0x00000fa0       0x20 /usr/local/arm-elf-tools/gcc-4.3.3/lib/gcc/arm-elf/4.3.3/../../../../arm-elf/lib/interwork/libc.a(lib_a-mlock.o)
 .debug_aranges
                0x00000fc0       0x20 /usr/local/arm-elf-tools/gcc-4.3.3/lib/gcc/arm-elf/4.3.3/../../../../arm-elf/lib/interwork/libc.a(lib_a-printf.o)
 .debug_aranges
                0x00000fe0       0x20 /usr/local/arm-elf-tools/gcc-4.3.3/lib/gcc/arm-elf/4.3.3/../../../../arm-elf/lib/interwork/libc.a(lib_a-putc.o)
 .debug_aranges
                0x00001000       0x20 /usr/local/arm-elf-tools/gcc-4.3.3/lib/gcc/arm-elf/4.3.3/../../../../arm-elf/lib/interwork/libc.a(lib_a-rand.o)
 .debug_aranges
                0x00001020       0x20 /usr/local/arm-elf-tools/gcc-4.3.3/lib/gcc/arm-elf/4.3.3/../../../../arm-elf/lib/interwork/libc.a(lib_a-realloc.o)
 .debug_aranges
                0x00001040       0x20 /usr/local/arm-elf-tools/gcc-4.3.3/lib/gcc/arm-elf/4.3.3/../../../../arm-elf/lib/interwork/libc.a(lib_a-reallocr.o)
 .debug_aranges
                0x00001060       0x20 /usr/local/arm-elf-tools/gcc-4.3.3/lib/gcc/arm-elf/4.3.3/../../../../arm-elf/lib/interwork/libc.a(lib_a-refill.o)
 .debug_aranges
                0x00001080       0x20 /usr/local/arm-elf-tools/gcc-4.3.3/lib/gcc/arm-elf/4.3.3/../../../../arm-elf/lib/interwork/libc.a(lib_a-remove.o)
 .debug_aranges
                0x000010a0       0x20 /usr/local/arm-elf-tools/gcc-4.3.3/lib/gcc/arm-elf/4.3.3/../../../../arm-elf/lib/interwork/libc.a(lib_a-rget.o)
 .debug_aranges
                0x000010c0       0x20 /usr/local/arm-elf-tools/gcc-4.3.3/lib/gcc/arm-elf/4.3.3/../../../../arm-elf/lib/interwork/libc.a(lib_a-setjmp.o)
 .debug_aranges
                0x000010e0       0x20 /usr/local/arm-elf-tools/gcc-4.3.3/lib/gcc/arm-elf/4.3.3/../../../../arm-elf/lib/interwork/libc.a(lib_a-setvbuf.o)
 .debug_aranges
                0x00001100       0x20 /usr/local/arm-elf-tools/gcc-4.3.3/lib/gcc/arm-elf/4.3.3/../../../../arm-elf/lib/interwork/libc.a(lib_a-signal.o)
 .debug_aranges
                0x00001120       0x20 /usr/local/arm-elf-tools/gcc-4.3.3/lib/gcc/arm-elf/4.3.3/../../../../arm-elf/lib/interwork/libc.a(lib_a-snprintf.o)
 .debug_aranges
                0x00001140       0x20 /usr/local/arm-elf-tools/gcc-4.3.3/lib/gcc/arm-elf/4.3.3/../../../../arm-elf/lib/interwork/libc.a(lib_a-sprintf.o)
 .debug_aranges
                0x00001160       0x20 /usr/local/arm-elf-tools/gcc-4.3.3/lib/gcc/arm-elf/4.3.3/../../../../arm-elf/lib/interwork/libc.a(lib_a-stdio.o)
 .debug_aranges
                0x00001180       0x20 /usr/local/arm-elf-tools/gcc-4.3.3/lib/gcc/arm-elf/4.3.3/../../../../arm-elf/lib/interwork/libc.a(lib_a-strcat.o)
 .debug_aranges
                0x000011a0       0x20 /usr/local/arm-elf-tools/gcc-4.3.3/lib/gcc/arm-elf/4.3.3/../../../../arm-elf/lib/interwork/libc.a(lib_a-strchr.o)
 .debug_aranges
                0x000011c0       0x20 /usr/local/arm-elf-tools/gcc-4.3.3/lib/gcc/arm-elf/4.3.3/../../../../arm-elf/lib/interwork/libc.a(lib_a-strcmp.o)
 .debug_aranges
                0x000011e0       0x20 /usr/local/arm-elf-tools/gcc-4.3.3/lib/gcc/arm-elf/4.3.3/../../../../arm-elf/lib/interwork/libc.a(lib_a-strcoll.o)
 .debug_aranges
                0x00001200       0x20 /usr/local/arm-elf-tools/gcc-4.3.3/lib/gcc/arm-elf/4.3.3/../../../../arm-elf/lib/interwork/libc.a(lib_a-strcpy.o)
 .debug_aranges
                0x00001220       0x20 /usr/local/arm-elf-tools/gcc-4.3.3/lib/gcc/arm-elf/4.3.3/../../../../arm-elf/lib/interwork/libc.a(lib_a-strcspn.o)
 .debug_aranges
                0x00001240       0x20 /usr/local/arm-elf-tools/gcc-4.3.3/lib/gcc/arm-elf/4.3.3/../../../../arm-elf/lib/interwork/libc.a(lib_a-strerror.o)
 .debug_aranges
                0x00001260       0x20 /usr/local/arm-elf-tools/gcc-4.3.3/lib/gcc/arm-elf/4.3.3/../../../../arm-elf/lib/interwork/libc.a(lib_a-strftime.o)
 .debug_aranges
                0x00001280       0x20 /usr/local/arm-elf-tools/gcc-4.3.3/lib/gcc/arm-elf/4.3.3/../../../../arm-elf/lib/interwork/libc.a(lib_a-strlen.o)
 .debug_aranges
                0x000012a0       0x20 /usr/local/arm-elf-tools/gcc-4.3.3/lib/gcc/arm-elf/4.3.3/../../../../arm-elf/lib/interwork/libc.a(lib_a-strncat.o)
 .debug_aranges
                0x000012c0       0x20 /usr/local/arm-elf-tools/gcc-4.3.3/lib/gcc/arm-elf/4.3.3/../../../../arm-elf/lib/interwork/libc.a(lib_a-strncmp.o)
 .debug_aranges
                0x000012e0       0x20 /usr/local/arm-elf-tools/gcc-4.3.3/lib/gcc/arm-elf/4.3.3/../../../../arm-elf/lib/interwork/libc.a(lib_a-strncpy.o)
 .debug_aranges
                0x00001300       0x20 /usr/local/arm-elf-tools/gcc-4.3.3/lib/gcc/arm-elf/4.3.3/../../../../arm-elf/lib/interwork/libc.a(lib_a-strnlen.o)
 .debug_aranges
                0x00001320       0x20 /usr/local/arm-elf-tools/gcc-4.3.3/lib/gcc/arm-elf/4.3.3/../../../../arm-elf/lib/interwork/libc.a(lib_a-strpbrk.o)
 .debug_aranges
                0x00001340       0x20 /usr/local/arm-elf-tools/gcc-4.3.3/lib/gcc/arm-elf/4.3.3/../../../../arm-elf/lib/interwork/libc.a(lib_a-strrchr.o)
 .debug_aranges
                0x00001360       0x20 /usr/local/arm-elf-tools/gcc-4.3.3/lib/gcc/arm-elf/4.3.3/../../../../arm-elf/lib/interwork/libc.a(lib_a-strstr.o)
 .debug_aranges
                0x00001380       0x20 /usr/local/arm-elf-tools/gcc-4.3.3/lib/gcc/arm-elf/4.3.3/../../../../arm-elf/lib/interwork/libc.a(lib_a-strtod.o)
 .debug_aranges
                0x000013a0       0x20 /usr/local/arm-elf-tools/gcc-4.3.3/lib/gcc/arm-elf/4.3.3/../../../../arm-elf/lib/interwork/libc.a(lib_a-strtoul.o)
 .debug_aranges
                0x000013c0       0x20 /usr/local/arm-elf-tools/gcc-4.3.3/lib/gcc/arm-elf/4.3.3/../../../../arm-elf/lib/interwork/libc.a(lib_a-svfprintf.o)
 .debug_aranges
                0x000013e0       0x20 /usr/local/arm-elf-tools/gcc-4.3.3/lib/gcc/arm-elf/4.3.3/../../../../arm-elf/lib/interwork/libc.a(lib_a-sysclose.o)
 .debug_aranges
                0x00001400       0x20 /usr/local/arm-elf-tools/gcc-4.3.3/lib/gcc/arm-elf/4.3.3/../../../../arm-elf/lib/interwork/libc.a(lib_a-sysgettod.o)
 .debug_aranges
                0x00001420       0x20 /usr/local/arm-elf-tools/gcc-4.3.3/lib/gcc/arm-elf/4.3.3/../../../../arm-elf/lib/interwork/libc.a(lib_a-sysopen.o)
 .debug_aranges
                0x00001440       0x20 /usr/local/arm-elf-tools/gcc-4.3.3/lib/gcc/arm-elf/4.3.3/../../../../arm-elf/lib/interwork/libc.a(lib_a-sysread.o)
 .debug_aranges
                0x00001460       0x20 /usr/local/arm-elf-tools/gcc-4.3.3/lib/gcc/arm-elf/4.3.3/../../../../arm-elf/lib/interwork/libc.a(lib_a-system.o)
 .debug_aranges
                0x00001480       0x20 /usr/local/arm-elf-tools/gcc-4.3.3/lib/gcc/arm-elf/4.3.3/../../../../arm-elf/lib/interwork/libc.a(lib_a-sysunlink.o)
 .debug_aranges
                0x000014a0       0x20 /usr/local/arm-elf-tools/gcc-4.3.3/lib/gcc/arm-elf/4.3.3/../../../../arm-elf/lib/interwork/libc.a(lib_a-syswrite.o)
 .debug_aranges
                0x000014c0       0x20 /usr/local/arm-elf-tools/gcc-4.3.3/lib/gcc/arm-elf/4.3.3/../../../../arm-elf/lib/interwork/libc.a(lib_a-time.o)
 .debug_aranges
                0x000014e0       0x20 /usr/local/arm-elf-tools/gcc-4.3.3/lib/gcc/arm-elf/4.3.3/../../../../arm-elf/lib/interwork/libc.a(lib_a-timesr.o)
 .debug_aranges
                0x00001500       0x20 /usr/local/arm-elf-tools/gcc-4.3.3/lib/gcc/arm-elf/4.3.3/../../../../arm-elf/lib/interwork/libc.a(lib_a-tmpfile.o)
 .debug_aranges
                0x00001520       0x20 /usr/local/arm-elf-tools/gcc-4.3.3/lib/gcc/arm-elf/4.3.3/../../../../arm-elf/lib/interwork/libc.a(lib_a-tmpnam.o)
 .debug_aranges
                0x00001540       0x20 /usr/local/arm-elf-tools/gcc-4.3.3/lib/gcc/arm-elf/4.3.3/../../../../arm-elf/lib/interwork/libc.a(lib_a-tzlock.o)
 .debug_aranges
                0x00001560       0x20 /usr/local/arm-elf-tools/gcc-4.3.3/lib/gcc/arm-elf/4.3.3/../../../../arm-elf/lib/interwork/libc.a(lib_a-ungetc.o)
 .debug_aranges
                0x00001580       0x20 /usr/local/arm-elf-tools/gcc-4.3.3/lib/gcc/arm-elf/4.3.3/../../../../arm-elf/lib/interwork/libc.a(lib_a-u_strerr.o)
 .debug_aranges
                0x000015a0       0x20 /usr/local/arm-elf-tools/gcc-4.3.3/lib/gcc/arm-elf/4.3.3/../../../../arm-elf/lib/interwork/libc.a(lib_a-vfprintf.o)
 .debug_aranges
                0x000015c0       0x20 /usr/local/arm-elf-tools/gcc-4.3.3/lib/gcc/arm-elf/4.3.3/../../../../arm-elf/lib/interwork/libc.a(lib_a-vfscanf.o)
 .debug_aranges
                0x000015e0       0x20 /usr/local/arm-elf-tools/gcc-4.3.3/lib/gcc/arm-elf/4.3.3/../../../../arm-elf/lib/interwork/libc.a(lib_a-vsnprintf.o)
 .debug_aranges
                0x00001600       0x20 /usr/local/arm-elf-tools/gcc-4.3.3/lib/gcc/arm-elf/4.3.3/../../../../arm-elf/lib/interwork/libc.a(lib_a-wbuf.o)
 .debug_aranges
                0x00001620       0x20 /usr/local/arm-elf-tools/gcc-4.3.3/lib/gcc/arm-elf/4.3.3/../../../../arm-elf/lib/interwork/libc.a(lib_a-wsetup.o)
 .debug_aranges
                0x00001640       0x20 /usr/local/arm-elf-tools/gcc-4.3.3/lib/gcc/arm-elf/4.3.3/../../../../arm-elf/lib/interwork/libc.a(lib_a-abs.o)
 .debug_aranges
                0x00001660       0x20 /usr/local/arm-elf-tools/gcc-4.3.3/lib/gcc/arm-elf/4.3.3/../../../../arm-elf/lib/interwork/libc.a(lib_a-__call_atexit.o)
 .debug_aranges
                0x00001680       0x20 /usr/local/arm-elf-tools/gcc-4.3.3/lib/gcc/arm-elf/4.3.3/../../../../arm-elf/lib/interwork/libc.a(lib_a-div.o)
 .debug_aranges
                0x000016a0       0x20 /usr/local/arm-elf-tools/gcc-4.3.3/lib/gcc/arm-elf/4.3.3/../../../../arm-elf/lib/interwork/libc.a(lib_a-dtoa.o)
 .debug_aranges
                0x000016c0       0x20 /usr/local/arm-elf-tools/gcc-4.3.3/lib/gcc/arm-elf/4.3.3/../../../../arm-elf/lib/interwork/libc.a(lib_a-envlock.o)
 .debug_aranges
                0x000016e0       0x20 /usr/local/arm-elf-tools/gcc-4.3.3/lib/gcc/arm-elf/4.3.3/../../../../arm-elf/lib/interwork/libc.a(lib_a-gdtoa-gethex.o)
 .debug_aranges
                0x00001700       0x20 /usr/local/arm-elf-tools/gcc-4.3.3/lib/gcc/arm-elf/4.3.3/../../../../arm-elf/lib/interwork/libc.a(lib_a-gdtoa-hexnan.o)
 .debug_aranges
                0x00001720       0x20 /usr/local/arm-elf-tools/gcc-4.3.3/lib/gcc/arm-elf/4.3.3/../../../../arm-elf/lib/interwork/libc.a(lib_a-gettimeofdayr.o)
 .debug_aranges
                0x00001740       0x20 /usr/local/arm-elf-tools/gcc-4.3.3/lib/gcc/arm-elf/4.3.3/../../../../arm-elf/lib/interwork/libc.a(lib_a-gettzinfo.o)
 .debug_aranges
                0x00001760       0x20 /usr/local/arm-elf-tools/gcc-4.3.3/lib/gcc/arm-elf/4.3.3/../../../../arm-elf/lib/interwork/libc.a(lib_a-isattyr.o)
 .debug_aranges
                0x00001780       0x20 /usr/local/arm-elf-tools/gcc-4.3.3/lib/gcc/arm-elf/4.3.3/../../../../arm-elf/lib/interwork/libc.a(lib_a-iswspace.o)
 .debug_aranges
                0x000017a0       0x20 /usr/local/arm-elf-tools/gcc-4.3.3/lib/gcc/arm-elf/4.3.3/../../../../arm-elf/lib/interwork/libc.a(lib_a-labs.o)
 .debug_aranges
                0x000017c0       0x20 /usr/local/arm-elf-tools/gcc-4.3.3/lib/gcc/arm-elf/4.3.3/../../../../arm-elf/lib/interwork/libc.a(lib_a-mbrtowc.o)
 .debug_aranges
                0x000017e0       0x20 /usr/local/arm-elf-tools/gcc-4.3.3/lib/gcc/arm-elf/4.3.3/../../../../arm-elf/lib/interwork/libc.a(lib_a-mbtowc_r.o)
 .debug_aranges
                0x00001800       0x20 /usr/local/arm-elf-tools/gcc-4.3.3/lib/gcc/arm-elf/4.3.3/../../../../arm-elf/lib/interwork/libc.a(lib_a-mprec.o)
 .debug_aranges
                0x00001820       0x20 /usr/local/arm-elf-tools/gcc-4.3.3/lib/gcc/arm-elf/4.3.3/../../../../arm-elf/lib/interwork/libc.a(lib_a-reent.o)
 .debug_aranges
                0x00001840       0x20 /usr/local/arm-elf-tools/gcc-4.3.3/lib/gcc/arm-elf/4.3.3/../../../../arm-elf/lib/interwork/libc.a(lib_a-sccl.o)
 .debug_aranges
                0x00001860       0x20 /usr/local/arm-elf-tools/gcc-4.3.3/lib/gcc/arm-elf/4.3.3/../../../../arm-elf/lib/interwork/libc.a(lib_a-sf_nan.o)
 .debug_aranges
                0x00001880       0x20 /usr/local/arm-elf-tools/gcc-4.3.3/lib/gcc/arm-elf/4.3.3/../../../../arm-elf/lib/interwork/libc.a(lib_a-s_isinfd.o)
 .debug_aranges
                0x000018a0       0x20 /usr/local/arm-elf-tools/gcc-4.3.3/lib/gcc/arm-elf/4.3.3/../../../../arm-elf/lib/interwork/libc.a(lib_a-strtol.o)

.debug_ranges   0x00000000     0x1040
 .debug_ranges  0x00000000       0x20 /usr/local/arm-elf-tools/gcc-4.3.3/lib/gcc/arm-elf/4.3.3/../../../../arm-elf/lib/interwork/libm.a(lib_a-s_atan.o)
 .debug_ranges  0x00000020       0x38 /usr/local/arm-elf-tools/gcc-4.3.3/lib/gcc/arm-elf/4.3.3/../../../../arm-elf/lib/interwork/libm.a(lib_a-s_fabs.o)
 .debug_ranges  0x00000058       0x28 /usr/local/arm-elf-tools/gcc-4.3.3/lib/gcc/arm-elf/4.3.3/../../../../arm-elf/lib/interwork/libm.a(lib_a-s_frexp.o)
 .debug_ranges  0x00000080       0x68 /usr/local/arm-elf-tools/gcc-4.3.3/lib/gcc/arm-elf/4.3.3/../../../../arm-elf/lib/interwork/libm.a(lib_a-s_modf.o)
 .debug_ranges  0x000000e8       0x50 /usr/local/arm-elf-tools/gcc-4.3.3/lib/gcc/arm-elf/4.3.3/../../../../arm-elf/lib/interwork/libm.a(lib_a-s_scalbn.o)
 .debug_ranges  0x00000138       0x30 /usr/local/arm-elf-tools/gcc-4.3.3/lib/gcc/arm-elf/4.3.3/../../../../arm-elf/lib/interwork/libm.a(lib_a-e_acos.o)
 .debug_ranges  0x00000168       0x18 /usr/local/arm-elf-tools/gcc-4.3.3/lib/gcc/arm-elf/4.3.3/../../../../arm-elf/lib/interwork/libm.a(lib_a-e_asin.o)
 .debug_ranges  0x00000180       0x38 /usr/local/arm-elf-tools/gcc-4.3.3/lib/gcc/arm-elf/4.3.3/../../../../arm-elf/lib/interwork/libm.a(lib_a-e_atan2.o)
 .debug_ranges  0x000001b8       0x18 /usr/local/arm-elf-tools/gcc-4.3.3/lib/gcc/arm-elf/4.3.3/../../../../arm-elf/lib/interwork/libm.a(lib_a-e_exp.o)
 .debug_ranges  0x000001d0       0x30 /usr/local/arm-elf-tools/gcc-4.3.3/lib/gcc/arm-elf/4.3.3/../../../../arm-elf/lib/interwork/libm.a(lib_a-e_fmod.o)
 .debug_ranges  0x00000200       0x48 /usr/local/arm-elf-tools/gcc-4.3.3/lib/gcc/arm-elf/4.3.3/../../../../arm-elf/lib/interwork/libm.a(lib_a-e_log10.o)
 .debug_ranges  0x00000248       0x60 /usr/local/arm-elf-tools/gcc-4.3.3/lib/gcc/arm-elf/4.3.3/../../../../arm-elf/lib/interwork/libm.a(lib_a-e_log.o)
 .debug_ranges  0x000002a8      0x130 /usr/local/arm-elf-tools/gcc-4.3.3/lib/gcc/arm-elf/4.3.3/../../../../arm-elf/lib/interwork/libm.a(lib_a-e_pow.o)
 .debug_ranges  0x000003d8       0x38 /usr/local/arm-elf-tools/gcc-4.3.3/lib/gcc/arm-elf/4.3.3/../../../../arm-elf/lib/interwork/libm.a(lib_a-e_rem_pio2.o)
 .debug_ranges  0x00000410       0x18 /usr/local/arm-elf-tools/gcc-4.3.3/lib/gcc/arm-elf/4.3.3/../../../../arm-elf/lib/interwork/libm.a(lib_a-e_sqrt.o)
 .debug_ranges  0x00000428       0x48 /usr/local/arm-elf-tools/gcc-4.3.3/lib/gcc/arm-elf/4.3.3/../../../../arm-elf/lib/interwork/libm.a(lib_a-k_tan.o)
 .debug_ranges  0x00000470       0x20 /usr/local/arm-elf-tools/gcc-4.3.3/lib/gcc/arm-elf/4.3.3/../../../../arm-elf/lib/interwork/libm.a(lib_a-s_copysign.o)
 .debug_ranges  0x00000490       0x80 /usr/local/arm-elf-tools/gcc-4.3.3/lib/gcc/arm-elf/4.3.3/../../../../arm-elf/lib/interwork/libm.a(lib_a-s_expm1.o)
 .debug_ranges  0x00000510       0x18 /usr/local/arm-elf-tools/gcc-4.3.3/lib/gcc/arm-elf/4.3.3/../../../../arm-elf/lib/interwork/libm.a(lib_a-s_nan.o)
 .debug_ranges  0x00000528       0x38 /usr/local/arm-elf-tools/gcc-4.3.3/lib/gcc/arm-elf/4.3.3/../../../../arm-elf/lib/interwork/libm.a(lib_a-s_rint.o)
 .debug_ranges  0x00000560       0x88 /usr/local/arm-elf-tools/gcc-4.3.3/lib/gcc/arm-elf/4.3.3/interwork/libgcc.a(_mul_sf.o)
 .debug_ranges  0x000005e8       0x60 /usr/local/arm-elf-tools/gcc-4.3.3/lib/gcc/arm-elf/4.3.3/interwork/libgcc.a(_div_sf.o)
 .debug_ranges  0x00000648       0x18 /usr/local/arm-elf-tools/gcc-4.3.3/lib/gcc/arm-elf/4.3.3/interwork/libgcc.a(_si_to_sf.o)
 .debug_ranges  0x00000660       0x28 /usr/local/arm-elf-tools/gcc-4.3.3/lib/gcc/arm-elf/4.3.3/interwork/libgcc.a(_addsub_df.o)
 .debug_ranges  0x00000688       0x98 /usr/local/arm-elf-tools/gcc-4.3.3/lib/gcc/arm-elf/4.3.3/interwork/libgcc.a(_mul_df.o)
 .debug_ranges  0x00000720       0x60 /usr/local/arm-elf-tools/gcc-4.3.3/lib/gcc/arm-elf/4.3.3/interwork/libgcc.a(_div_df.o)
 .debug_ranges  0x00000780       0x18 /usr/local/arm-elf-tools/gcc-4.3.3/lib/gcc/arm-elf/4.3.3/interwork/libgcc.a(_si_to_df.o)
 .debug_ranges  0x00000798       0x20 /usr/local/arm-elf-tools/gcc-4.3.3/lib/gcc/arm-elf/4.3.3/interwork/libgcc.a(_clzsi2.o)
 .debug_ranges  0x000007b8       0x18 /usr/local/arm-elf-tools/gcc-4.3.3/lib/gcc/arm-elf/4.3.3/interwork/libgcc.a(_pack_df.o)
 .debug_ranges  0x000007d0       0x18 /usr/local/arm-elf-tools/gcc-4.3.3/lib/gcc/arm-elf/4.3.3/../../../../arm-elf/lib/interwork/libc.a(lib_a-callocr.o)
 .debug_ranges  0x000007e8       0x30 /usr/local/arm-elf-tools/gcc-4.3.3/lib/gcc/arm-elf/4.3.3/../../../../arm-elf/lib/interwork/libc.a(lib_a-fflush.o)
 .debug_ranges  0x00000818       0x18 /usr/local/arm-elf-tools/gcc-4.3.3/lib/gcc/arm-elf/4.3.3/../../../../arm-elf/lib/interwork/libc.a(lib_a-findfp.o)
 .debug_ranges  0x00000830       0x20 /usr/local/arm-elf-tools/gcc-4.3.3/lib/gcc/arm-elf/4.3.3/../../../../arm-elf/lib/interwork/libc.a(lib_a-fvwrite.o)
 .debug_ranges  0x00000850       0x40 /usr/local/arm-elf-tools/gcc-4.3.3/lib/gcc/arm-elf/4.3.3/../../../../arm-elf/lib/interwork/libc.a(lib_a-fwalk.o)
 .debug_ranges  0x00000890       0x58 /usr/local/arm-elf-tools/gcc-4.3.3/lib/gcc/arm-elf/4.3.3/../../../../arm-elf/lib/interwork/libc.a(lib_a-mallocr.o)
 .debug_ranges  0x000008e8       0x50 /usr/local/arm-elf-tools/gcc-4.3.3/lib/gcc/arm-elf/4.3.3/../../../../arm-elf/lib/interwork/libc.a(lib_a-mktime.o)
 .debug_ranges  0x00000938       0x40 /usr/local/arm-elf-tools/gcc-4.3.3/lib/gcc/arm-elf/4.3.3/../../../../arm-elf/lib/interwork/libc.a(lib_a-mktm_r.o)
 .debug_ranges  0x00000978       0x58 /usr/local/arm-elf-tools/gcc-4.3.3/lib/gcc/arm-elf/4.3.3/../../../../arm-elf/lib/interwork/libc.a(lib_a-reallocr.o)
 .debug_ranges  0x000009d0       0x18 /usr/local/arm-elf-tools/gcc-4.3.3/lib/gcc/arm-elf/4.3.3/../../../../arm-elf/lib/interwork/libc.a(lib_a-remove.o)
 .debug_ranges  0x000009e8       0xf8 /usr/local/arm-elf-tools/gcc-4.3.3/lib/gcc/arm-elf/4.3.3/../../../../arm-elf/lib/interwork/libc.a(lib_a-strftime.o)
 .debug_ranges  0x00000ae0       0xc8 /usr/local/arm-elf-tools/gcc-4.3.3/lib/gcc/arm-elf/4.3.3/../../../../arm-elf/lib/interwork/libc.a(lib_a-strstr.o)
 .debug_ranges  0x00000ba8       0xb8 /usr/local/arm-elf-tools/gcc-4.3.3/lib/gcc/arm-elf/4.3.3/../../../../arm-elf/lib/interwork/libc.a(lib_a-strtod.o)
 .debug_ranges  0x00000c60      0x108 /usr/local/arm-elf-tools/gcc-4.3.3/lib/gcc/arm-elf/4.3.3/../../../../arm-elf/lib/interwork/libc.a(lib_a-svfprintf.o)
 .debug_ranges  0x00000d68      0x130 /usr/local/arm-elf-tools/gcc-4.3.3/lib/gcc/arm-elf/4.3.3/../../../../arm-elf/lib/interwork/libc.a(lib_a-vfprintf.o)
 .debug_ranges  0x00000e98       0xb0 /usr/local/arm-elf-tools/gcc-4.3.3/lib/gcc/arm-elf/4.3.3/../../../../arm-elf/lib/interwork/libc.a(lib_a-vfscanf.o)
 .debug_ranges  0x00000f48       0x20 /usr/local/arm-elf-tools/gcc-4.3.3/lib/gcc/arm-elf/4.3.3/../../../../arm-elf/lib/interwork/libc.a(lib_a-__call_atexit.o)
 .debug_ranges  0x00000f68       0x40 /usr/local/arm-elf-tools/gcc-4.3.3/lib/gcc/arm-elf/4.3.3/../../../../arm-elf/lib/interwork/libc.a(lib_a-gdtoa-gethex.o)
 .debug_ranges  0x00000fa8       0x98 /usr/local/arm-elf-tools/gcc-4.3.3/lib/gcc/arm-elf/4.3.3/../../../../arm-elf/lib/interwork/libc.a(lib_a-mprec.o)

.debug_str      0x00000000     0x463e
 .debug_str     0x00000000       0xe5 /usr/local/arm-elf-tools/gcc-4.3.3/lib/gcc/arm-elf/4.3.3/../../../../arm-elf/lib/interwork/libm.a(lib_a-s_atan.o)
                                0x13c (size before relaxing)
 .debug_str     0x000000e5       0x48 /usr/local/arm-elf-tools/gcc-4.3.3/lib/gcc/arm-elf/4.3.3/../../../../arm-elf/lib/interwork/libm.a(lib_a-s_ceil.o)
                                0x133 (size before relaxing)
 .debug_str     0x0000012d       0x38 /usr/local/arm-elf-tools/gcc-4.3.3/lib/gcc/arm-elf/4.3.3/../../../../arm-elf/lib/interwork/libm.a(lib_a-s_cos.o)
                                 0xf0 (size before relaxing)
 .debug_str     0x00000165       0x48 /usr/local/arm-elf-tools/gcc-4.3.3/lib/gcc/arm-elf/4.3.3/../../../../arm-elf/lib/interwork/libm.a(lib_a-s_fabs.o)
                                0x129 (size before relaxing)
 .debug_str     0x000001ad       0x40 /usr/local/arm-elf-tools/gcc-4.3.3/lib/gcc/arm-elf/4.3.3/../../../../arm-elf/lib/interwork/libm.a(lib_a-s_floor.o)
                                0x135 (size before relaxing)
 .debug_str     0x000001ed       0x4b /usr/local/arm-elf-tools/gcc-4.3.3/lib/gcc/arm-elf/4.3.3/../../../../arm-elf/lib/interwork/libm.a(lib_a-s_frexp.o)
                                0x140 (size before relaxing)
 .debug_str     0x00000238       0x40 /usr/local/arm-elf-tools/gcc-4.3.3/lib/gcc/arm-elf/4.3.3/../../../../arm-elf/lib/interwork/libm.a(lib_a-s_ldexp.o)
                                 0xf4 (size before relaxing)
 .debug_str     0x00000278       0x45 /usr/local/arm-elf-tools/gcc-4.3.3/lib/gcc/arm-elf/4.3.3/../../../../arm-elf/lib/interwork/libm.a(lib_a-s_modf.o)
                                0x13a (size before relaxing)
 .debug_str     0x000002bd       0x50 /usr/local/arm-elf-tools/gcc-4.3.3/lib/gcc/arm-elf/4.3.3/../../../../arm-elf/lib/interwork/libm.a(lib_a-s_scalbn.o)
                                0x150 (size before relaxing)
 .debug_str     0x0000030d       0x38 /usr/local/arm-elf-tools/gcc-4.3.3/lib/gcc/arm-elf/4.3.3/../../../../arm-elf/lib/interwork/libm.a(lib_a-s_sin.o)
                                 0xf0 (size before relaxing)
 .debug_str     0x00000345       0x3e /usr/local/arm-elf-tools/gcc-4.3.3/lib/gcc/arm-elf/4.3.3/../../../../arm-elf/lib/interwork/libm.a(lib_a-s_tanh.o)
                                0x12e (size before relaxing)
 .debug_str     0x00000383       0x38 /usr/local/arm-elf-tools/gcc-4.3.3/lib/gcc/arm-elf/4.3.3/../../../../arm-elf/lib/interwork/libm.a(lib_a-s_tan.o)
                                0x123 (size before relaxing)
 .debug_str     0x000003bb       0xaf /usr/local/arm-elf-tools/gcc-4.3.3/lib/gcc/arm-elf/4.3.3/../../../../arm-elf/lib/interwork/libm.a(lib_a-w_acos.o)
                                0x16c (size before relaxing)
 .debug_str     0x0000046a       0x39 /usr/local/arm-elf-tools/gcc-4.3.3/lib/gcc/arm-elf/4.3.3/../../../../arm-elf/lib/interwork/libm.a(lib_a-w_asin.o)
                                0x16c (size before relaxing)
 .debug_str     0x000004a3       0x3a /usr/local/arm-elf-tools/gcc-4.3.3/lib/gcc/arm-elf/4.3.3/../../../../arm-elf/lib/interwork/libm.a(lib_a-w_atan2.o)
                                 0xee (size before relaxing)
 .debug_str     0x000004dd       0x39 /usr/local/arm-elf-tools/gcc-4.3.3/lib/gcc/arm-elf/4.3.3/../../../../arm-elf/lib/interwork/libm.a(lib_a-w_cosh.o)
                                0x16c (size before relaxing)
 .debug_str     0x00000516       0x50 /usr/local/arm-elf-tools/gcc-4.3.3/lib/gcc/arm-elf/4.3.3/../../../../arm-elf/lib/interwork/libm.a(lib_a-w_exp.o)
                                0x17e (size before relaxing)
 .debug_str     0x00000566       0x39 /usr/local/arm-elf-tools/gcc-4.3.3/lib/gcc/arm-elf/4.3.3/../../../../arm-elf/lib/interwork/libm.a(lib_a-w_fmod.o)
                                0x16c (size before relaxing)
 .debug_str     0x0000059f       0x3a /usr/local/arm-elf-tools/gcc-4.3.3/lib/gcc/arm-elf/4.3.3/../../../../arm-elf/lib/interwork/libm.a(lib_a-w_log10.o)
                                0x16e (size before relaxing)
 .debug_str     0x000005d9       0x38 /usr/local/arm-elf-tools/gcc-4.3.3/lib/gcc/arm-elf/4.3.3/../../../../arm-elf/lib/interwork/libm.a(lib_a-w_log.o)
                                0x166 (size before relaxing)
 .debug_str     0x00000611       0x38 /usr/local/arm-elf-tools/gcc-4.3.3/lib/gcc/arm-elf/4.3.3/../../../../arm-elf/lib/interwork/libm.a(lib_a-w_pow.o)
                                0x166 (size before relaxing)
 .debug_str     0x00000649       0x39 /usr/local/arm-elf-tools/gcc-4.3.3/lib/gcc/arm-elf/4.3.3/../../../../arm-elf/lib/interwork/libm.a(lib_a-w_sinh.o)
                                0x16c (size before relaxing)
 .debug_str     0x00000682       0x39 /usr/local/arm-elf-tools/gcc-4.3.3/lib/gcc/arm-elf/4.3.3/../../../../arm-elf/lib/interwork/libm.a(lib_a-w_sqrt.o)
                                0x16c (size before relaxing)
 .debug_str     0x000006bb       0x5d /usr/local/arm-elf-tools/gcc-4.3.3/lib/gcc/arm-elf/4.3.3/../../../../arm-elf/lib/interwork/libm.a(lib_a-e_acos.o)
                                0x148 (size before relaxing)
 .debug_str     0x00000718       0x55 /usr/local/arm-elf-tools/gcc-4.3.3/lib/gcc/arm-elf/4.3.3/../../../../arm-elf/lib/interwork/libm.a(lib_a-e_asin.o)
                                0x15a (size before relaxing)
 .debug_str     0x0000076d       0x5e /usr/local/arm-elf-tools/gcc-4.3.3/lib/gcc/arm-elf/4.3.3/../../../../arm-elf/lib/interwork/libm.a(lib_a-e_atan2.o)
                                0x158 (size before relaxing)
 .debug_str     0x000007cb       0x4d /usr/local/arm-elf-tools/gcc-4.3.3/lib/gcc/arm-elf/4.3.3/../../../../arm-elf/lib/interwork/libm.a(lib_a-e_cosh.o)
                                0x13d (size before relaxing)
 .debug_str     0x00000818       0x67 /usr/local/arm-elf-tools/gcc-4.3.3/lib/gcc/arm-elf/4.3.3/../../../../arm-elf/lib/interwork/libm.a(lib_a-e_exp.o)
                                0x179 (size before relaxing)
 .debug_str     0x0000087f       0x48 /usr/local/arm-elf-tools/gcc-4.3.3/lib/gcc/arm-elf/4.3.3/../../../../arm-elf/lib/interwork/libm.a(lib_a-e_fmod.o)
                                0x13d (size before relaxing)
 .debug_str     0x000008c7       0x65 /usr/local/arm-elf-tools/gcc-4.3.3/lib/gcc/arm-elf/4.3.3/../../../../arm-elf/lib/interwork/libm.a(lib_a-e_log10.o)
                                0x165 (size before relaxing)
 .debug_str     0x0000092c       0x59 /usr/local/arm-elf-tools/gcc-4.3.3/lib/gcc/arm-elf/4.3.3/../../../../arm-elf/lib/interwork/libm.a(lib_a-e_log.o)
                                0x159 (size before relaxing)
 .debug_str     0x00000985       0x89 /usr/local/arm-elf-tools/gcc-4.3.3/lib/gcc/arm-elf/4.3.3/../../../../arm-elf/lib/interwork/libm.a(lib_a-e_pow.o)
                                0x192 (size before relaxing)
 .debug_str     0x00000a0e       0xa0 /usr/local/arm-elf-tools/gcc-4.3.3/lib/gcc/arm-elf/4.3.3/../../../../arm-elf/lib/interwork/libm.a(lib_a-e_rem_pio2.o)
                                0x19f (size before relaxing)
 .debug_str     0x00000aae       0x4e /usr/local/arm-elf-tools/gcc-4.3.3/lib/gcc/arm-elf/4.3.3/../../../../arm-elf/lib/interwork/libm.a(lib_a-e_sinh.o)
                                0x111 (size before relaxing)
 .debug_str     0x00000afc       0x48 /usr/local/arm-elf-tools/gcc-4.3.3/lib/gcc/arm-elf/4.3.3/../../../../arm-elf/lib/interwork/libm.a(lib_a-e_sqrt.o)
                                0x142 (size before relaxing)
 .debug_str     0x00000b44       0x45 /usr/local/arm-elf-tools/gcc-4.3.3/lib/gcc/arm-elf/4.3.3/../../../../arm-elf/lib/interwork/libm.a(lib_a-k_cos.o)
                                0x135 (size before relaxing)
 .debug_str     0x00000b89       0x79 /usr/local/arm-elf-tools/gcc-4.3.3/lib/gcc/arm-elf/4.3.3/../../../../arm-elf/lib/interwork/libm.a(lib_a-k_rem_pio2.o)
                                0x141 (size before relaxing)
 .debug_str     0x00000c02       0x45 /usr/local/arm-elf-tools/gcc-4.3.3/lib/gcc/arm-elf/4.3.3/../../../../arm-elf/lib/interwork/libm.a(lib_a-k_sin.o)
                                0x135 (size before relaxing)
 .debug_str     0x00000c47       0x51 /usr/local/arm-elf-tools/gcc-4.3.3/lib/gcc/arm-elf/4.3.3/../../../../arm-elf/lib/interwork/libm.a(lib_a-k_tan.o)
                                0x146 (size before relaxing)
 .debug_str     0x00000c98       0x48 /usr/local/arm-elf-tools/gcc-4.3.3/lib/gcc/arm-elf/4.3.3/../../../../arm-elf/lib/interwork/libm.a(lib_a-s_copysign.o)
                                0x12e (size before relaxing)
 .debug_str     0x00000ce0       0x42 /usr/local/arm-elf-tools/gcc-4.3.3/lib/gcc/arm-elf/4.3.3/../../../../arm-elf/lib/interwork/libm.a(lib_a-s_expm1.o)
                                0x167 (size before relaxing)
 .debug_str     0x00000d22       0x3d /usr/local/arm-elf-tools/gcc-4.3.3/lib/gcc/arm-elf/4.3.3/../../../../arm-elf/lib/interwork/libm.a(lib_a-s_finite.o)
                                0x12f (size before relaxing)
 .debug_str     0x00000d5f       0x46 /usr/local/arm-elf-tools/gcc-4.3.3/lib/gcc/arm-elf/4.3.3/../../../../arm-elf/lib/interwork/libm.a(lib_a-s_isnand.o)
                                0x131 (size before relaxing)
 .debug_str     0x00000da5       0x3e /usr/local/arm-elf-tools/gcc-4.3.3/lib/gcc/arm-elf/4.3.3/../../../../arm-elf/lib/interwork/libm.a(lib_a-s_lib_ver.o)
                                0x147 (size before relaxing)
 .debug_str     0x00000de3       0x46 /usr/local/arm-elf-tools/gcc-4.3.3/lib/gcc/arm-elf/4.3.3/../../../../arm-elf/lib/interwork/libm.a(lib_a-s_matherr.o)
                                0x119 (size before relaxing)
 .debug_str     0x00000e29       0x3a /usr/local/arm-elf-tools/gcc-4.3.3/lib/gcc/arm-elf/4.3.3/../../../../arm-elf/lib/interwork/libm.a(lib_a-s_nan.o)
                                0x122 (size before relaxing)
 .debug_str     0x00000e63       0x46 /usr/local/arm-elf-tools/gcc-4.3.3/lib/gcc/arm-elf/4.3.3/../../../../arm-elf/lib/interwork/libm.a(lib_a-s_rint.o)
                                0x13b (size before relaxing)
 .debug_str     0x00000ea9       0xb2 /usr/local/arm-elf-tools/gcc-4.3.3/lib/gcc/arm-elf/4.3.3/interwork/libgcc.a(_fixunsdfsi.o)
                                0x14f (size before relaxing)
 .debug_str     0x00000f5b      0x106 /usr/local/arm-elf-tools/gcc-4.3.3/lib/gcc/arm-elf/4.3.3/interwork/libgcc.a(_mul_sf.o)
                                0x200 (size before relaxing)
 .debug_str     0x00001061       0x35 /usr/local/arm-elf-tools/gcc-4.3.3/lib/gcc/arm-elf/4.3.3/interwork/libgcc.a(_div_sf.o)
                                0x20b (size before relaxing)
 .debug_str     0x00001096       0x10 /usr/local/arm-elf-tools/gcc-4.3.3/lib/gcc/arm-elf/4.3.3/interwork/libgcc.a(_eq_sf.o)
                                0x1d9 (size before relaxing)
 .debug_str     0x000010a6       0x18 /usr/local/arm-elf-tools/gcc-4.3.3/lib/gcc/arm-elf/4.3.3/interwork/libgcc.a(_si_to_sf.o)
                                0x1be (size before relaxing)
 .debug_str     0x000010be        0xe /usr/local/arm-elf-tools/gcc-4.3.3/lib/gcc/arm-elf/4.3.3/interwork/libgcc.a(_sf_to_df.o)
                                0x1d2 (size before relaxing)
 .debug_str     0x00000000      0x183 /usr/local/arm-elf-tools/gcc-4.3.3/lib/gcc/arm-elf/4.3.3/interwork/libgcc.a(_thenan_sf.o)
 .debug_str     0x000010cc       0x14 /usr/local/arm-elf-tools/gcc-4.3.3/lib/gcc/arm-elf/4.3.3/interwork/libgcc.a(_usi_to_sf.o)
                                0x1ba (size before relaxing)
 .debug_str     0x000010e0       0x91 /usr/local/arm-elf-tools/gcc-4.3.3/lib/gcc/arm-elf/4.3.3/interwork/libgcc.a(_addsub_df.o)
                                0x24f (size before relaxing)
 .debug_str     0x00001171       0x33 /usr/local/arm-elf-tools/gcc-4.3.3/lib/gcc/arm-elf/4.3.3/interwork/libgcc.a(_mul_df.o)
                                0x221 (size before relaxing)
 .debug_str     0x000011a4        0x9 /usr/local/arm-elf-tools/gcc-4.3.3/lib/gcc/arm-elf/4.3.3/interwork/libgcc.a(_div_df.o)
                                0x211 (size before relaxing)
 .debug_str     0x000011ad        0x8 /usr/local/arm-elf-tools/gcc-4.3.3/lib/gcc/arm-elf/4.3.3/interwork/libgcc.a(_eq_df.o)
                                0x1df (size before relaxing)
 .debug_str     0x000011b5        0x8 /usr/local/arm-elf-tools/gcc-4.3.3/lib/gcc/arm-elf/4.3.3/interwork/libgcc.a(_ne_df.o)
                                0x1df (size before relaxing)
 .debug_str     0x000011bd        0x8 /usr/local/arm-elf-tools/gcc-4.3.3/lib/gcc/arm-elf/4.3.3/interwork/libgcc.a(_gt_df.o)
                                0x1df (size before relaxing)
 .debug_str     0x000011c5        0x8 /usr/local/arm-elf-tools/gcc-4.3.3/lib/gcc/arm-elf/4.3.3/interwork/libgcc.a(_ge_df.o)
                                0x1df (size before relaxing)
 .debug_str     0x000011cd        0x8 /usr/local/arm-elf-tools/gcc-4.3.3/lib/gcc/arm-elf/4.3.3/interwork/libgcc.a(_lt_df.o)
                                0x1df (size before relaxing)
 .debug_str     0x000011d5        0x8 /usr/local/arm-elf-tools/gcc-4.3.3/lib/gcc/arm-elf/4.3.3/interwork/libgcc.a(_le_df.o)
                                0x1df (size before relaxing)
 .debug_str     0x000011dd        0xc /usr/local/arm-elf-tools/gcc-4.3.3/lib/gcc/arm-elf/4.3.3/interwork/libgcc.a(_si_to_df.o)
                                0x1be (size before relaxing)
 .debug_str     0x000011e9        0xa /usr/local/arm-elf-tools/gcc-4.3.3/lib/gcc/arm-elf/4.3.3/interwork/libgcc.a(_df_to_si.o)
                                0x1e7 (size before relaxing)
 .debug_str     0x000011f3        0xa /usr/local/arm-elf-tools/gcc-4.3.3/lib/gcc/arm-elf/4.3.3/interwork/libgcc.a(_make_df.o)
                                0x199 (size before relaxing)
 .debug_str     0x000011fd       0x14 /usr/local/arm-elf-tools/gcc-4.3.3/lib/gcc/arm-elf/4.3.3/interwork/libgcc.a(_df_to_sf.o)
                                0x1de (size before relaxing)
 .debug_str     0x00000000      0x183 /usr/local/arm-elf-tools/gcc-4.3.3/lib/gcc/arm-elf/4.3.3/interwork/libgcc.a(_thenan_df.o)
 .debug_str     0x00001211        0xe /usr/local/arm-elf-tools/gcc-4.3.3/lib/gcc/arm-elf/4.3.3/interwork/libgcc.a(_usi_to_df.o)
                                0x1ba (size before relaxing)
 .debug_str     0x0000121f       0x2b /usr/local/arm-elf-tools/gcc-4.3.3/lib/gcc/arm-elf/4.3.3/interwork/libgcc.a(_ucmpdi2.o)
                                0x171 (size before relaxing)
 .debug_str     0x0000124a       0x20 /usr/local/arm-elf-tools/gcc-4.3.3/lib/gcc/arm-elf/4.3.3/interwork/libgcc.a(_clzsi2.o)
                                0x162 (size before relaxing)
 .debug_str     0x0000126a       0x10 /usr/local/arm-elf-tools/gcc-4.3.3/lib/gcc/arm-elf/4.3.3/interwork/libgcc.a(_pack_sf.o)
                                0x1e0 (size before relaxing)
 .debug_str     0x0000127a        0xb /usr/local/arm-elf-tools/gcc-4.3.3/lib/gcc/arm-elf/4.3.3/interwork/libgcc.a(_unpack_sf.o)
                                0x1c2 (size before relaxing)
 .debug_str     0x00001285       0x10 /usr/local/arm-elf-tools/gcc-4.3.3/lib/gcc/arm-elf/4.3.3/interwork/libgcc.a(_fpcmp_parts_sf.o)
                                0x1a6 (size before relaxing)
 .debug_str     0x00001295        0xa /usr/local/arm-elf-tools/gcc-4.3.3/lib/gcc/arm-elf/4.3.3/interwork/libgcc.a(_make_sf.o)
                                0x199 (size before relaxing)
 .debug_str     0x0000129f        0x9 /usr/local/arm-elf-tools/gcc-4.3.3/lib/gcc/arm-elf/4.3.3/interwork/libgcc.a(_pack_df.o)
                                0x1e6 (size before relaxing)
 .debug_str     0x000012a8       0x13 /usr/local/arm-elf-tools/gcc-4.3.3/lib/gcc/arm-elf/4.3.3/interwork/libgcc.a(_unpack_df.o)
                                0x1d0 (size before relaxing)
 .debug_str     0x000012bb       0x10 /usr/local/arm-elf-tools/gcc-4.3.3/lib/gcc/arm-elf/4.3.3/interwork/libgcc.a(_fpcmp_parts_df.o)
                                0x1a6 (size before relaxing)
 .debug_str     0x00000000      0x145 /usr/local/arm-elf-tools/gcc-4.3.3/lib/gcc/arm-elf/4.3.3/interwork/libgcc.a(_clz.o)
 .debug_str     0x000012cb       0x40 /usr/local/arm-elf-tools/gcc-4.3.3/lib/gcc/arm-elf/4.3.3/../../../../arm-elf/lib/interwork/libc.a(lib_a-abort.o)
                                 0xd5 (size before relaxing)
 .debug_str     0x0000130b      0x3b7 /usr/local/arm-elf-tools/gcc-4.3.3/lib/gcc/arm-elf/4.3.3/../../../../arm-elf/lib/interwork/libc.a(lib_a-calloc.o)
                                0x49e (size before relaxing)
 .debug_str     0x000016c2       0x80 /usr/local/arm-elf-tools/gcc-4.3.3/lib/gcc/arm-elf/4.3.3/../../../../arm-elf/lib/interwork/libc.a(lib_a-callocr.o)
                                0x4d0 (size before relaxing)
 .debug_str     0x00001742       0x76 /usr/local/arm-elf-tools/gcc-4.3.3/lib/gcc/arm-elf/4.3.3/../../../../arm-elf/lib/interwork/libc.a(lib_a-clock.o)
                                0x4c6 (size before relaxing)
 .debug_str     0x000017b8       0x5c /usr/local/arm-elf-tools/gcc-4.3.3/lib/gcc/arm-elf/4.3.3/../../../../arm-elf/lib/interwork/libc.a(lib_a-ctype_.o)
                                 0x6d (size before relaxing)
 .debug_str     0x00001814       0x55 /usr/local/arm-elf-tools/gcc-4.3.3/lib/gcc/arm-elf/4.3.3/../../../../arm-elf/lib/interwork/libc.a(lib_a-difftime.o)
                                 0xf1 (size before relaxing)
 .debug_str     0x00001869       0x41 /usr/local/arm-elf-tools/gcc-4.3.3/lib/gcc/arm-elf/4.3.3/../../../../arm-elf/lib/interwork/libc.a(lib_a-errno.o)
                                0x491 (size before relaxing)
 .debug_str     0x000018aa       0x4c /usr/local/arm-elf-tools/gcc-4.3.3/lib/gcc/arm-elf/4.3.3/../../../../arm-elf/lib/interwork/libc.a(lib_a-exit.o)
                                0x49a (size before relaxing)
 .debug_str     0x000018f6       0x50 /usr/local/arm-elf-tools/gcc-4.3.3/lib/gcc/arm-elf/4.3.3/../../../../arm-elf/lib/interwork/libc.a(lib_a-fclose.o)
                                0x4a5 (size before relaxing)
 .debug_str     0x00001946       0x52 /usr/local/arm-elf-tools/gcc-4.3.3/lib/gcc/arm-elf/4.3.3/../../../../arm-elf/lib/interwork/libc.a(lib_a-fdopen.o)
                                0x4b2 (size before relaxing)
 .debug_str     0x00001998       0x52 /usr/local/arm-elf-tools/gcc-4.3.3/lib/gcc/arm-elf/4.3.3/../../../../arm-elf/lib/interwork/libc.a(lib_a-fflush.o)
                                0x4c1 (size before relaxing)
 .debug_str     0x000019ea       0x48 /usr/local/arm-elf-tools/gcc-4.3.3/lib/gcc/arm-elf/4.3.3/../../../../arm-elf/lib/interwork/libc.a(lib_a-fgets.o)
                                0x4a4 (size before relaxing)
 .debug_str     0x00001a32       0x41 /usr/local/arm-elf-tools/gcc-4.3.3/lib/gcc/arm-elf/4.3.3/../../../../arm-elf/lib/interwork/libc.a(lib_a-fileno.o)
                                0x49d (size before relaxing)
 .debug_str     0x00001a73      0x102 /usr/local/arm-elf-tools/gcc-4.3.3/lib/gcc/arm-elf/4.3.3/../../../../arm-elf/lib/interwork/libc.a(lib_a-findfp.o)
                                0x583 (size before relaxing)
 .debug_str     0x00001b75       0x47 /usr/local/arm-elf-tools/gcc-4.3.3/lib/gcc/arm-elf/4.3.3/../../../../arm-elf/lib/interwork/libc.a(lib_a-flags.o)
                                0x490 (size before relaxing)
 .debug_str     0x00001bbc       0x48 /usr/local/arm-elf-tools/gcc-4.3.3/lib/gcc/arm-elf/4.3.3/../../../../arm-elf/lib/interwork/libc.a(lib_a-fopen.o)
                                0x4b4 (size before relaxing)
 .debug_str     0x00001c04       0x67 /usr/local/arm-elf-tools/gcc-4.3.3/lib/gcc/arm-elf/4.3.3/../../../../arm-elf/lib/interwork/libc.a(lib_a-fprintf.o)
                                0x4cc (size before relaxing)
 .debug_str     0x00001c6b       0x48 /usr/local/arm-elf-tools/gcc-4.3.3/lib/gcc/arm-elf/4.3.3/../../../../arm-elf/lib/interwork/libc.a(lib_a-fputc.o)
                                0x4a9 (size before relaxing)
 .debug_str     0x00001cb3       0x84 /usr/local/arm-elf-tools/gcc-4.3.3/lib/gcc/arm-elf/4.3.3/../../../../arm-elf/lib/interwork/libc.a(lib_a-fputs.o)
                                0x4e7 (size before relaxing)
 .debug_str     0x00001d37       0x70 /usr/local/arm-elf-tools/gcc-4.3.3/lib/gcc/arm-elf/4.3.3/../../../../arm-elf/lib/interwork/libc.a(lib_a-fread.o)
                                0x4dd (size before relaxing)
 .debug_str     0x00001da7       0xf4 /usr/local/arm-elf-tools/gcc-4.3.3/lib/gcc/arm-elf/4.3.3/../../../../arm-elf/lib/interwork/libc.a(lib_a-freer.o)
                                0x5d1 (size before relaxing)
 .debug_str     0x00001e9b       0x4e /usr/local/arm-elf-tools/gcc-4.3.3/lib/gcc/arm-elf/4.3.3/../../../../arm-elf/lib/interwork/libc.a(lib_a-freopen.o)
                                0x4ba (size before relaxing)
 .debug_str     0x00001ee9       0x44 /usr/local/arm-elf-tools/gcc-4.3.3/lib/gcc/arm-elf/4.3.3/../../../../arm-elf/lib/interwork/libc.a(lib_a-fscanf.o)
                                0x4c9 (size before relaxing)
 .debug_str     0x00001f2d      0x138 /usr/local/arm-elf-tools/gcc-4.3.3/lib/gcc/arm-elf/4.3.3/../../../../arm-elf/lib/interwork/libc.a(lib_a-fseek.o)
                                0x5c1 (size before relaxing)
 .debug_str     0x00002065       0x48 /usr/local/arm-elf-tools/gcc-4.3.3/lib/gcc/arm-elf/4.3.3/../../../../arm-elf/lib/interwork/libc.a(lib_a-ftell.o)
                                0x49d (size before relaxing)
 .debug_str     0x000020ad       0x66 /usr/local/arm-elf-tools/gcc-4.3.3/lib/gcc/arm-elf/4.3.3/../../../../arm-elf/lib/interwork/libc.a(lib_a-fvwrite.o)
                                0x4f2 (size before relaxing)
 .debug_str     0x00002113       0x5e /usr/local/arm-elf-tools/gcc-4.3.3/lib/gcc/arm-elf/4.3.3/../../../../arm-elf/lib/interwork/libc.a(lib_a-fwalk.o)
                                0x4c4 (size before relaxing)
 .debug_str     0x00002171       0x4b /usr/local/arm-elf-tools/gcc-4.3.3/lib/gcc/arm-elf/4.3.3/../../../../arm-elf/lib/interwork/libc.a(lib_a-fwrite.o)
                                0x4ee (size before relaxing)
 .debug_str     0x000021bc       0x4b /usr/local/arm-elf-tools/gcc-4.3.3/lib/gcc/arm-elf/4.3.3/../../../../arm-elf/lib/interwork/libc.a(lib_a-getenv.o)
                                0x4a7 (size before relaxing)
 .debug_str     0x00002207       0x5c /usr/local/arm-elf-tools/gcc-4.3.3/lib/gcc/arm-elf/4.3.3/../../../../arm-elf/lib/interwork/libc.a(lib_a-getenv_r.o)
                                0x4be (size before relaxing)
 .debug_str     0x00002263       0x3f /usr/local/arm-elf-tools/gcc-4.3.3/lib/gcc/arm-elf/4.3.3/../../../../arm-elf/lib/interwork/libc.a(lib_a-gmtime.o)
                                0x4e3 (size before relaxing)
 .debug_str     0x000022a2       0x44 /usr/local/arm-elf-tools/gcc-4.3.3/lib/gcc/arm-elf/4.3.3/../../../../arm-elf/lib/interwork/libc.a(lib_a-gmtime_r.o)
                                0x12c (size before relaxing)
 .debug_str     0x000022e6       0x46 /usr/local/arm-elf-tools/gcc-4.3.3/lib/gcc/arm-elf/4.3.3/../../../../arm-elf/lib/interwork/libc.a(lib_a-impure.o)
                                0x4a9 (size before relaxing)
 .debug_str     0x0000232c       0x44 /usr/local/arm-elf-tools/gcc-4.3.3/lib/gcc/arm-elf/4.3.3/../../../../arm-elf/lib/interwork/libc.a(lib_a-lcltime.o)
                                0x4e7 (size before relaxing)
 .debug_str     0x00002370       0x48 /usr/local/arm-elf-tools/gcc-4.3.3/lib/gcc/arm-elf/4.3.3/../../../../arm-elf/lib/interwork/libc.a(lib_a-lcltime_r.o)
                                0x130 (size before relaxing)
 .debug_str     0x000023b8      0x199 /usr/local/arm-elf-tools/gcc-4.3.3/lib/gcc/arm-elf/4.3.3/../../../../arm-elf/lib/interwork/libc.a(lib_a-locale.o)
                                0x637 (size before relaxing)
 .debug_str     0x00002551       0x53 /usr/local/arm-elf-tools/gcc-4.3.3/lib/gcc/arm-elf/4.3.3/../../../../arm-elf/lib/interwork/libc.a(lib_a-makebuf.o)
                                0x595 (size before relaxing)
 .debug_str     0x000025a4       0x47 /usr/local/arm-elf-tools/gcc-4.3.3/lib/gcc/arm-elf/4.3.3/../../../../arm-elf/lib/interwork/libc.a(lib_a-malloc.o)
                                0x4aa (size before relaxing)
 .debug_str     0x000025eb       0xe9 /usr/local/arm-elf-tools/gcc-4.3.3/lib/gcc/arm-elf/4.3.3/../../../../arm-elf/lib/interwork/libc.a(lib_a-mallocr.o)
                                0x67f (size before relaxing)
 .debug_str     0x000026d4       0x57 /usr/local/arm-elf-tools/gcc-4.3.3/lib/gcc/arm-elf/4.3.3/../../../../arm-elf/lib/interwork/libc.a(lib_a-memchr.o)
                                 0xf8 (size before relaxing)
 .debug_str     0x0000272b       0x42 /usr/local/arm-elf-tools/gcc-4.3.3/lib/gcc/arm-elf/4.3.3/../../../../arm-elf/lib/interwork/libc.a(lib_a-memcmp.o)
                                 0xde (size before relaxing)
 .debug_str     0x0000276d       0x69 /usr/local/arm-elf-tools/gcc-4.3.3/lib/gcc/arm-elf/4.3.3/../../../../arm-elf/lib/interwork/libc.a(lib_a-memcpy.o)
                                0x105 (size before relaxing)
 .debug_str     0x000027d6       0x4d /usr/local/arm-elf-tools/gcc-4.3.3/lib/gcc/arm-elf/4.3.3/../../../../arm-elf/lib/interwork/libc.a(lib_a-memmove.o)
                                0x111 (size before relaxing)
 .debug_str     0x00002823       0x56 /usr/local/arm-elf-tools/gcc-4.3.3/lib/gcc/arm-elf/4.3.3/../../../../arm-elf/lib/interwork/libc.a(lib_a-memset.o)
                                 0xf2 (size before relaxing)
 .debug_str     0x00002879      0x11b /usr/local/arm-elf-tools/gcc-4.3.3/lib/gcc/arm-elf/4.3.3/../../../../arm-elf/lib/interwork/libc.a(lib_a-mktime.o)
                                0x21f (size before relaxing)
 .debug_str     0x00002994       0xb2 /usr/local/arm-elf-tools/gcc-4.3.3/lib/gcc/arm-elf/4.3.3/../../../../arm-elf/lib/interwork/libc.a(lib_a-mktm_r.o)
                                0x21b (size before relaxing)
 .debug_str     0x00002a46       0x6d /usr/local/arm-elf-tools/gcc-4.3.3/lib/gcc/arm-elf/4.3.3/../../../../arm-elf/lib/interwork/libc.a(lib_a-mlock.o)
                                0x4b1 (size before relaxing)
 .debug_str     0x00002ab3       0x44 /usr/local/arm-elf-tools/gcc-4.3.3/lib/gcc/arm-elf/4.3.3/../../../../arm-elf/lib/interwork/libc.a(lib_a-printf.o)
                                0x4c4 (size before relaxing)
 .debug_str     0x00002af7       0x40 /usr/local/arm-elf-tools/gcc-4.3.3/lib/gcc/arm-elf/4.3.3/../../../../arm-elf/lib/interwork/libc.a(lib_a-putc.o)
                                0x4a1 (size before relaxing)
 .debug_str     0x00002b37       0x3f /usr/local/arm-elf-tools/gcc-4.3.3/lib/gcc/arm-elf/4.3.3/../../../../arm-elf/lib/interwork/libc.a(lib_a-rand.o)
                                0x499 (size before relaxing)
 .debug_str     0x00002b76       0x44 /usr/local/arm-elf-tools/gcc-4.3.3/lib/gcc/arm-elf/4.3.3/../../../../arm-elf/lib/interwork/libc.a(lib_a-realloc.o)
                                0x4a2 (size before relaxing)
 .debug_str     0x00002bba       0x59 /usr/local/arm-elf-tools/gcc-4.3.3/lib/gcc/arm-elf/4.3.3/../../../../arm-elf/lib/interwork/libc.a(lib_a-reallocr.o)
                                0x551 (size before relaxing)
 .debug_str     0x00002c13       0x4d /usr/local/arm-elf-tools/gcc-4.3.3/lib/gcc/arm-elf/4.3.3/../../../../arm-elf/lib/interwork/libc.a(lib_a-refill.o)
                                0x4a9 (size before relaxing)
 .debug_str     0x00002c60       0x54 /usr/local/arm-elf-tools/gcc-4.3.3/lib/gcc/arm-elf/4.3.3/../../../../arm-elf/lib/interwork/libc.a(lib_a-remove.o)
                                0x4a4 (size before relaxing)
 .debug_str     0x00002cb4       0x4a /usr/local/arm-elf-tools/gcc-4.3.3/lib/gcc/arm-elf/4.3.3/../../../../arm-elf/lib/interwork/libc.a(lib_a-rget.o)
                                0x49f (size before relaxing)
 .debug_str     0x00002cfe       0x43 /usr/local/arm-elf-tools/gcc-4.3.3/lib/gcc/arm-elf/4.3.3/../../../../arm-elf/lib/interwork/libc.a(lib_a-setvbuf.o)
                                0x4a9 (size before relaxing)
 .debug_str     0x00002d41       0x95 /usr/local/arm-elf-tools/gcc-4.3.3/lib/gcc/arm-elf/4.3.3/../../../../arm-elf/lib/interwork/libc.a(lib_a-signal.o)
                                0x4fb (size before relaxing)
 .debug_str     0x00002dd6       0x48 /usr/local/arm-elf-tools/gcc-4.3.3/lib/gcc/arm-elf/4.3.3/../../../../arm-elf/lib/interwork/libc.a(lib_a-snprintf.o)
                                0x4db (size before relaxing)
 .debug_str     0x00002e1e       0x4e /usr/local/arm-elf-tools/gcc-4.3.3/lib/gcc/arm-elf/4.3.3/../../../../arm-elf/lib/interwork/libc.a(lib_a-sprintf.o)
                                0x4cc (size before relaxing)
 .debug_str     0x00002e6c       0x5b /usr/local/arm-elf-tools/gcc-4.3.3/lib/gcc/arm-elf/4.3.3/../../../../arm-elf/lib/interwork/libc.a(lib_a-stdio.o)
                                0x4c0 (size before relaxing)
 .debug_str     0x00002ec7       0x4d /usr/local/arm-elf-tools/gcc-4.3.3/lib/gcc/arm-elf/4.3.3/../../../../arm-elf/lib/interwork/libc.a(lib_a-strcat.o)
                                 0xe2 (size before relaxing)
 .debug_str     0x00002f14       0x42 /usr/local/arm-elf-tools/gcc-4.3.3/lib/gcc/arm-elf/4.3.3/../../../../arm-elf/lib/interwork/libc.a(lib_a-strchr.o)
                                 0xe9 (size before relaxing)
 .debug_str     0x00002f56       0x42 /usr/local/arm-elf-tools/gcc-4.3.3/lib/gcc/arm-elf/4.3.3/../../../../arm-elf/lib/interwork/libc.a(lib_a-strcmp.o)
                                 0xd7 (size before relaxing)
 .debug_str     0x00002f98       0x44 /usr/local/arm-elf-tools/gcc-4.3.3/lib/gcc/arm-elf/4.3.3/../../../../arm-elf/lib/interwork/libc.a(lib_a-strcoll.o)
                                 0xd9 (size before relaxing)
 .debug_str     0x00002fdc       0x42 /usr/local/arm-elf-tools/gcc-4.3.3/lib/gcc/arm-elf/4.3.3/../../../../arm-elf/lib/interwork/libc.a(lib_a-strcpy.o)
                                 0xf9 (size before relaxing)
 .debug_str     0x0000301e       0x44 /usr/local/arm-elf-tools/gcc-4.3.3/lib/gcc/arm-elf/4.3.3/../../../../arm-elf/lib/interwork/libc.a(lib_a-strcspn.o)
                                 0xe0 (size before relaxing)
 .debug_str     0x00003062       0x44 /usr/local/arm-elf-tools/gcc-4.3.3/lib/gcc/arm-elf/4.3.3/../../../../arm-elf/lib/interwork/libc.a(lib_a-strerror.o)
                                 0xe8 (size before relaxing)
 .debug_str     0x000030a6       0x98 /usr/local/arm-elf-tools/gcc-4.3.3/lib/gcc/arm-elf/4.3.3/../../../../arm-elf/lib/interwork/libc.a(lib_a-strftime.o)
                                0x20e (size before relaxing)
 .debug_str     0x0000313e       0x42 /usr/local/arm-elf-tools/gcc-4.3.3/lib/gcc/arm-elf/4.3.3/../../../../arm-elf/lib/interwork/libc.a(lib_a-strlen.o)
                                 0xf1 (size before relaxing)
 .debug_str     0x00003180       0x44 /usr/local/arm-elf-tools/gcc-4.3.3/lib/gcc/arm-elf/4.3.3/../../../../arm-elf/lib/interwork/libc.a(lib_a-strncat.o)
                                 0xeb (size before relaxing)
 .debug_str     0x000031c4       0x44 /usr/local/arm-elf-tools/gcc-4.3.3/lib/gcc/arm-elf/4.3.3/../../../../arm-elf/lib/interwork/libc.a(lib_a-strncmp.o)
                                 0xe0 (size before relaxing)
 .debug_str     0x00003208       0x44 /usr/local/arm-elf-tools/gcc-4.3.3/lib/gcc/arm-elf/4.3.3/../../../../arm-elf/lib/interwork/libc.a(lib_a-strncpy.o)
                                0x108 (size before relaxing)
 .debug_str     0x0000324c       0x44 /usr/local/arm-elf-tools/gcc-4.3.3/lib/gcc/arm-elf/4.3.3/../../../../arm-elf/lib/interwork/libc.a(lib_a-strnlen.o)
                                 0xe6 (size before relaxing)
 .debug_str     0x00003290       0x44 /usr/local/arm-elf-tools/gcc-4.3.3/lib/gcc/arm-elf/4.3.3/../../../../arm-elf/lib/interwork/libc.a(lib_a-strpbrk.o)
                                 0xd9 (size before relaxing)
 .debug_str     0x000032d4       0x44 /usr/local/arm-elf-tools/gcc-4.3.3/lib/gcc/arm-elf/4.3.3/../../../../arm-elf/lib/interwork/libc.a(lib_a-strrchr.o)
                                 0xde (size before relaxing)
 .debug_str     0x00003318       0xe8 /usr/local/arm-elf-tools/gcc-4.3.3/lib/gcc/arm-elf/4.3.3/../../../../arm-elf/lib/interwork/libc.a(lib_a-strstr.o)
                                0x198 (size before relaxing)
 .debug_str     0x00003400      0x1e7 /usr/local/arm-elf-tools/gcc-4.3.3/lib/gcc/arm-elf/4.3.3/../../../../arm-elf/lib/interwork/libc.a(lib_a-strtod.o)
                                0x679 (size before relaxing)
 .debug_str     0x000035e7       0x64 /usr/local/arm-elf-tools/gcc-4.3.3/lib/gcc/arm-elf/4.3.3/../../../../arm-elf/lib/interwork/libc.a(lib_a-strtoul.o)
                                0x4d1 (size before relaxing)
 .debug_str     0x0000364b      0x11c /usr/local/arm-elf-tools/gcc-4.3.3/lib/gcc/arm-elf/4.3.3/../../../../arm-elf/lib/interwork/libc.a(lib_a-svfprintf.o)
                                0x662 (size before relaxing)
 .debug_str     0x00003767       0x3f /usr/local/arm-elf-tools/gcc-4.3.3/lib/gcc/arm-elf/4.3.3/../../../../arm-elf/lib/interwork/libc.a(lib_a-sysclose.o)
                                0x495 (size before relaxing)
 .debug_str     0x000037a6       0x7b /usr/local/arm-elf-tools/gcc-4.3.3/lib/gcc/arm-elf/4.3.3/../../../../arm-elf/lib/interwork/libc.a(lib_a-sysgettod.o)
                                0x4da (size before relaxing)
 .debug_str     0x00003821       0x3e /usr/local/arm-elf-tools/gcc-4.3.3/lib/gcc/arm-elf/4.3.3/../../../../arm-elf/lib/interwork/libc.a(lib_a-sysopen.o)
                                0x4c7 (size before relaxing)
 .debug_str     0x0000385f       0x3e /usr/local/arm-elf-tools/gcc-4.3.3/lib/gcc/arm-elf/4.3.3/../../../../arm-elf/lib/interwork/libc.a(lib_a-sysread.o)
                                0x49a (size before relaxing)
 .debug_str     0x0000389d       0x4c /usr/local/arm-elf-tools/gcc-4.3.3/lib/gcc/arm-elf/4.3.3/../../../../arm-elf/lib/interwork/libc.a(lib_a-system.o)
                                0x49c (size before relaxing)
 .debug_str     0x000038e9       0x47 /usr/local/arm-elf-tools/gcc-4.3.3/lib/gcc/arm-elf/4.3.3/../../../../arm-elf/lib/interwork/libc.a(lib_a-sysunlink.o)
                                0x49c (size before relaxing)
 .debug_str     0x00003930       0x3f /usr/local/arm-elf-tools/gcc-4.3.3/lib/gcc/arm-elf/4.3.3/../../../../arm-elf/lib/interwork/libc.a(lib_a-syswrite.o)
                                0x49c (size before relaxing)
 .debug_str     0x0000396f       0x37 /usr/local/arm-elf-tools/gcc-4.3.3/lib/gcc/arm-elf/4.3.3/../../../../arm-elf/lib/interwork/libc.a(lib_a-time.o)
                                0x4b6 (size before relaxing)
 .debug_str     0x000039a6       0x48 /usr/local/arm-elf-tools/gcc-4.3.3/lib/gcc/arm-elf/4.3.3/../../../../arm-elf/lib/interwork/libc.a(lib_a-timesr.o)
                                0x4be (size before relaxing)
 .debug_str     0x000039ee       0x4e /usr/local/arm-elf-tools/gcc-4.3.3/lib/gcc/arm-elf/4.3.3/../../../../arm-elf/lib/interwork/libc.a(lib_a-tmpfile.o)
                                0x4a3 (size before relaxing)
 .debug_str     0x00003a3c       0x84 /usr/local/arm-elf-tools/gcc-4.3.3/lib/gcc/arm-elf/4.3.3/../../../../arm-elf/lib/interwork/libc.a(lib_a-tmpnam.o)
                                0x4eb (size before relaxing)
 .debug_str     0x00003ac0       0x60 /usr/local/arm-elf-tools/gcc-4.3.3/lib/gcc/arm-elf/4.3.3/../../../../arm-elf/lib/interwork/libc.a(lib_a-tzlock.o)
                                 0xf5 (size before relaxing)
 .debug_str     0x00003b20       0x43 /usr/local/arm-elf-tools/gcc-4.3.3/lib/gcc/arm-elf/4.3.3/../../../../arm-elf/lib/interwork/libc.a(lib_a-tzvars.o)
                                 0xea (size before relaxing)
 .debug_str     0x00003b63       0x55 /usr/local/arm-elf-tools/gcc-4.3.3/lib/gcc/arm-elf/4.3.3/../../../../arm-elf/lib/interwork/libc.a(lib_a-ungetc.o)
                                0x4af (size before relaxing)
 .debug_str     0x00003bb8       0x4c /usr/local/arm-elf-tools/gcc-4.3.3/lib/gcc/arm-elf/4.3.3/../../../../arm-elf/lib/interwork/libc.a(lib_a-u_strerr.o)
                                 0x64 (size before relaxing)
 .debug_str     0x00003c04       0x25 /usr/local/arm-elf-tools/gcc-4.3.3/lib/gcc/arm-elf/4.3.3/../../../../arm-elf/lib/interwork/libc.a(lib_a-vfprintf.o)
                                0x683 (size before relaxing)
 .debug_str     0x00003c29      0x11e /usr/local/arm-elf-tools/gcc-4.3.3/lib/gcc/arm-elf/4.3.3/../../../../arm-elf/lib/interwork/libc.a(lib_a-vfscanf.o)
                                0x622 (size before relaxing)
 .debug_str     0x00003d47       0x54 /usr/local/arm-elf-tools/gcc-4.3.3/lib/gcc/arm-elf/4.3.3/../../../../arm-elf/lib/interwork/libc.a(lib_a-vsnprintf.o)
                                0x4de (size before relaxing)
 .debug_str     0x00003d9b       0x4a /usr/local/arm-elf-tools/gcc-4.3.3/lib/gcc/arm-elf/4.3.3/../../../../arm-elf/lib/interwork/libc.a(lib_a-wbuf.o)
                                0x49f (size before relaxing)
 .debug_str     0x00003de5       0x46 /usr/local/arm-elf-tools/gcc-4.3.3/lib/gcc/arm-elf/4.3.3/../../../../arm-elf/lib/interwork/libc.a(lib_a-wsetup.o)
                                0x49b (size before relaxing)
 .debug_str     0x00003e2b       0x38 /usr/local/arm-elf-tools/gcc-4.3.3/lib/gcc/arm-elf/4.3.3/../../../../arm-elf/lib/interwork/libc.a(lib_a-abs.o)
                                 0xcd (size before relaxing)
 .debug_str     0x00003e63       0x61 /usr/local/arm-elf-tools/gcc-4.3.3/lib/gcc/arm-elf/4.3.3/../../../../arm-elf/lib/interwork/libc.a(lib_a-__call_atexit.o)
                                0x4c2 (size before relaxing)
 .debug_str     0x00003ec4       0x3e /usr/local/arm-elf-tools/gcc-4.3.3/lib/gcc/arm-elf/4.3.3/../../../../arm-elf/lib/interwork/libc.a(lib_a-div.o)
                                 0xde (size before relaxing)
 .debug_str     0x00003f02       0xd3 /usr/local/arm-elf-tools/gcc-4.3.3/lib/gcc/arm-elf/4.3.3/../../../../arm-elf/lib/interwork/libc.a(lib_a-dtoa.o)
                                0x58f (size before relaxing)
 .debug_str     0x00003fd5       0x48 /usr/local/arm-elf-tools/gcc-4.3.3/lib/gcc/arm-elf/4.3.3/../../../../arm-elf/lib/interwork/libc.a(lib_a-environ.o)
                                 0x61 (size before relaxing)
 .debug_str     0x0000401d       0x66 /usr/local/arm-elf-tools/gcc-4.3.3/lib/gcc/arm-elf/4.3.3/../../../../arm-elf/lib/interwork/libc.a(lib_a-envlock.o)
                                0x4aa (size before relaxing)
 .debug_str     0x00004083       0xd8 /usr/local/arm-elf-tools/gcc-4.3.3/lib/gcc/arm-elf/4.3.3/../../../../arm-elf/lib/interwork/libc.a(lib_a-gdtoa-gethex.o)
                                0x64e (size before relaxing)
 .debug_str     0x0000415b       0x52 /usr/local/arm-elf-tools/gcc-4.3.3/lib/gcc/arm-elf/4.3.3/../../../../arm-elf/lib/interwork/libc.a(lib_a-gdtoa-hexnan.o)
                                0x20d (size before relaxing)
 .debug_str     0x000041ad       0x51 /usr/local/arm-elf-tools/gcc-4.3.3/lib/gcc/arm-elf/4.3.3/../../../../arm-elf/lib/interwork/libc.a(lib_a-gettimeofdayr.o)
                                0x4d8 (size before relaxing)
 .debug_str     0x000041fe       0x48 /usr/local/arm-elf-tools/gcc-4.3.3/lib/gcc/arm-elf/4.3.3/../../../../arm-elf/lib/interwork/libc.a(lib_a-gettzinfo.o)
                                0x151 (size before relaxing)
 .debug_str     0x00004246       0x45 /usr/local/arm-elf-tools/gcc-4.3.3/lib/gcc/arm-elf/4.3.3/../../../../arm-elf/lib/interwork/libc.a(lib_a-isattyr.o)
                                0x48f (size before relaxing)
 .debug_str     0x0000428b       0x4d /usr/local/arm-elf-tools/gcc-4.3.3/lib/gcc/arm-elf/4.3.3/../../../../arm-elf/lib/interwork/libc.a(lib_a-iswspace.o)
                                0x102 (size before relaxing)
 .debug_str     0x000042d8       0x3e /usr/local/arm-elf-tools/gcc-4.3.3/lib/gcc/arm-elf/4.3.3/../../../../arm-elf/lib/interwork/libc.a(lib_a-labs.o)
                                 0xd3 (size before relaxing)
 .debug_str     0x00004316       0x4f /usr/local/arm-elf-tools/gcc-4.3.3/lib/gcc/arm-elf/4.3.3/../../../../arm-elf/lib/interwork/libc.a(lib_a-mbrtowc.o)
                                0x4bf (size before relaxing)
 .debug_str     0x00004365       0x4d /usr/local/arm-elf-tools/gcc-4.3.3/lib/gcc/arm-elf/4.3.3/../../../../arm-elf/lib/interwork/libc.a(lib_a-mbtowc_r.o)
                                0x4b0 (size before relaxing)
 .debug_str     0x000043b2       0xf8 /usr/local/arm-elf-tools/gcc-4.3.3/lib/gcc/arm-elf/4.3.3/../../../../arm-elf/lib/interwork/libc.a(lib_a-mprec.o)
                                0x59c (size before relaxing)
 .debug_str     0x000044aa       0x73 /usr/local/arm-elf-tools/gcc-4.3.3/lib/gcc/arm-elf/4.3.3/../../../../arm-elf/lib/interwork/libc.a(lib_a-reent.o)
                                0x4ce (size before relaxing)
 .debug_str     0x0000451d       0x4f /usr/local/arm-elf-tools/gcc-4.3.3/lib/gcc/arm-elf/4.3.3/../../../../arm-elf/lib/interwork/libc.a(lib_a-sccl.o)
                                 0xe4 (size before relaxing)
 .debug_str     0x0000456c       0x40 /usr/local/arm-elf-tools/gcc-4.3.3/lib/gcc/arm-elf/4.3.3/../../../../arm-elf/lib/interwork/libc.a(lib_a-sf_nan.o)
                                 0xf5 (size before relaxing)
 .debug_str     0x000045ac       0x46 /usr/local/arm-elf-tools/gcc-4.3.3/lib/gcc/arm-elf/4.3.3/../../../../arm-elf/lib/interwork/libc.a(lib_a-s_isinfd.o)
                                0x131 (size before relaxing)
 .debug_str     0x000045f2       0x4c /usr/local/arm-elf-tools/gcc-4.3.3/lib/gcc/arm-elf/4.3.3/../../../../arm-elf/lib/interwork/libc.a(lib_a-strtol.o)
                                0x4ce (size before relaxing)
